Archive member included to satisfy reference by file (symbol)

../../lib/libbtwam.a(btwam.o)
                              main.o (OpenWAM)
../../lib/libbtwam.a(gimbals.o)
                              ../../lib/libbtwam.a(btwam.o) (gimbalsInit)
../../lib/libbtsystem.a(btsystem.o)
                              ../../lib/libbtwam.a(btwam.o) (buses)
../../lib/libbtsystem.a(btlogger.o)
                              ../../lib/libbtwam.a(btwam.o) (PrepDL)
../../lib/libbtsystem.a(btcan_peakesd.o)
                              ../../lib/libbtsystem.a(btsystem.o) (initCAN)
../../lib/libbtsystem.a(btrobot.o)
                              ../../lib/libbtwam.a(btwam.o) (new_bot)
../../lib/libbtsystem.a(btmath.o)
                              ../../lib/libbtwam.a(btwam.o) (fill_vn)
../../lib/libbtsystem.a(btos.o)
                              ../../lib/libbtwam.a(btwam.o) (test_and_log)
../../lib/libbtsystem.a(btcontrol.o)
                              ../../lib/libbtwam.a(btwam.o) (init_btPID)
../../lib/libbtsystem.a(btstatecontrol.o)
                              ../../lib/libbtwam.a(btwam.o) (map_btstatecontrol)
../../lib/libbtsystem.a(btparser.o)
                              ../../lib/libbtwam.a(btwam.o) (parseFile)
../../lib/libbtsystem.a(btseg.o)
                              ../../lib/libbtsystem.a(btcontrol.o) (destroy_pavn)
../../lib/libbtsystem.a(btpath.o)
                              ../../lib/libbtsystem.a(btcontrol.o) (new_pwl)
/usr/lib/x86_64-linux-gnu/libc_nonshared.a(elf-init.oS)
                              /usr/lib/gcc/x86_64-linux-gnu/7/../../../x86_64-linux-gnu/Scrt1.o (__libc_csu_init)

As-needed library included to satisfy reference by file (symbol)

libm.so.6                     ../../lib/libbtsystem.a(btmath.o) (acos@@GLIBC_2.2.5)
libtrank.so.0                 ../../lib/libbtwam.a(btwam.o) (rt_task_set_periodic)
libalchemy.so.0               /usr/lib/libtrank.so (__current_rt_alarm_create)

Allocating common symbols
Common symbol       size              file

PEN                 0x4               main.o
COMMON_END          0x4               main.o
wam                 0x8               main.o
LOAD                0x4               main.o
JIDX                0x4               main.o
VL1                 0x4               main.o
IOFF                0x4               main.o
VOLTL1              0x4               main.o
SAFETY_END          0x4               main.o
backtracesize       0x4               ../../lib/libbtsystem.a(btos.o)
LOG1                0x4               main.o
BAUD                0x4               main.o
LOG3                0x4               main.o
firstPos            0x8               ../../lib/libbtsystem.a(btsystem.o)
VALUE               0x4               main.o
ROLE                0x4               main.o
LFAP                0x4               main.o
SAVE                0x4               main.o
LFDP                0x4               main.o
KD                  0x4               main.o
D                   0x4               main.o
LSG                 0x4               main.o
B                   0x4               main.o
HSG                 0x4               main.o
TIE                 0x4               main.o
VOLTH2              0x4               main.o
SN                  0x4               main.o
IOFST               0x4               main.o
T                   0x4               main.o
KP                  0x4               main.o
IMOTOR              0x4               main.o
timev               0x10              ../../lib/libbtsystem.a(btsystem.o)
P                   0x4               main.o
V                   0x4               main.o
CT                  0x4               main.o
JOFST               0x4               main.o
VLOGIC              0x4               main.o
TSTOP               0x4               main.o
TACT                0x4               main.o
EN2                 0x4               main.o
P2                  0x4               main.o
X0                  0x4               main.o
HALLS               0x4               main.o
FIND                0x4               main.o
GRPA                0x4               main.o
GAIN2               0x4               main.o
MPE                 0x4               main.o
X2                  0x4               main.o
ANA1                0x4               main.o
X4                  0x4               main.o
X6                  0x4               main.o
backtracearray      0x190             ../../lib/libbtsystem.a(btos.o)
IKI                 0x4               main.o
ACCEL               0x4               main.o
GRPC                0x4               main.o
TORQ                0x4               main.o
VNOM                0x4               main.o
wam_thd             0x58              main.o
hdr                 0xff              ../../lib/libbtsystem.a(btparser.o)
ISQ                 0x4               main.o
POLES               0x4               main.o
MOFST               0x4               main.o
LCVC                0x4               main.o
TEMP                0x4               main.o
HOLD                0x4               main.o
OFFSET3             0x4               main.o
MAXPWR              0x4               main.o
BRAKE               0x4               main.o
TETAE               0x4               main.o
PWR                 0x4               main.o
AP2                 0x4               main.o
E2                  0x4               main.o
HALLH2              0x4               main.o
MT                  0x4               main.o
LOCK                0x4               main.o
OFFSET1             0x4               main.o
MCV                 0x4               main.o
M2                  0x4               main.o
PIDX                0x4               main.o
IVEL                0x4               main.o
VERS                0x4               main.o
_DS                 0x4               main.o
EN                  0x4               main.o
MD                  0x4               main.o
DIG1                0x4               main.o
DP2                 0x4               main.o
commMutex           0x20              ../../lib/libbtsystem.a(btcan_peakesd.o)
MV                  0x4               main.o
can_thd             0x58              main.o
FET1                0x4               main.o
insanePos           0x80              ../../lib/libbtsystem.a(btsystem.o)
TENSO               0x4               main.o
gimbalsGain         0x18              ../../lib/libbtwam.a(gimbals.o)
CTS                 0x4               main.o
MECH2               0x4               main.o
OT2                 0x4               main.o
CMD                 0x4               main.o
TENSION             0x4               main.o
LFV                 0x4               main.o
LFT                 0x4               main.o
TL2                 0x4               main.o
JP                  0x4               main.o
VL2                 0x4               main.o
RATIO               0x4               main.o
OTEMP               0x4               main.o
SAMPLE              0x4               main.o
LCTC                0x4               main.o
LOG2                0x4               main.o
LOG4                0x4               main.o
IOFF2               0x4               main.o
HALLH               0x4               main.o
SG                  0x4               main.o
E                   0x4               main.o
JP2                 0x4               main.o
STAT                0x4               main.o
VOLTL2              0x4               main.o
M                   0x4               main.o
LCV                 0x4               main.o
VOLTH1              0x4               main.o
CPU_cycles_per_second
                    0x8               ../../lib/libbtsystem.a(btsystem.o)
invalidPos          0x80              ../../lib/libbtsystem.a(btsystem.o)
JOFST2              0x4               main.o
IPNM                0x4               main.o
IKCOR               0x4               main.o
OD                  0x4               main.o
ADDR                0x4               main.o
KI                  0x4               main.o
OT                  0x4               main.o
act                 0x8               ../../lib/libbtsystem.a(btsystem.o)
backtracestrings    0x8               ../../lib/libbtsystem.a(btos.o)
DEF                 0x4               main.o
X1                  0x4               main.o
can_accept          0xc               ../../lib/libbtsystem.a(btcan_peakesd.o)
X3                  0x4               main.o
X5                  0x4               main.o
GAIN1               0x4               main.o
X7                  0x4               main.o
GAIN3               0x4               main.o
ANA0                0x4               main.o
IKP                 0x4               main.o
GRPB                0x4               main.o
MDS                 0x4               main.o
LOG                 0x4               main.o
MECH                0x4               main.o
DP                  0x4               main.o
CTS2                0x4               main.o
canDev              0x10              ../../lib/libbtsystem.a(btcan_peakesd.o)
ERROR               0x4               main.o
ECMIN               0x4               main.o
ECMAX               0x4               main.o
startDone           0x4               main.o
UPSECS              0x4               main.o
UNITS               0x4               main.o
LFLAGS              0x4               main.o
safetyBoardID       0x8               ../../lib/libbtsystem.a(btsystem.o)
ID                  0x4               main.o
PROP_END            0x4               main.o
PTEMP               0x4               main.o
TACTID              0x4               main.o
MOV                 0x4               main.o
OFFSET2             0x4               main.o
btptrs              0x1f40            ../../lib/libbtsystem.a(btmath.o)
ZERO                0x4               main.o
MODE                0x4               main.o
_LOCK               0x4               main.o
jointPosition       0x100             ../../lib/libbtsystem.a(btcan_peakesd.o)
THERM               0x4               main.o
AP                  0x4               main.o
TENST               0x4               main.o
DIG0                0x4               main.o
SAFE                0x4               main.o
gimbalsOffset       0x18              ../../lib/libbtwam.a(gimbals.o)
CT2                 0x4               main.o
FET0                0x4               main.o
mask                0xc               ../../lib/libbtsystem.a(btcan_peakesd.o)
IFAULT              0x4               main.o
VALUE32             0x4               main.o
LFS                 0x4               main.o
TL1                 0x4               main.o
P_OLD               0x4               main.o
outFile             0x8               ../../lib/libbtsystem.a(btparser.o)
num_actuators       0x4               ../../lib/libbtsystem.a(btsystem.o)
DUMP                0x4               main.o
VBUS                0x4               main.o
ILOGIC              0x4               main.o

Discarded input sections

 .note.GNU-stack
                0x0000000000000000        0x0 /usr/lib/gcc/x86_64-linux-gnu/7/../../../x86_64-linux-gnu/Scrt1.o
 .note.GNU-stack
                0x0000000000000000        0x0 /usr/lib/gcc/x86_64-linux-gnu/7/../../../x86_64-linux-gnu/crti.o
 .note.GNU-stack
                0x0000000000000000        0x0 /usr/lib/gcc/x86_64-linux-gnu/7/crtbeginS.o
 .note.GNU-stack
                0x0000000000000000        0x0 main.o
 .note.GNU-stack
                0x0000000000000000        0x0 ../../lib/libbtwam.a(btwam.o)
 .note.GNU-stack
                0x0000000000000000        0x0 ../../lib/libbtwam.a(gimbals.o)
 .note.GNU-stack
                0x0000000000000000        0x0 ../../lib/libbtsystem.a(btsystem.o)
 .note.GNU-stack
                0x0000000000000000        0x0 ../../lib/libbtsystem.a(btlogger.o)
 .note.GNU-stack
                0x0000000000000000        0x0 ../../lib/libbtsystem.a(btcan_peakesd.o)
 .note.GNU-stack
                0x0000000000000000        0x0 ../../lib/libbtsystem.a(btrobot.o)
 .note.GNU-stack
                0x0000000000000000        0x0 ../../lib/libbtsystem.a(btmath.o)
 .note.GNU-stack
                0x0000000000000000        0x0 ../../lib/libbtsystem.a(btos.o)
 .note.GNU-stack
                0x0000000000000000        0x0 ../../lib/libbtsystem.a(btcontrol.o)
 .note.GNU-stack
                0x0000000000000000        0x0 ../../lib/libbtsystem.a(btstatecontrol.o)
 .note.GNU-stack
                0x0000000000000000        0x0 ../../lib/libbtsystem.a(btparser.o)
 .note.GNU-stack
                0x0000000000000000        0x0 ../../lib/libbtsystem.a(btseg.o)
 .note.GNU-stack
                0x0000000000000000        0x0 ../../lib/libbtsystem.a(btpath.o)
 .note.GNU-stack
                0x0000000000000000        0x0 /usr/xenomai/lib/xenomai/bootstrap.o
 .note.GNU-stack
                0x0000000000000000        0x0 /usr/lib/x86_64-linux-gnu/libc_nonshared.a(elf-init.oS)
 .note.GNU-stack
                0x0000000000000000        0x0 /usr/lib/gcc/x86_64-linux-gnu/7/crtendS.o
 .note.GNU-stack
                0x0000000000000000        0x0 /usr/lib/gcc/x86_64-linux-gnu/7/../../../x86_64-linux-gnu/crtn.o

Memory Configuration

Name             Origin             Length             Attributes
*default*        0x0000000000000000 0xffffffffffffffff

Linker script and memory map

LOAD /usr/lib/gcc/x86_64-linux-gnu/7/../../../x86_64-linux-gnu/Scrt1.o
LOAD /usr/lib/gcc/x86_64-linux-gnu/7/../../../x86_64-linux-gnu/crti.o
LOAD /usr/lib/gcc/x86_64-linux-gnu/7/crtbeginS.o
LOAD main.o
LOAD /usr/lib/gcc/x86_64-linux-gnu/7/../../../x86_64-linux-gnu/libpthread.so
START GROUP
LOAD /lib/x86_64-linux-gnu/libpthread.so.0
LOAD /usr/lib/x86_64-linux-gnu/libpthread_nonshared.a
END GROUP
LOAD /usr/lib/gcc/x86_64-linux-gnu/7/../../../x86_64-linux-gnu/libncurses.so
LOAD /lib/x86_64-linux-gnu/libncurses.so.5
LOAD /usr/lib/gcc/x86_64-linux-gnu/7/../../../x86_64-linux-gnu/libtinfo.so
LOAD ../../lib/libbtwam.a
LOAD ../../lib/libbtsystem.a
LOAD /usr/lib/gcc/x86_64-linux-gnu/7/../../../x86_64-linux-gnu/libm.so
START GROUP
LOAD /lib/x86_64-linux-gnu/libm.so.6
LOAD /usr/lib/x86_64-linux-gnu/libmvec_nonshared.a
LOAD /lib/x86_64-linux-gnu/libmvec.so.1
END GROUP
LOAD /usr/lib/libtrank.so
LOAD /usr/lib/libalchemy.so
LOAD /usr/lib/libalchemy.so
LOAD /usr/lib/libcopperplate.so
LOAD /usr/xenomai/lib/xenomai/bootstrap.o
LOAD /usr/lib/libcobalt.so
LOAD /usr/lib/libmodechk.so
LOAD /usr/lib/gcc/x86_64-linux-gnu/7/../../../x86_64-linux-gnu/libpthread.so
START GROUP
LOAD /lib/x86_64-linux-gnu/libpthread.so.0
LOAD /usr/lib/x86_64-linux-gnu/libpthread_nonshared.a
END GROUP
LOAD /usr/lib/gcc/x86_64-linux-gnu/7/../../../x86_64-linux-gnu/librt.so
LOAD /usr/lib/libalchemy.so
LOAD /usr/lib/gcc/x86_64-linux-gnu/7/libgcc.a
LOAD /usr/lib/gcc/x86_64-linux-gnu/7/libgcc_s.so
START GROUP
LOAD /usr/lib/gcc/x86_64-linux-gnu/7/libgcc_s.so.1
LOAD /usr/lib/gcc/x86_64-linux-gnu/7/libgcc.a
END GROUP
LOAD /usr/lib/gcc/x86_64-linux-gnu/7/../../../x86_64-linux-gnu/libc.so
START GROUP
LOAD /lib/x86_64-linux-gnu/libc.so.6
LOAD /usr/lib/x86_64-linux-gnu/libc_nonshared.a
LOAD /lib/x86_64-linux-gnu/ld-linux-x86-64.so.2
END GROUP
LOAD /usr/lib/gcc/x86_64-linux-gnu/7/libgcc.a
LOAD /usr/lib/gcc/x86_64-linux-gnu/7/libgcc_s.so
START GROUP
LOAD /usr/lib/gcc/x86_64-linux-gnu/7/libgcc_s.so.1
LOAD /usr/lib/gcc/x86_64-linux-gnu/7/libgcc.a
END GROUP
LOAD /usr/lib/gcc/x86_64-linux-gnu/7/crtendS.o
LOAD /usr/lib/gcc/x86_64-linux-gnu/7/../../../x86_64-linux-gnu/crtn.o
                [!provide]                        PROVIDE (__executable_start = SEGMENT_START ("text-segment", 0x0))
                0x0000000000000238                . = (SEGMENT_START ("text-segment", 0x0) + SIZEOF_HEADERS)

.interp         0x0000000000000238       0x1c
 *(.interp)
 .interp        0x0000000000000238       0x1c /usr/lib/gcc/x86_64-linux-gnu/7/../../../x86_64-linux-gnu/Scrt1.o

.note.ABI-tag   0x0000000000000254       0x20
 .note.ABI-tag  0x0000000000000254       0x20 /usr/lib/gcc/x86_64-linux-gnu/7/../../../x86_64-linux-gnu/Scrt1.o

.note.gnu.build-id
                0x0000000000000274       0x24
 *(.note.gnu.build-id)
 .note.gnu.build-id
                0x0000000000000274       0x24 /usr/lib/gcc/x86_64-linux-gnu/7/../../../x86_64-linux-gnu/Scrt1.o

.hash
 *(.hash)

.gnu.hash       0x0000000000000298     0x14f8
 *(.gnu.hash)
 .gnu.hash      0x0000000000000298     0x14f8 /usr/lib/gcc/x86_64-linux-gnu/7/../../../x86_64-linux-gnu/Scrt1.o

.dynsym         0x0000000000001790     0x4a10
 *(.dynsym)
 .dynsym        0x0000000000001790     0x4a10 /usr/lib/gcc/x86_64-linux-gnu/7/../../../x86_64-linux-gnu/Scrt1.o

.dynstr         0x00000000000061a0     0x205d
 *(.dynstr)
 .dynstr        0x00000000000061a0     0x205d /usr/lib/gcc/x86_64-linux-gnu/7/../../../x86_64-linux-gnu/Scrt1.o

.gnu.version    0x00000000000081fe      0x62c
 *(.gnu.version)
 .gnu.version   0x00000000000081fe      0x62c /usr/lib/gcc/x86_64-linux-gnu/7/../../../x86_64-linux-gnu/Scrt1.o

.gnu.version_d  0x0000000000008830        0x0
 *(.gnu.version_d)
 .gnu.version_d
                0x0000000000008830        0x0 /usr/lib/gcc/x86_64-linux-gnu/7/../../../x86_64-linux-gnu/Scrt1.o

.gnu.version_r  0x0000000000008830       0x90
 *(.gnu.version_r)
 .gnu.version_r
                0x0000000000008830       0x90 /usr/lib/gcc/x86_64-linux-gnu/7/../../../x86_64-linux-gnu/Scrt1.o

.rela.dyn       0x00000000000088c0      0x108
 *(.rela.init)
 *(.rela.text .rela.text.* .rela.gnu.linkonce.t.*)
 .rela.text     0x00000000000088c0        0x0 /usr/lib/gcc/x86_64-linux-gnu/7/../../../x86_64-linux-gnu/Scrt1.o
 *(.rela.fini)
 *(.rela.rodata .rela.rodata.* .rela.gnu.linkonce.r.*)
 *(.rela.data .rela.data.* .rela.gnu.linkonce.d.*)
 .rela.data.rel.ro
                0x00000000000088c0        0x0 /usr/lib/gcc/x86_64-linux-gnu/7/../../../x86_64-linux-gnu/Scrt1.o
 .rela.data.rel.local
                0x00000000000088c0       0x18 /usr/lib/gcc/x86_64-linux-gnu/7/../../../x86_64-linux-gnu/Scrt1.o
 *(.rela.tdata .rela.tdata.* .rela.gnu.linkonce.td.*)
 *(.rela.tbss .rela.tbss.* .rela.gnu.linkonce.tb.*)
 *(.rela.ctors)
 *(.rela.dtors)
 *(.rela.got)
 .rela.got      0x00000000000088d8       0x78 /usr/lib/gcc/x86_64-linux-gnu/7/../../../x86_64-linux-gnu/Scrt1.o
 *(.rela.bss .rela.bss.* .rela.gnu.linkonce.b.*)
 .rela.bss      0x0000000000008950       0x30 /usr/lib/gcc/x86_64-linux-gnu/7/../../../x86_64-linux-gnu/Scrt1.o
 *(.rela.ldata .rela.ldata.* .rela.gnu.linkonce.l.*)
 *(.rela.lbss .rela.lbss.* .rela.gnu.linkonce.lb.*)
 *(.rela.lrodata .rela.lrodata.* .rela.gnu.linkonce.lr.*)
 *(.rela.ifunc)
 .rela.ifunc    0x0000000000008980        0x0 /usr/lib/gcc/x86_64-linux-gnu/7/../../../x86_64-linux-gnu/Scrt1.o
 .rela.fini_array
                0x0000000000008980       0x18 /usr/lib/gcc/x86_64-linux-gnu/7/../../../x86_64-linux-gnu/Scrt1.o
 .rela.init_array
                0x0000000000008998       0x18 /usr/lib/gcc/x86_64-linux-gnu/7/../../../x86_64-linux-gnu/Scrt1.o
 .rela.init_array.00220
                0x00000000000089b0       0x18 /usr/lib/gcc/x86_64-linux-gnu/7/../../../x86_64-linux-gnu/Scrt1.o

.rela.plt       0x00000000000089c8      0x8e8
 *(.rela.plt)
 .rela.plt      0x00000000000089c8      0x8e8 /usr/lib/gcc/x86_64-linux-gnu/7/../../../x86_64-linux-gnu/Scrt1.o
                [!provide]                        PROVIDE (__rela_iplt_start = .)
 *(.rela.iplt)
                [!provide]                        PROVIDE (__rela_iplt_end = .)

.init           0x00000000000092b0       0x17
 *(SORT_NONE(.init))
 .init          0x00000000000092b0       0x12 /usr/lib/gcc/x86_64-linux-gnu/7/../../../x86_64-linux-gnu/crti.o
                0x00000000000092b0                _init
 .init          0x00000000000092c2        0x5 /usr/lib/gcc/x86_64-linux-gnu/7/../../../x86_64-linux-gnu/crtn.o

.plt            0x00000000000092d0      0x600
 *(.plt)
 .plt           0x00000000000092d0      0x600 /usr/lib/gcc/x86_64-linux-gnu/7/../../../x86_64-linux-gnu/Scrt1.o
 *(.iplt)

.plt.got        0x00000000000098d0        0x8
 *(.plt.got)
 .plt.got       0x00000000000098d0        0x8 /usr/lib/gcc/x86_64-linux-gnu/7/../../../x86_64-linux-gnu/Scrt1.o

.plt.sec
 *(.plt.sec)

.text           0x00000000000098e0    0x26152
 *(.text.unlikely .text.*_unlikely .text.unlikely.*)
 *(.text.exit .text.exit.*)
 *(.text.startup .text.startup.*)
 .text.startup  0x00000000000098e0      0x18d /usr/xenomai/lib/xenomai/bootstrap.o
 *(.text.hot .text.hot.*)
 *(.text .stub .text.* .gnu.linkonce.t.*)
 *fill*         0x0000000000009a6d        0x3 
 .text          0x0000000000009a70       0x2b /usr/lib/gcc/x86_64-linux-gnu/7/../../../x86_64-linux-gnu/Scrt1.o
                0x0000000000009a70                _start
 .text          0x0000000000009a9b        0x0 /usr/lib/gcc/x86_64-linux-gnu/7/../../../x86_64-linux-gnu/crti.o
 *fill*         0x0000000000009a9b        0x5 
 .text          0x0000000000009aa0       0xda /usr/lib/gcc/x86_64-linux-gnu/7/crtbeginS.o
 .text          0x0000000000009b7a      0x8cc main.o
                0x0000000000009b7a                can_thd_function
                0x0000000000009ca8                main
 .text          0x000000000000a446     0x49ad ../../lib/libbtwam.a(btwam.o)
                0x000000000000a446                warn_upon_switch
                0x000000000000a511                InitVectors
                0x000000000000aa40                OpenWAM
                0x000000000000c797                CloseWAM
                0x000000000000c7b0                MotorID_From_ActIdx
                0x000000000000c7d7                WAMMaintenanceThread
                0x000000000000c87f                WAMControlThread
                0x000000000000dafe                ActAngle2Mpos
                0x000000000000db8e                Mtrq2ActTrq
                0x000000000000dc3e                Mpos2Jpos
                0x000000000000dce6                Jpos2Mpos
                0x000000000000dd8e                Jtrq2Mtrq
                0x000000000000de36                DefineWAMpos
                0x000000000000e093                SetCartesianSpace
                0x000000000000e136                SetJointSpace
                0x000000000000e1d9                SetPositionConstraint
                0x000000000000e23f                MoveSetup
                0x000000000000e281                MoveWAM
                0x000000000000e2fc                MoveIsDone
                0x000000000000e33f                MoveStop
                0x000000000000e361                ParkWAM
                0x000000000000e3be                GetGravityComp
                0x000000000000e3ec                SetGravityComp
                0x000000000000e420                SetGravityUsingCalibrated
                0x000000000000e44a                GetGravityUsingCalibrated
                0x000000000000e473                GetGravityIsCalibrated
                0x000000000000e49c                GCompSample
                0x000000000000e5a4                getLagrangian4
                0x000000000000e762                setSafetyLimits
                0x000000000000e8ca                DumpWAM2Syslog
                0x000000000000eb95                StartContinuousTeach
                0x000000000000ed1e                StopContinuousTeach
                0x000000000000ed51                ServiceContinuousTeach
                0x000000000000ed72                registerWAMcallback
                0x000000000000edab                registerWAMmotorcallback
                0x000000000000ede4                BlankWAMcallback
 .text          0x000000000000edf3      0x16d ../../lib/libbtwam.a(gimbals.o)
                0x000000000000edf3                getGimbalsAngles
                0x000000000000eee0                initGimbals
 .text          0x000000000000ef60     0x4366 ../../lib/libbtsystem.a(btsystem.o)
                0x000000000000ef60                DiscoverSystem
                0x000000000000ef67                ReadSystemFromConfig
                0x000000000000f303                InitializeSystem
                0x00000000000103ee                EnumerateSystem
                0x0000000000010a61                CloseSystem
                0x0000000000010a8e                DumpData2Syslog
                0x000000000001100a                GetActuators
                0x00000000000110b0                GetBuses
                0x00000000000110fa                GetPositions
                0x0000000000011640                SetTorques
                0x0000000000011c93                GetProp
                0x0000000000011ef8                SetProp
                0x0000000000012012                SetByID
                0x000000000001204b                TurnaroundTime
                0x000000000001212d                AllIndexed
                0x000000000001217a                EnergizeActuators
                0x00000000000121fb                IdleActuators
                0x0000000000012241                SetEngrUnits
                0x000000000001228b                SetTRC
                0x00000000000123be                ThereIsTRC
                0x000000000001242f                Load_Actuator_File
                0x0000000000012f7f                Load_Bus_File
 .text          0x00000000000132c6     0x14ab ../../lib/libbtsystem.a(btlogger.o)
                0x00000000000132c6                PrepDL
                0x0000000000013354                AddDataDL
                0x0000000000013456                DataSizeDL
                0x00000000000134af                InitDL
                0x00000000000135d7                DLon
                0x00000000000135ed                DLoff
                0x0000000000013603                CloseDL
                0x000000000001365e                TriggerDL
                0x0000000000013749                InitDataFileDL
                0x000000000001384c                UpdateDL
                0x00000000000138cf                DLwrite
                0x0000000000013a08                flushDL
                0x0000000000013af1                evalDL
                0x0000000000013b17                DecodeDL
 .text          0x0000000000014771     0x2c1e ../../lib/libbtsystem.a(btcan_peakesd.o)
                0x000000000001497a                allowMessage
                0x000000000001498a                initCAN
                0x0000000000014cf0                freeCAN
                0x0000000000014d9e                canReadMsg
                0x0000000000014f92                canSendMsg
                0x00000000000150e9                canClearMsg
                0x0000000000015170                wakePuck
                0x00000000000151ac                setTorques
                0x0000000000015371                getPositions
                0x00000000000154fe                setProperty
                0x00000000000155f9                getProperty
                0x0000000000015738                getBusStatus
                0x0000000000015978                parseMessage
                0x0000000000015d42                compile
                0x0000000000015ddc                initPropertyDefs
 .text          0x000000000001738f     0x448d ../../lib/libbtsystem.a(btrobot.o)
                0x000000000001738f                new_btlink
                0x000000000001775f                new_bot
                0x0000000000017bcf                link_geom_bot
                0x0000000000017f6e                tool_geom_bot
                0x000000000001810b                tool_trans_bot
                0x00000000000181a7                link_mass_bot
                0x0000000000018327                tool_mass_bot
                0x00000000000183d6                make_transform_btlink
                0x00000000000185be                set_gravity_bot
                0x000000000001861d                get_gravity_bot
                0x0000000000018634                set_gravity_bot_calibrated
                0x000000000001866a                get_gravity_bot_calibrated
                0x000000000001867b                get_gravity_bot_is_calibrated
                0x000000000001868c                set_q_bot
                0x00000000000186ec                get_t_bot
                0x0000000000018716                eval_fk_bot
                0x0000000000018eb4                eval_fj_bot
                0x000000000001940d                Ln_to_W_bot
                0x000000000001945f                T_to_W_bot
                0x000000000001948c                Ln_to_W_trans_bot
                0x00000000000194c7                T_to_W_trans_bot
                0x00000000000194dd                eval_fd_bot
                0x0000000000019d6e                eval_bd_bot
                0x000000000001a45e                get_gravity_torques
                0x000000000001aebd                apply_force_bot
                0x000000000001b190                apply_tool_force_bot
                0x000000000001b2f9                dumptofile_bot
                0x000000000001b4c3                test_btrobot
 .text          0x000000000001b81c     0xb677 ../../lib/libbtsystem.a(btmath.o)
                0x000000000001b81c                addbtptr
                0x000000000001b88f                rembtptr
                0x000000000001b8e8                freebtptr
                0x000000000001b966                fill_vn
                0x000000000001b9ad                new_vn
                0x000000000001ba0f                init_vn
                0x000000000001ba9a                destroy_vn
                0x000000000001bab5                init_local_vn
                0x000000000001bb48                len_vn
                0x000000000001bb59                sizeof_vn
                0x000000000001bb73                new_vn_group
                0x000000000001bca8                set_vn
                0x000000000001bd26                setrange_vn
                0x000000000001bd90                extract_vn
                0x000000000001bde9                valptr_vn
                0x000000000001bdfb                inject_vn
                0x000000000001be54                setval_vn
                0x000000000001be85                getval_vn
                0x000000000001beab                const_vn
                0x000000000001bfee                einit_vn
                0x000000000001c031                subset_vn
                0x000000000001c0ae                reset_vn
                0x000000000001c0ca                neg_vn
                0x000000000001c135                scale_vn
                0x000000000001c19e                add_vn
                0x000000000001c21e                sub_vn
                0x000000000001c29e                dot_vn
                0x000000000001c317                norm_vn
                0x000000000001c3ab                angle_vn
                0x000000000001c427                unit_vn
                0x000000000001c4ee                unit_interp_vn
                0x000000000001c54a                interp_vn
                0x000000000001c5b9                bound_vn
                0x000000000001c67c                e_mul_vn
                0x000000000001c6fc                e_div_vn
                0x000000000001c7d0                e_pow_vn
                0x000000000001c859                e_sqrt_vn
                0x000000000001c8d4                e_sqr_vn
                0x000000000001c950                print_vn
                0x000000000001c9c5                sprint_vn
                0x000000000001caba                syslog_vn
                0x000000000001cb26                sprint_csv_vn
                0x000000000001cbe2                sprint_plt_vn
                0x000000000001cc9e                strcount_vn
                0x000000000001cf81                strto_vn
                0x000000000001d092                sscan_vn
                0x000000000001d170                csvto_vn
                0x000000000001d258                test_vn
                0x000000000001d655                new_vr
                0x000000000001d76a                destroy_vr
                0x000000000001d785                idx_vr
                0x000000000001d7c7                lval_vr
                0x000000000001d809                rval_vr
                0x000000000001d84b                edit_vr
                0x000000000001d88e                mapdat_vr
                0x000000000001d8c8                getvn_vr
                0x000000000001d925                append_vr
                0x000000000001d98f                next_vr
                0x000000000001d9bd                prev_vr
                0x000000000001d9e4                start_vr
                0x000000000001d9fa                end_vr
                0x000000000001da13                edit_at_vr
                0x000000000001da48                edit_point_vr
                0x000000000001da59                insert_vr
                0x000000000001db2d                delete_vr
                0x000000000001dbf1                numrows_vr
                0x000000000001dc02                numelements_vr
                0x000000000001dc13                maxrows_vr
                0x000000000001dc24                copy_sub_vr
                0x000000000001dd07                resize_vr
                0x000000000001dda4                clear_vr
                0x000000000001ddba                arclength_vr
                0x000000000001de42                read_csv_file_vr
                0x000000000001e169                write_csv_file_vr
                0x000000000001e2a2                test_vr
                0x000000000001e3de                fill_v3
                0x000000000001e429                new_v3
                0x000000000001e4bc                init_staticv3
                0x000000000001e545                set_v3
                0x000000000001e5a9                const_v3
                0x000000000001e601                C_v3
                0x000000000001e68d                setval_v3
                0x000000000001e6be                getval_v3
                0x000000000001e6e4                neg_v3
                0x000000000001e77a                scale_v3
                0x000000000001e800                add_v3
                0x000000000001e8ae                sub_v3
                0x000000000001e95c                cross_v3
                0x000000000001eabf                dot_v3
                0x000000000001eb39                norm_v3
                0x000000000001ebc6                unit_v3
                0x000000000001ed17                print_v3
                0x000000000001ed85                sprint_v3
                0x000000000001ee6b                test_v3
                0x000000000001f22a                fill_q
                0x000000000001f28a                new_q
                0x000000000001f31d                set_q
                0x000000000001f39e                const_q
                0x000000000001f410                C_q
                0x000000000001f4b5                setval_q
                0x000000000001f4e6                getval_q
                0x000000000001f50c                extract_q
                0x000000000001f565                inject_q
                0x000000000001f5be                conj_q
                0x000000000001f677                add_q
                0x000000000001f75c                sub_q
                0x000000000001f841                scale_q
                0x000000000001f8ef                dot_q
                0x000000000001f991                norm_q
                0x000000000001fa46                unit_q
                0x000000000001fb75                inv_q
                0x000000000001fcb0                pow_q
                0x000000000001fcef                mul_q
                0x000000000001ffeb                exp_q
                0x00000000000201d0                log_q
                0x000000000002033d                R_to_q
                0x00000000000204b0                q_to_R
                0x0000000000020727                GCdist_q
                0x0000000000020798                GCaxis_q
                0x0000000000020809                force_closest_q
                0x0000000000020928                angle_q
                0x00000000000209af                axis_q
                0x0000000000020a36                new_mn
                0x0000000000020b27                new_mn_ptr
                0x0000000000020be9                destroy_mn
                0x0000000000020c04                set_mn
                0x0000000000020cc3                ident_mn
                0x0000000000020d75                zero_mn
                0x0000000000020dc6                setrow_mn
                0x0000000000020e63                setcol_mn
                0x0000000000020f00                getcol_mn
                0x0000000000020f9d                getval_mn
                0x0000000000020fd4                setval_mn
                0x0000000000021016                scale_mn
                0x000000000002108f                mul_mn
                0x0000000000021271                T_mn
                0x000000000002132a                add_mn
                0x000000000002142f                matXvec_mn
                0x0000000000021525                sprint_mn
                0x000000000002167f                sprint_mh
                0x00000000000217dc                strto_mn
                0x0000000000021a0a                new_mh
                0x0000000000021ace                set_mh
                0x0000000000021c34                setrow_mh
                0x0000000000021caf                getcol_mh
                0x0000000000021d28                ident_mh
                0x0000000000021e7f                mul_mh
                0x00000000000225a3                setmul_mh
                0x0000000000022c9d                matXvec_mh
                0x0000000000022eb4                getval_mh
                0x0000000000022ee9                print_mh
                0x0000000000022f81                test_mh
                0x0000000000023120                bench_mh
                0x0000000000023188                new_m3
                0x0000000000023198                set_m3
                0x00000000000232fe                setrow_m3
                0x0000000000023363                ident_m3
                0x0000000000023466                getcol_m3
                0x00000000000234df                getval_m3
                0x0000000000023514                mul_m3
                0x0000000000023ab0                setmul_m3
                0x0000000000024022                T_m3
                0x0000000000024141                matr_mnXvect_3
                0x00000000000242d7                matXvec_m3
                0x00000000000244b2                matTXvec_m3
                0x000000000002468d                eqaxis_m3
                0x00000000000247f2                RtoXYZf_m3
                0x0000000000024a1d                RtoZYZf_m3
                0x0000000000024c51                XYZftoR_m3
                0x0000000000024e21                new_btfilter
                0x0000000000024ee2                syslog_filter
                0x00000000000250a4                eval_btfilter
                0x0000000000025216                init_btfilter_diff
                0x00000000000254f6                init_btfilter_butterworth_diff
                0x000000000002568b                init_btfilter_lowpass
                0x00000000000258ac                atan2_bt
                0x0000000000025976                interp_bt
                0x00000000000259e8                interpolate_bt
                0x0000000000025a6c                new_btfilter_vn
                0x0000000000025b50                eval_btfilter_vn
                0x0000000000025d3c                init_btfilter_vn_butterworth_diff
                0x0000000000025f4e                init_btfilter_vn_diff
                0x0000000000026327                test_btfilter
                0x000000000002644a                test_filter_vn
                0x000000000002661e                max_bt
                0x0000000000026646                min_bt
                0x000000000002666e                ludcmp
                0x0000000000026b12                lubksb
                0x0000000000026d0d                inv_mn
                0x0000000000026e03                det_mn
 .text          0x0000000000026e93      0x979 ../../lib/libbtsystem.a(btos.o)
                0x000000000002703c                syslog_backtrace
                0x000000000002708f                btmutex_init
                0x0000000000027104                btmutex_lock
                0x0000000000027145                btmutex_unlock
                0x0000000000027186                btptr_ok
                0x00000000000271c8                btptr_chk
                0x00000000000271e5                idx_bounds_ok
                0x000000000002723a                test_and_log
                0x000000000002727d                btmalloc
                0x00000000000272cd                btfree
                0x00000000000272f6                new_btthread
                0x0000000000027312                new_btrt_thread
                0x000000000002732b                free_btthread
                0x0000000000027346                btthread_create
                0x0000000000027459                btthread_done
                0x0000000000027494                btrt_thread_done
                0x00000000000274cf                btthread_stop
                0x000000000002751d                btthread_exit
                0x0000000000027533                btrt_thread_stop
                0x0000000000027559                btrt_thread_exit
                0x000000000002756f                btrt_thread_create
                0x0000000000027668                btrt_set_mode_soft
                0x0000000000027683                btrt_set_mode_hard
                0x000000000002769e                btrt_set_mode_warn
                0x00000000000276b9                btrt_get_time
                0x00000000000276d5                btrt_task_wait_period
                0x00000000000276eb                btrt_thread_join
                0x000000000002770b                btrt_mutex_create
                0x0000000000027743                btrt_mutex_init
                0x000000000002777b                btrt_mutex_lock
                0x00000000000277c6                btrt_mutex_unlock
 .text          0x000000000002780c     0x36a9 ../../lib/libbtsystem.a(btcontrol.o)
                0x000000000002780c                init_btPID
                0x00000000000278de                init_err_btPID
                0x00000000000278f4                reset_btPID
                0x000000000002794d                start_btPID
                0x00000000000279b1                stop_btPID
                0x00000000000279eb                step_btPID
                0x0000000000027bca                sety_btPID
                0x0000000000027c0c                setyref_btPID
                0x0000000000027c4e                setdt_btPID
                0x0000000000027c90                lastresult_btPID
                0x0000000000027cd1                eval_btPID
                0x0000000000027d52                eval_err_btPID
                0x0000000000027dc0                setinputs_btPID
                0x0000000000027e28                setgains_btPID
                0x0000000000027eb2                setsaturation_btPID
                0x0000000000027ef4                getgains_btPID
                0x0000000000027f61                getinputs_btPID
                0x0000000000027fcf                getsaturation_btPID
                0x0000000000028013                btposition_interface_mapf_btPID
                0x000000000002804b                btposition_interface_eval_btPID
                0x0000000000028133                btposition_interface_reset_btPID
                0x0000000000028182                btposition_interface_pause_btPID
                0x00000000000281d1                create_ct
                0x0000000000028219                readfile_ct
                0x0000000000028285                init_ct
                0x00000000000282a6                eval_ct
                0x00000000000282d5                done_ct
                0x0000000000028325                bttrajectory_interface_getstate_ct
                0x000000000002835b                bttrajectory_interface_reset_ct
                0x0000000000028388                bttrajectory_interface_eval_ct
                0x00000000000283ea                bttrajectory_interface_mapf_ct
                0x0000000000028422                start_via_trj
                0x0000000000028937                eval_via_trj
                0x0000000000029110                CalcSegment
                0x000000000002a08f                SetAcc_vt
                0x000000000002a0b0                malloc_vta
                0x000000000002a10d                read_file_vta
                0x000000000002a256                write_file_vta
                0x000000000002a287                sim_vta
                0x000000000002a482                set_acc_vta
                0x000000000002a4ff                set_vel_vta
                0x000000000002a524                new_vta
                0x000000000002a61e                destroy_vta
                0x000000000002a658                next_point_vta
                0x000000000002a67e                prev_point_vta
                0x000000000002a6a4                first_point_vta
                0x000000000002a6ca                last_point_vta
                0x000000000002a6f0                ins_point_vta
                0x000000000002a953                del_point_vta
                0x000000000002a97f                get_current_idx_vta
                0x000000000002a9ab                set_current_idx_vta
                0x000000000002a9df                get_current_point_vta
                0x000000000002aa25                get_vr_vta
                0x000000000002aa45                dist_adjust_vta
                0x000000000002abad                time_scale_vta
                0x000000000002ac76                reset_vta
                0x000000000002acfc                eval_vta
                0x000000000002ad53                bttrajectory_interface_getstate_vt
                0x000000000002ad83                bttrajectory_interface_reset_vt
                0x000000000002ae22                bttrajectory_interface_eval_vt
                0x000000000002ae7d                register_vta
 .text          0x000000000002aeb5     0x15d5 ../../lib/libbtsystem.a(btstatecontrol.o)
                0x000000000002aeb5                setprofile_traptrj
                0x000000000002aefe                start_traptrj
                0x000000000002b062                evaluate_traptrj
                0x000000000002b37b                mapdata_bttrj
                0x000000000002b3a5                mapdata_btpos
                0x000000000002b40c                map_btstatecontrol
                0x000000000002b4fd                maptrajectory_bts
                0x000000000002b5f5                mapposition_bts
                0x000000000002b6dc                init_bts
                0x000000000002b7d9                eval_trj_bts
                0x000000000002b96e                eval_bts
                0x000000000002ba95                getmode_bts
                0x000000000002baa5                get_trjstate_bts
                0x000000000002bae9                setmode_bts
                0x000000000002bbc8                start_trj_bts
                0x000000000002be2c                moveto_bts
                0x000000000002c022                moveparm_bts
                0x000000000002c081                movestatus_bts
                0x000000000002c095                stop_trj_bts
                0x000000000002c0da                pause_trj_bts
                0x000000000002c177                unpause_trj_bts
                0x000000000002c214                init_btramp
                0x000000000002c27b                set_btramp
                0x000000000002c2b7                get_btramp
                0x000000000002c2cc                getstate_btramp
                0x000000000002c2dd                eval_btramp
                0x000000000002c448                setrate_btramp
 .text          0x000000000002c48a     0x1033 ../../lib/libbtsystem.a(btparser.o)
                0x000000000002c48a                stripComments
                0x000000000002c4e7                nestLine
                0x000000000002c586                getKey
                0x000000000002c601                assignLine
                0x000000000002c987                killLine
                0x000000000002c9de                parseFile
                0x000000000002c9ff                btParseFile
                0x000000000002d11e                parseGetVal
                0x000000000002d14c                btParseGetVal
                0x000000000002d456                btParseClose
 .text          0x000000000002d4bd     0x1803 ../../lib/libbtsystem.a(btseg.o)
                0x000000000002d4bd                dump_pb
                0x000000000002d51f                dup_pb
                0x000000000002d584                sp_of_t_pb
                0x000000000002d5e4                s_of_t_pb
                0x000000000002d665                s_of_t_pbl
                0x000000000002d6ed                sp_of_t_pbl
                0x000000000002d775                boundary_pb
                0x000000000002d812                s0sfspftf_pb
                0x000000000002d8eb                blend_pb
                0x000000000002d9ae                new_pa
                0x000000000002da26                destroy_pa
                0x000000000002da41                clear_pa
                0x000000000002da57                add_bseg_pa
                0x000000000002db77                reset_pa
                0x000000000002dbca                eval_pa
                0x000000000002dc3f                new_pavn
                0x000000000002dcdf                destroy_pavn
                0x000000000002dd54                clear_pavn
                0x000000000002dd9b                reset_pavn
                0x000000000002ddfe                eval_pavn
                0x000000000002de73                getstate_pavn
                0x000000000002dec6                vr2pararray
 .text          0x000000000002ecc0      0xcb0 ../../lib/libbtsystem.a(btpath.o)
                0x000000000002ecc0                new_pwl
                0x000000000002ecdc                init_pwl
                0x000000000002ed9c                init_pwl_from_vectray
                0x000000000002ef14                free_pwl
                0x000000000002ef3f                new_param_by_arclen_pwl
                0x000000000002f0ce                idxa_pwl
                0x000000000002f0fc                idxb_pwl
                0x000000000002f12a                add_arclen_point_pwl
                0x000000000002f203                add_point_pwl
                0x000000000002f2ba                clear_pwl
                0x000000000002f322                add_vectray_pwl
                0x000000000002f411                get_segment_pwl
                0x000000000002f532                getnodes_pwl
                0x000000000002f558                getval_pwl
                0x000000000002f6cb                ds_pwl
                0x000000000002f8fc                dsinit_pwl
                0x000000000002f928                arclength_pwl
 .text          0x000000000002f970       0x49 /usr/xenomai/lib/xenomai/bootstrap.o
                0x000000000002f970                xenomai_main
                0x000000000002f970                __wrap_main
 *fill*         0x000000000002f9b9        0x7 
 .text          0x000000000002f9c0       0x72 /usr/lib/x86_64-linux-gnu/libc_nonshared.a(elf-init.oS)
                0x000000000002f9c0                __libc_csu_init
                0x000000000002fa30                __libc_csu_fini
 .text          0x000000000002fa32        0x0 /usr/lib/gcc/x86_64-linux-gnu/7/crtendS.o
 .text          0x000000000002fa32        0x0 /usr/lib/gcc/x86_64-linux-gnu/7/../../../x86_64-linux-gnu/crtn.o
 *(.gnu.warning)

.fini           0x000000000002fa34        0x9
 *(SORT_NONE(.fini))
 .fini          0x000000000002fa34        0x4 /usr/lib/gcc/x86_64-linux-gnu/7/../../../x86_64-linux-gnu/crti.o
                0x000000000002fa34                _fini
 .fini          0x000000000002fa38        0x5 /usr/lib/gcc/x86_64-linux-gnu/7/../../../x86_64-linux-gnu/crtn.o
                [!provide]                        PROVIDE (__etext = .)
                [!provide]                        PROVIDE (_etext = .)
                [!provide]                        PROVIDE (etext = .)

.rodata         0x000000000002fa40     0x3698
 *(.rodata .rodata.* .gnu.linkonce.r.*)
 .rodata.cst4   0x000000000002fa40        0x4 /usr/lib/gcc/x86_64-linux-gnu/7/../../../x86_64-linux-gnu/Scrt1.o
                0x000000000002fa40                _IO_stdin_used
 *fill*         0x000000000002fa44        0x4 
 .rodata        0x000000000002fa48      0x560 main.o
 *fill*         0x000000000002ffa8        0x8 
 .rodata        0x000000000002ffb0      0x690 ../../lib/libbtwam.a(btwam.o)
 .rodata        0x0000000000030640        0x8 ../../lib/libbtwam.a(gimbals.o)
 .rodata        0x0000000000030648      0xf00 ../../lib/libbtsystem.a(btsystem.o)
 .rodata        0x0000000000031548      0x164 ../../lib/libbtsystem.a(btlogger.o)
 *fill*         0x00000000000316ac       0x14 
 .rodata        0x00000000000316c0      0x589 ../../lib/libbtsystem.a(btcan_peakesd.o)
                0x00000000000316c0                dataType
 *fill*         0x0000000000031c49        0x7 
 .rodata        0x0000000000031c50      0x1b0 ../../lib/libbtsystem.a(btrobot.o)
 .rodata        0x0000000000031e00      0x768 ../../lib/libbtsystem.a(btmath.o)
 .rodata        0x0000000000032568      0x1e7 ../../lib/libbtsystem.a(btos.o)
 *fill*         0x000000000003274f        0x1 
 .rodata        0x0000000000032750      0x5e8 ../../lib/libbtsystem.a(btcontrol.o)
 *fill*         0x0000000000032d38        0x8 
 .rodata        0x0000000000032d40      0x188 ../../lib/libbtsystem.a(btstatecontrol.o)
 .rodata        0x0000000000032ec8       0xbc ../../lib/libbtsystem.a(btparser.o)
 *fill*         0x0000000000032f84        0xc 
 .rodata        0x0000000000032f90       0xe8 ../../lib/libbtsystem.a(btseg.o)
 *fill*         0x0000000000033078        0x8 
 .rodata        0x0000000000033080       0x40 ../../lib/libbtsystem.a(btpath.o)
 .rodata.str1.1
                0x00000000000330c0       0x13 /usr/xenomai/lib/xenomai/bootstrap.o
 *fill*         0x00000000000330d3        0x1 
 .rodata        0x00000000000330d4        0x4 /usr/xenomai/lib/xenomai/bootstrap.o
                0x00000000000330d4                xenomai_auto_bootstrap

.rodata1
 *(.rodata1)

.eh_frame_hdr   0x00000000000330d8      0xf84
 *(.eh_frame_hdr)
 .eh_frame_hdr  0x00000000000330d8      0xf84 /usr/lib/gcc/x86_64-linux-gnu/7/../../../x86_64-linux-gnu/Scrt1.o
                0x00000000000330d8                __GNU_EH_FRAME_HDR
 *(.eh_frame_entry .eh_frame_entry.*)

.eh_frame       0x0000000000034060     0x3ef8
 *(.eh_frame)
 .eh_frame      0x0000000000034060       0x30 /usr/lib/gcc/x86_64-linux-gnu/7/../../../x86_64-linux-gnu/Scrt1.o
                                         0x2c (size before relaxing)
 *fill*         0x0000000000034090        0x0 
 .eh_frame      0x0000000000034090       0x40 /usr/lib/gcc/x86_64-linux-gnu/7/../../../x86_64-linux-gnu/Scrt1.o
 .eh_frame      0x00000000000340d0       0x18 /usr/lib/gcc/x86_64-linux-gnu/7/../../../x86_64-linux-gnu/Scrt1.o
                                         0x30 (size before relaxing)
 .eh_frame      0x00000000000340e8       0x40 main.o
                                         0x58 (size before relaxing)
 .eh_frame      0x0000000000034128      0x490 ../../lib/libbtwam.a(btwam.o)
                                        0x4a8 (size before relaxing)
 .eh_frame      0x00000000000345b8       0x40 ../../lib/libbtwam.a(gimbals.o)
                                         0x58 (size before relaxing)
 .eh_frame      0x00000000000345f8      0x2c8 ../../lib/libbtsystem.a(btsystem.o)
                                        0x2e0 (size before relaxing)
 .eh_frame      0x00000000000348c0      0x1c0 ../../lib/libbtsystem.a(btlogger.o)
                                        0x1d8 (size before relaxing)
 .eh_frame      0x0000000000034a80      0x2a0 ../../lib/libbtsystem.a(btcan_peakesd.o)
                                        0x2b8 (size before relaxing)
 .eh_frame      0x0000000000034d20      0x3a8 ../../lib/libbtsystem.a(btrobot.o)
                                        0x3c0 (size before relaxing)
 .eh_frame      0x00000000000350c8     0x1800 ../../lib/libbtsystem.a(btmath.o)
                                       0x1818 (size before relaxing)
 .eh_frame      0x00000000000368c8      0x478 ../../lib/libbtsystem.a(btos.o)
                                        0x490 (size before relaxing)
 .eh_frame      0x0000000000036d40      0x7b0 ../../lib/libbtsystem.a(btcontrol.o)
                                        0x7c8 (size before relaxing)
 .eh_frame      0x00000000000374f0      0x360 ../../lib/libbtsystem.a(btstatecontrol.o)
                                        0x378 (size before relaxing)
 .eh_frame      0x0000000000037850      0x148 ../../lib/libbtsystem.a(btparser.o)
                                        0x160 (size before relaxing)
 .eh_frame      0x0000000000037998      0x2c8 ../../lib/libbtsystem.a(btseg.o)
                                        0x2e0 (size before relaxing)
 .eh_frame      0x0000000000037c60      0x230 ../../lib/libbtsystem.a(btpath.o)
                                        0x248 (size before relaxing)
 .eh_frame      0x0000000000037e90       0x68 /usr/xenomai/lib/xenomai/bootstrap.o
                                         0x80 (size before relaxing)
 .eh_frame      0x0000000000037ef8       0x5c /usr/lib/x86_64-linux-gnu/libc_nonshared.a(elf-init.oS)
                                         0x78 (size before relaxing)
 .eh_frame      0x0000000000037f54        0x4 /usr/lib/gcc/x86_64-linux-gnu/7/crtendS.o
 *(.eh_frame.*)

.gcc_except_table
 *(.gcc_except_table .gcc_except_table.*)

.gnu_extab
 *(.gnu_extab*)

.exception_ranges
 *(.exception_ranges .exception_ranges*)
                0x0000000000238a30                . = DATA_SEGMENT_ALIGN (CONSTANT (MAXPAGESIZE), CONSTANT (COMMONPAGESIZE))

.eh_frame
 *(.eh_frame)
 *(.eh_frame.*)

.gnu_extab
 *(.gnu_extab)

.gcc_except_table
 *(.gcc_except_table .gcc_except_table.*)

.exception_ranges
 *(.exception_ranges .exception_ranges*)

.tdata
 *(.tdata .tdata.* .gnu.linkonce.td.*)

.tbss
 *(.tbss .tbss.* .gnu.linkonce.tb.*)
 *(.tcommon)

.preinit_array  0x0000000000238a30        0x0
                [!provide]                        PROVIDE (__preinit_array_start = .)
 *(.preinit_array)
                [!provide]                        PROVIDE (__preinit_array_end = .)

.init_array     0x0000000000238a30       0x10
                0x0000000000238a30                PROVIDE (__init_array_start = .)
 *(SORT_BY_INIT_PRIORITY(.init_array.*) SORT_BY_INIT_PRIORITY(.ctors.*))
 .init_array.00220
                0x0000000000238a30        0x8 /usr/xenomai/lib/xenomai/bootstrap.o
 *(.init_array EXCLUDE_FILE(*crtend?.o *crtend.o *crtbegin?.o *crtbegin.o) .ctors)
 .init_array    0x0000000000238a38        0x8 /usr/lib/gcc/x86_64-linux-gnu/7/crtbeginS.o
                0x0000000000238a40                PROVIDE (__init_array_end = .)

.fini_array     0x0000000000238a40        0x8
                [!provide]                        PROVIDE (__fini_array_start = .)
 *(SORT_BY_INIT_PRIORITY(.fini_array.*) SORT_BY_INIT_PRIORITY(.dtors.*))
 *(.fini_array EXCLUDE_FILE(*crtend?.o *crtend.o *crtbegin?.o *crtbegin.o) .dtors)
 .fini_array    0x0000000000238a40        0x8 /usr/lib/gcc/x86_64-linux-gnu/7/crtbeginS.o
                [!provide]                        PROVIDE (__fini_array_end = .)

.ctors
 *crtbegin.o(.ctors)
 *crtbegin?.o(.ctors)
 *(EXCLUDE_FILE(*crtend?.o *crtend.o) .ctors)
 *(SORT_BY_NAME(.ctors.*))
 *(.ctors)

.dtors
 *crtbegin.o(.dtors)
 *crtbegin?.o(.dtors)
 *(EXCLUDE_FILE(*crtend?.o *crtend.o) .dtors)
 *(SORT_BY_NAME(.dtors.*))
 *(.dtors)

.jcr
 *(.jcr)

.data.rel.ro    0x0000000000238a48        0x0
 *(.data.rel.ro.local* .gnu.linkonce.d.rel.ro.local.*)
 *(.data.rel.ro .data.rel.ro.* .gnu.linkonce.d.rel.ro.*)
 .data.rel.ro   0x0000000000238a48        0x0 /usr/lib/gcc/x86_64-linux-gnu/7/../../../x86_64-linux-gnu/Scrt1.o

.dynamic        0x0000000000238a48      0x280
 *(.dynamic)
 .dynamic       0x0000000000238a48      0x280 /usr/lib/gcc/x86_64-linux-gnu/7/../../../x86_64-linux-gnu/Scrt1.o
                0x0000000000238a48                _DYNAMIC

.got            0x0000000000238cc8      0x338
 *(.got.plt)
 .got.plt       0x0000000000238cc8      0x310 /usr/lib/gcc/x86_64-linux-gnu/7/../../../x86_64-linux-gnu/Scrt1.o
                0x0000000000238cc8                _GLOBAL_OFFSET_TABLE_
 *(.igot.plt)
 *(.got)
 .got           0x0000000000238fd8       0x28 /usr/lib/gcc/x86_64-linux-gnu/7/../../../x86_64-linux-gnu/Scrt1.o
 *(.igot)
                0x0000000000239000                . = DATA_SEGMENT_RELRO_END (., 0x0)

.data           0x0000000000239000      0x31d
 *(.data .data.* .gnu.linkonce.d.*)
 .data          0x0000000000239000        0x4 /usr/lib/gcc/x86_64-linux-gnu/7/../../../x86_64-linux-gnu/Scrt1.o
                0x0000000000239000                data_start
                0x0000000000239000                __data_start
 .data          0x0000000000239004        0x0 /usr/lib/gcc/x86_64-linux-gnu/7/../../../x86_64-linux-gnu/crti.o
 .data          0x0000000000239004        0x0 /usr/lib/gcc/x86_64-linux-gnu/7/crtbeginS.o
 *fill*         0x0000000000239004        0x4 
 .data.rel.local
                0x0000000000239008        0x8 /usr/lib/gcc/x86_64-linux-gnu/7/crtbeginS.o
                0x0000000000239008                __dso_handle
 .data          0x0000000000239010        0x0 main.o
 .data          0x0000000000239010        0x0 ../../lib/libbtwam.a(btwam.o)
 .data          0x0000000000239010        0x0 ../../lib/libbtwam.a(gimbals.o)
 .data          0x0000000000239010        0x0 ../../lib/libbtsystem.a(btsystem.o)
 .data          0x0000000000239010        0x0 ../../lib/libbtsystem.a(btlogger.o)
 .data          0x0000000000239010        0x0 ../../lib/libbtsystem.a(btcan_peakesd.o)
 .data          0x0000000000239010        0x0 ../../lib/libbtsystem.a(btrobot.o)
 .data          0x0000000000239010        0x0 ../../lib/libbtsystem.a(btmath.o)
 .data          0x0000000000239010        0x0 ../../lib/libbtsystem.a(btos.o)
 .data          0x0000000000239010        0x0 ../../lib/libbtsystem.a(btcontrol.o)
 .data          0x0000000000239010        0x0 ../../lib/libbtsystem.a(btstatecontrol.o)
 *fill*         0x0000000000239010       0x10 
 .data          0x0000000000239020      0x2fd ../../lib/libbtsystem.a(btparser.o)
                0x0000000000239020                btparser_default
 .data          0x000000000023931d        0x0 ../../lib/libbtsystem.a(btseg.o)
 .data          0x000000000023931d        0x0 ../../lib/libbtsystem.a(btpath.o)
 .data          0x000000000023931d        0x0 /usr/xenomai/lib/xenomai/bootstrap.o
 .data          0x000000000023931d        0x0 /usr/lib/x86_64-linux-gnu/libc_nonshared.a(elf-init.oS)
 .data          0x000000000023931d        0x0 /usr/lib/gcc/x86_64-linux-gnu/7/crtendS.o
 .data          0x000000000023931d        0x0 /usr/lib/gcc/x86_64-linux-gnu/7/../../../x86_64-linux-gnu/crtn.o

.tm_clone_table
                0x0000000000239320        0x0
 .tm_clone_table
                0x0000000000239320        0x0 /usr/lib/gcc/x86_64-linux-gnu/7/crtbeginS.o
 .tm_clone_table
                0x0000000000239320        0x0 /usr/lib/gcc/x86_64-linux-gnu/7/crtendS.o

.data1
 *(.data1)
                0x0000000000239320                _edata = .
                [!provide]                        PROVIDE (edata = .)
                0x0000000000239320                . = .
                0x0000000000239320                __bss_start = .

.bss            0x0000000000239320     0x2a48
 *(.dynbss)
 .dynbss        0x0000000000239320       0x68 /usr/lib/gcc/x86_64-linux-gnu/7/../../../x86_64-linux-gnu/Scrt1.o
                0x0000000000239320                stdout@@GLIBC_2.2.5
                0x0000000000239340                alchemy_clock
 *(.bss .bss.* .gnu.linkonce.b.*)
 .bss           0x0000000000239388        0x0 /usr/lib/gcc/x86_64-linux-gnu/7/../../../x86_64-linux-gnu/Scrt1.o
 .bss           0x0000000000239388        0x0 /usr/lib/gcc/x86_64-linux-gnu/7/../../../x86_64-linux-gnu/crti.o
 .bss           0x0000000000239388        0x1 /usr/lib/gcc/x86_64-linux-gnu/7/crtbeginS.o
 .bss           0x0000000000239389        0x0 main.o
 *fill*         0x0000000000239389        0x3 
 .bss           0x000000000023938c        0x4 ../../lib/libbtwam.a(btwam.o)
                0x000000000023938c                numMaintThreads
 .bss           0x0000000000239390        0x4 ../../lib/libbtwam.a(gimbals.o)
                0x0000000000239390                gimbalsInit
 *fill*         0x0000000000239394        0x4 
 .bss           0x0000000000239398       0x20 ../../lib/libbtsystem.a(btsystem.o)
                0x0000000000239398                act_data_valid
                0x000000000023939c                extra_pucks
                0x00000000002393a0                buses
                0x00000000002393a8                num_buses
                0x00000000002393ac                bus_data_valid
 .bss           0x00000000002393b8        0x0 ../../lib/libbtsystem.a(btlogger.o)
 .bss           0x00000000002393b8        0x0 ../../lib/libbtsystem.a(btcan_peakesd.o)
 .bss           0x00000000002393b8        0x0 ../../lib/libbtsystem.a(btrobot.o)
 *fill*         0x00000000002393b8        0x8 
 .bss           0x00000000002393c0      0x118 ../../lib/libbtsystem.a(btmath.o)
                0x00000000002393c0                num_btptrs
 .bss           0x00000000002394d8        0x0 ../../lib/libbtsystem.a(btos.o)
 .bss           0x00000000002394d8        0x0 ../../lib/libbtsystem.a(btcontrol.o)
 .bss           0x00000000002394d8        0x0 ../../lib/libbtsystem.a(btstatecontrol.o)
 .bss           0x00000000002394d8        0x4 ../../lib/libbtsystem.a(btparser.o)
                0x00000000002394d8                multi
 .bss           0x00000000002394dc        0x0 ../../lib/libbtsystem.a(btseg.o)
 .bss           0x00000000002394dc        0x0 ../../lib/libbtsystem.a(btpath.o)
 *fill*         0x00000000002394dc        0x4 
 .bss           0x00000000002394e0        0xc /usr/xenomai/lib/xenomai/bootstrap.o
 .bss           0x00000000002394ec        0x0 /usr/lib/x86_64-linux-gnu/libc_nonshared.a(elf-init.oS)
 .bss           0x00000000002394ec        0x0 /usr/lib/gcc/x86_64-linux-gnu/7/crtendS.o
 .bss           0x00000000002394ec        0x0 /usr/lib/gcc/x86_64-linux-gnu/7/../../../x86_64-linux-gnu/crtn.o
 *(COMMON)
 *fill*         0x00000000002394ec       0x14 
 COMMON         0x0000000000239500      0x35c main.o
                0x0000000000239500                PEN
                0x0000000000239504                COMMON_END
                0x0000000000239508                wam
                0x0000000000239510                LOAD
                0x0000000000239514                JIDX
                0x0000000000239518                VL1
                0x000000000023951c                IOFF
                0x0000000000239520                VOLTL1
                0x0000000000239524                SAFETY_END
                0x0000000000239528                LOG1
                0x000000000023952c                BAUD
                0x0000000000239530                LOG3
                0x0000000000239534                VALUE
                0x0000000000239538                ROLE
                0x000000000023953c                LFAP
                0x0000000000239540                SAVE
                0x0000000000239544                LFDP
                0x0000000000239548                KD
                0x000000000023954c                D
                0x0000000000239550                LSG
                0x0000000000239554                B
                0x0000000000239558                HSG
                0x000000000023955c                TIE
                0x0000000000239560                VOLTH2
                0x0000000000239564                SN
                0x0000000000239568                IOFST
                0x000000000023956c                T
                0x0000000000239570                KP
                0x0000000000239574                IMOTOR
                0x0000000000239578                P
                0x000000000023957c                V
                0x0000000000239580                CT
                0x0000000000239584                JOFST
                0x0000000000239588                VLOGIC
                0x000000000023958c                TSTOP
                0x0000000000239590                TACT
                0x0000000000239594                EN2
                0x0000000000239598                P2
                0x000000000023959c                X0
                0x00000000002395a0                HALLS
                0x00000000002395a4                FIND
                0x00000000002395a8                GRPA
                0x00000000002395ac                GAIN2
                0x00000000002395b0                MPE
                0x00000000002395b4                X2
                0x00000000002395b8                ANA1
                0x00000000002395bc                X4
                0x00000000002395c0                X6
                0x00000000002395c4                IKI
                0x00000000002395c8                ACCEL
                0x00000000002395cc                GRPC
                0x00000000002395d0                TORQ
                0x00000000002395d4                VNOM
                0x00000000002395e0                wam_thd
                0x0000000000239638                ISQ
                0x000000000023963c                POLES
                0x0000000000239640                MOFST
                0x0000000000239644                LCVC
                0x0000000000239648                TEMP
                0x000000000023964c                HOLD
                0x0000000000239650                OFFSET3
                0x0000000000239654                MAXPWR
                0x0000000000239658                BRAKE
                0x000000000023965c                TETAE
                0x0000000000239660                PWR
                0x0000000000239664                AP2
                0x0000000000239668                E2
                0x000000000023966c                HALLH2
                0x0000000000239670                MT
                0x0000000000239674                LOCK
                0x0000000000239678                OFFSET1
                0x000000000023967c                MCV
                0x0000000000239680                M2
                0x0000000000239684                PIDX
                0x0000000000239688                IVEL
                0x000000000023968c                VERS
                0x0000000000239690                _DS
                0x0000000000239694                EN
                0x0000000000239698                MD
                0x000000000023969c                DIG1
                0x00000000002396a0                DP2
                0x00000000002396a4                MV
                0x00000000002396c0                can_thd
                0x0000000000239718                FET1
                0x000000000023971c                TENSO
                0x0000000000239720                CTS
                0x0000000000239724                MECH2
                0x0000000000239728                OT2
                0x000000000023972c                CMD
                0x0000000000239730                TENSION
                0x0000000000239734                LFV
                0x0000000000239738                LFT
                0x000000000023973c                TL2
                0x0000000000239740                JP
                0x0000000000239744                VL2
                0x0000000000239748                RATIO
                0x000000000023974c                OTEMP
                0x0000000000239750                SAMPLE
                0x0000000000239754                LCTC
                0x0000000000239758                LOG2
                0x000000000023975c                LOG4
                0x0000000000239760                IOFF2
                0x0000000000239764                HALLH
                0x0000000000239768                SG
                0x000000000023976c                E
                0x0000000000239770                JP2
                0x0000000000239774                STAT
                0x0000000000239778                VOLTL2
                0x000000000023977c                M
                0x0000000000239780                LCV
                0x0000000000239784                VOLTH1
                0x0000000000239788                JOFST2
                0x000000000023978c                IPNM
                0x0000000000239790                IKCOR
                0x0000000000239794                OD
                0x0000000000239798                ADDR
                0x000000000023979c                KI
                0x00000000002397a0                OT
                0x00000000002397a4                DEF
                0x00000000002397a8                X1
                0x00000000002397ac                X3
                0x00000000002397b0                X5
                0x00000000002397b4                GAIN1
                0x00000000002397b8                X7
                0x00000000002397bc                GAIN3
                0x00000000002397c0                ANA0
                0x00000000002397c4                IKP
                0x00000000002397c8                GRPB
                0x00000000002397cc                MDS
                0x00000000002397d0                LOG
                0x00000000002397d4                MECH
                0x00000000002397d8                DP
                0x00000000002397dc                CTS2
                0x00000000002397e0                ERROR
                0x00000000002397e4                ECMIN
                0x00000000002397e8                ECMAX
                0x00000000002397ec                startDone
                0x00000000002397f0                UPSECS
                0x00000000002397f4                UNITS
                0x00000000002397f8                LFLAGS
                0x00000000002397fc                ID
                0x0000000000239800                PROP_END
                0x0000000000239804                PTEMP
                0x0000000000239808                TACTID
                0x000000000023980c                MOV
                0x0000000000239810                OFFSET2
                0x0000000000239814                ZERO
                0x0000000000239818                MODE
                0x000000000023981c                _LOCK
                0x0000000000239820                THERM
                0x0000000000239824                AP
                0x0000000000239828                TENST
                0x000000000023982c                DIG0
                0x0000000000239830                SAFE
                0x0000000000239834                CT2
                0x0000000000239838                FET0
                0x000000000023983c                IFAULT
                0x0000000000239840                VALUE32
                0x0000000000239844                LFS
                0x0000000000239848                TL1
                0x000000000023984c                P_OLD
                0x0000000000239850                DUMP
                0x0000000000239854                VBUS
                0x0000000000239858                ILOGIC
 *fill*         0x000000000023985c        0x4 
 COMMON         0x0000000000239860       0x38 ../../lib/libbtwam.a(gimbals.o)
                0x0000000000239860                gimbalsGain
                0x0000000000239880                gimbalsOffset
 *fill*         0x0000000000239898        0x8 
 COMMON         0x00000000002398a0      0x154 ../../lib/libbtsystem.a(btsystem.o)
                0x00000000002398a0                firstPos
                0x00000000002398b0                timev
                0x00000000002398c0                insanePos
                0x0000000000239940                CPU_cycles_per_second
                0x0000000000239960                invalidPos
                0x00000000002399e0                act
                0x00000000002399e8                safetyBoardID
                0x00000000002399f0                num_actuators
 *fill*         0x00000000002399f4        0xc 
 COMMON         0x0000000000239a00      0x14c ../../lib/libbtsystem.a(btcan_peakesd.o)
                0x0000000000239a00                commMutex
                0x0000000000239a20                can_accept
                0x0000000000239a30                canDev
                0x0000000000239a40                jointPosition
                0x0000000000239b40                mask
 *fill*         0x0000000000239b4c       0x14 
 COMMON         0x0000000000239b60     0x1f40 ../../lib/libbtsystem.a(btmath.o)
                0x0000000000239b60                btptrs
 COMMON         0x000000000023baa0      0x1b8 ../../lib/libbtsystem.a(btos.o)
                0x000000000023baa0                backtracesize
                0x000000000023bac0                backtracearray
                0x000000000023bc50                backtracestrings
 *fill*         0x000000000023bc58        0x8 
 COMMON         0x000000000023bc60      0x108 ../../lib/libbtsystem.a(btparser.o)
                0x000000000023bc60                hdr
                0x000000000023bd60                outFile
                0x000000000023bd68                . = ALIGN ((. != 0x0)?0x8:0x1)

.lbss
 *(.dynlbss)
 *(.lbss .lbss.* .gnu.linkonce.lb.*)
 *(LARGE_COMMON)
                0x000000000023bd68                . = ALIGN (0x8)
                0x000000000023bd68                . = SEGMENT_START ("ldata-segment", .)

.lrodata
 *(.lrodata .lrodata.* .gnu.linkonce.lr.*)

.ldata          0x000000000063bd68        0x0
 *(.ldata .ldata.* .gnu.linkonce.l.*)
                0x000000000063bd68                . = ALIGN ((. != 0x0)?0x8:0x1)
                0x000000000063bd68                . = ALIGN (0x8)
                0x000000000063bd68                _end = .
                [!provide]                        PROVIDE (end = .)
                0x000000000063bd68                . = DATA_SEGMENT_END (.)

.stab
 *(.stab)

.stabstr
 *(.stabstr)

.stab.excl
 *(.stab.excl)

.stab.exclstr
 *(.stab.exclstr)

.stab.index
 *(.stab.index)

.stab.indexstr
 *(.stab.indexstr)

.comment        0x0000000000000000       0x2a
 *(.comment)
 .comment       0x0000000000000000       0x2a /usr/lib/gcc/x86_64-linux-gnu/7/crtbeginS.o
                                         0x2b (size before relaxing)
 .comment       0x000000000000002a       0x2b main.o
 .comment       0x000000000000002a       0x2b ../../lib/libbtwam.a(btwam.o)
 .comment       0x000000000000002a       0x2b ../../lib/libbtwam.a(gimbals.o)
 .comment       0x000000000000002a       0x2b ../../lib/libbtsystem.a(btsystem.o)
 .comment       0x000000000000002a       0x2b ../../lib/libbtsystem.a(btlogger.o)
 .comment       0x000000000000002a       0x2b ../../lib/libbtsystem.a(btcan_peakesd.o)
 .comment       0x000000000000002a       0x2b ../../lib/libbtsystem.a(btrobot.o)
 .comment       0x000000000000002a       0x2b ../../lib/libbtsystem.a(btmath.o)
 .comment       0x000000000000002a       0x2b ../../lib/libbtsystem.a(btos.o)
 .comment       0x000000000000002a       0x2b ../../lib/libbtsystem.a(btcontrol.o)
 .comment       0x000000000000002a       0x2b ../../lib/libbtsystem.a(btstatecontrol.o)
 .comment       0x000000000000002a       0x2b ../../lib/libbtsystem.a(btparser.o)
 .comment       0x000000000000002a       0x2b ../../lib/libbtsystem.a(btseg.o)
 .comment       0x000000000000002a       0x2b ../../lib/libbtsystem.a(btpath.o)
 .comment       0x000000000000002a       0x2b /usr/xenomai/lib/xenomai/bootstrap.o
 .comment       0x000000000000002a       0x2b /usr/lib/gcc/x86_64-linux-gnu/7/crtendS.o

.debug
 *(.debug)

.line
 *(.line)

.debug_srcinfo
 *(.debug_srcinfo)

.debug_sfnames
 *(.debug_sfnames)

.debug_aranges  0x0000000000000000      0x2a0
 *(.debug_aranges)
 .debug_aranges
                0x0000000000000000       0x30 main.o
 .debug_aranges
                0x0000000000000030       0x30 ../../lib/libbtwam.a(btwam.o)
 .debug_aranges
                0x0000000000000060       0x30 ../../lib/libbtwam.a(gimbals.o)
 .debug_aranges
                0x0000000000000090       0x30 ../../lib/libbtsystem.a(btsystem.o)
 .debug_aranges
                0x00000000000000c0       0x30 ../../lib/libbtsystem.a(btlogger.o)
 .debug_aranges
                0x00000000000000f0       0x30 ../../lib/libbtsystem.a(btcan_peakesd.o)
 .debug_aranges
                0x0000000000000120       0x30 ../../lib/libbtsystem.a(btrobot.o)
 .debug_aranges
                0x0000000000000150       0x30 ../../lib/libbtsystem.a(btmath.o)
 .debug_aranges
                0x0000000000000180       0x30 ../../lib/libbtsystem.a(btos.o)
 .debug_aranges
                0x00000000000001b0       0x30 ../../lib/libbtsystem.a(btcontrol.o)
 .debug_aranges
                0x00000000000001e0       0x30 ../../lib/libbtsystem.a(btstatecontrol.o)
 .debug_aranges
                0x0000000000000210       0x30 ../../lib/libbtsystem.a(btparser.o)
 .debug_aranges
                0x0000000000000240       0x30 ../../lib/libbtsystem.a(btseg.o)
 .debug_aranges
                0x0000000000000270       0x30 ../../lib/libbtsystem.a(btpath.o)

.debug_pubnames
 *(.debug_pubnames)

.debug_info     0x0000000000000000    0x1c114
 *(.debug_info .gnu.linkonce.wi.*)
 .debug_info    0x0000000000000000     0x2840 main.o
 .debug_info    0x0000000000002840     0x3a6f ../../lib/libbtwam.a(btwam.o)
 .debug_info    0x00000000000062af     0x27e9 ../../lib/libbtwam.a(gimbals.o)
 .debug_info    0x0000000000008a98     0x2afc ../../lib/libbtsystem.a(btsystem.o)
 .debug_info    0x000000000000b594      0xcc4 ../../lib/libbtsystem.a(btlogger.o)
 .debug_info    0x000000000000c258     0x26c1 ../../lib/libbtsystem.a(btcan_peakesd.o)
 .debug_info    0x000000000000e919     0x160d ../../lib/libbtsystem.a(btrobot.o)
 .debug_info    0x000000000000ff26     0x4dd5 ../../lib/libbtsystem.a(btmath.o)
 .debug_info    0x0000000000014cfb      0xf77 ../../lib/libbtsystem.a(btos.o)
 .debug_info    0x0000000000015c72     0x2550 ../../lib/libbtsystem.a(btcontrol.o)
 .debug_info    0x00000000000181c2     0x14a0 ../../lib/libbtsystem.a(btstatecontrol.o)
 .debug_info    0x0000000000019662      0xb83 ../../lib/libbtsystem.a(btparser.o)
 .debug_info    0x000000000001a1e5     0x1206 ../../lib/libbtsystem.a(btseg.o)
 .debug_info    0x000000000001b3eb      0xd29 ../../lib/libbtsystem.a(btpath.o)

.debug_abbrev   0x0000000000000000     0x277e
 *(.debug_abbrev)
 .debug_abbrev  0x0000000000000000      0x262 main.o
 .debug_abbrev  0x0000000000000262      0x38f ../../lib/libbtwam.a(btwam.o)
 .debug_abbrev  0x00000000000005f1      0x268 ../../lib/libbtwam.a(gimbals.o)
 .debug_abbrev  0x0000000000000859      0x352 ../../lib/libbtsystem.a(btsystem.o)
 .debug_abbrev  0x0000000000000bab      0x266 ../../lib/libbtsystem.a(btlogger.o)
 .debug_abbrev  0x0000000000000e11      0x2e9 ../../lib/libbtsystem.a(btcan_peakesd.o)
 .debug_abbrev  0x00000000000010fa      0x28f ../../lib/libbtsystem.a(btrobot.o)
 .debug_abbrev  0x0000000000001389      0x375 ../../lib/libbtsystem.a(btmath.o)
 .debug_abbrev  0x00000000000016fe      0x2d9 ../../lib/libbtsystem.a(btos.o)
 .debug_abbrev  0x00000000000019d7      0x318 ../../lib/libbtsystem.a(btcontrol.o)
 .debug_abbrev  0x0000000000001cef      0x2e0 ../../lib/libbtsystem.a(btstatecontrol.o)
 .debug_abbrev  0x0000000000001fcf      0x2ab ../../lib/libbtsystem.a(btparser.o)
 .debug_abbrev  0x000000000000227a      0x2d2 ../../lib/libbtsystem.a(btseg.o)
 .debug_abbrev  0x000000000000254c      0x232 ../../lib/libbtsystem.a(btpath.o)

.debug_line     0x0000000000000000     0x671b
 *(.debug_line .debug_line.* .debug_line_end)
 .debug_line    0x0000000000000000      0x41d main.o
 .debug_line    0x000000000000041d      0xa5c ../../lib/libbtwam.a(btwam.o)
 .debug_line    0x0000000000000e79      0x344 ../../lib/libbtwam.a(gimbals.o)
 .debug_line    0x00000000000011bd      0xb32 ../../lib/libbtsystem.a(btsystem.o)
 .debug_line    0x0000000000001cef      0x4e3 ../../lib/libbtsystem.a(btlogger.o)
 .debug_line    0x00000000000021d2      0x7fa ../../lib/libbtsystem.a(btcan_peakesd.o)
 .debug_line    0x00000000000029cc      0x9f0 ../../lib/libbtsystem.a(btrobot.o)
 .debug_line    0x00000000000033bc     0x156f ../../lib/libbtsystem.a(btmath.o)
 .debug_line    0x000000000000492b      0x3c3 ../../lib/libbtsystem.a(btos.o)
 .debug_line    0x0000000000004cee      0x8b8 ../../lib/libbtsystem.a(btcontrol.o)
 .debug_line    0x00000000000055a6      0x4c5 ../../lib/libbtsystem.a(btstatecontrol.o)
 .debug_line    0x0000000000005a6b      0x402 ../../lib/libbtsystem.a(btparser.o)
 .debug_line    0x0000000000005e6d      0x505 ../../lib/libbtsystem.a(btseg.o)
 .debug_line    0x0000000000006372      0x3a9 ../../lib/libbtsystem.a(btpath.o)

.debug_frame
 *(.debug_frame)

.debug_str      0x0000000000000000     0x4c18
 *(.debug_str)
 .debug_str     0x0000000000000000      0xe28 main.o
                                       0x1056 (size before relaxing)
 .debug_str     0x0000000000000e28      0x78a ../../lib/libbtwam.a(btwam.o)
                                       0x1712 (size before relaxing)
 .debug_str     0x00000000000015b2       0x50 ../../lib/libbtwam.a(gimbals.o)
                                       0x1042 (size before relaxing)
 .debug_str     0x0000000000001602     0x132c ../../lib/libbtsystem.a(btsystem.o)
                                       0x1dc7 (size before relaxing)
 .debug_str     0x000000000000292e      0x126 ../../lib/libbtsystem.a(btlogger.o)
                                        0x7a3 (size before relaxing)
 .debug_str     0x0000000000002a54      0x685 ../../lib/libbtsystem.a(btcan_peakesd.o)
                                        0xf94 (size before relaxing)
 .debug_str     0x00000000000030d9      0x35f ../../lib/libbtsystem.a(btrobot.o)
                                        0xabf (size before relaxing)
 .debug_str     0x0000000000003438      0x98a ../../lib/libbtsystem.a(btmath.o)
                                       0x1131 (size before relaxing)
 .debug_str     0x0000000000003dc2      0x3bb ../../lib/libbtsystem.a(btos.o)
                                        0x886 (size before relaxing)
 .debug_str     0x000000000000417d      0x56d ../../lib/libbtsystem.a(btcontrol.o)
                                        0xe69 (size before relaxing)
 .debug_str     0x00000000000046ea      0x206 ../../lib/libbtsystem.a(btstatecontrol.o)
                                        0xa84 (size before relaxing)
 .debug_str     0x00000000000048f0       0xf4 ../../lib/libbtsystem.a(btparser.o)
                                        0x73f (size before relaxing)
 .debug_str     0x00000000000049e4      0x145 ../../lib/libbtsystem.a(btseg.o)
                                        0x87f (size before relaxing)
 .debug_str     0x0000000000004b29       0xef ../../lib/libbtsystem.a(btpath.o)
                                        0x787 (size before relaxing)

.debug_loc
 *(.debug_loc)

.debug_macinfo
 *(.debug_macinfo)

.debug_weaknames
 *(.debug_weaknames)

.debug_funcnames
 *(.debug_funcnames)

.debug_typenames
 *(.debug_typenames)

.debug_varnames
 *(.debug_varnames)

.debug_pubtypes
 *(.debug_pubtypes)

.debug_ranges   0x0000000000000000       0x60
 *(.debug_ranges)
 .debug_ranges  0x0000000000000000       0x60 ../../lib/libbtsystem.a(btcan_peakesd.o)

.debug_macro
 *(.debug_macro)

.debug_addr
 *(.debug_addr)

.gnu.attributes
 *(.gnu.attributes)

/DISCARD/
 *(.note.GNU-stack)
 *(.gnu_debuglink)
 *(.gnu.lto_*)
OUTPUT(ex5 elf64-x86-64)

Cross Reference Table

Symbol                                            File
ACCEL                                             ../../lib/libbtsystem.a(btcan_peakesd.o)
                                                  ../../lib/libbtsystem.a(btsystem.o)
                                                  ../../lib/libbtwam.a(gimbals.o)
                                                  ../../lib/libbtwam.a(btwam.o)
                                                  main.o
ADDR                                              ../../lib/libbtsystem.a(btcan_peakesd.o)
                                                  ../../lib/libbtsystem.a(btsystem.o)
                                                  ../../lib/libbtwam.a(gimbals.o)
                                                  ../../lib/libbtwam.a(btwam.o)
                                                  main.o
ANA0                                              ../../lib/libbtsystem.a(btcan_peakesd.o)
                                                  ../../lib/libbtsystem.a(btsystem.o)
                                                  ../../lib/libbtwam.a(gimbals.o)
                                                  ../../lib/libbtwam.a(btwam.o)
                                                  main.o
ANA1                                              ../../lib/libbtsystem.a(btcan_peakesd.o)
                                                  ../../lib/libbtsystem.a(btsystem.o)
                                                  ../../lib/libbtwam.a(gimbals.o)
                                                  ../../lib/libbtwam.a(btwam.o)
                                                  main.o
AP                                                ../../lib/libbtsystem.a(btcan_peakesd.o)
                                                  ../../lib/libbtsystem.a(btsystem.o)
                                                  ../../lib/libbtwam.a(gimbals.o)
                                                  ../../lib/libbtwam.a(btwam.o)
                                                  main.o
AP2                                               ../../lib/libbtsystem.a(btcan_peakesd.o)
                                                  ../../lib/libbtsystem.a(btsystem.o)
                                                  ../../lib/libbtwam.a(gimbals.o)
                                                  ../../lib/libbtwam.a(btwam.o)
                                                  main.o
ActAngle2Mpos                                     ../../lib/libbtwam.a(btwam.o)
AddDataDL                                         ../../lib/libbtsystem.a(btlogger.o)
                                                  ../../lib/libbtwam.a(btwam.o)
AllIndexed                                        ../../lib/libbtsystem.a(btsystem.o)
B                                                 ../../lib/libbtsystem.a(btcan_peakesd.o)
                                                  ../../lib/libbtsystem.a(btsystem.o)
                                                  ../../lib/libbtwam.a(gimbals.o)
                                                  ../../lib/libbtwam.a(btwam.o)
                                                  main.o
BAUD                                              ../../lib/libbtsystem.a(btcan_peakesd.o)
                                                  ../../lib/libbtsystem.a(btsystem.o)
                                                  ../../lib/libbtwam.a(gimbals.o)
                                                  ../../lib/libbtwam.a(btwam.o)
                                                  main.o
BRAKE                                             ../../lib/libbtsystem.a(btcan_peakesd.o)
                                                  ../../lib/libbtsystem.a(btsystem.o)
                                                  ../../lib/libbtwam.a(gimbals.o)
                                                  ../../lib/libbtwam.a(btwam.o)
                                                  main.o
BlankWAMcallback                                  ../../lib/libbtwam.a(btwam.o)
CMD                                               ../../lib/libbtsystem.a(btcan_peakesd.o)
                                                  ../../lib/libbtsystem.a(btsystem.o)
                                                  ../../lib/libbtwam.a(gimbals.o)
                                                  ../../lib/libbtwam.a(btwam.o)
                                                  main.o
COMMON_END                                        ../../lib/libbtsystem.a(btcan_peakesd.o)
                                                  ../../lib/libbtsystem.a(btsystem.o)
                                                  ../../lib/libbtwam.a(gimbals.o)
                                                  ../../lib/libbtwam.a(btwam.o)
                                                  main.o
CPU_cycles_per_second                             ../../lib/libbtsystem.a(btsystem.o)
CT                                                ../../lib/libbtsystem.a(btcan_peakesd.o)
                                                  ../../lib/libbtsystem.a(btsystem.o)
                                                  ../../lib/libbtwam.a(gimbals.o)
                                                  ../../lib/libbtwam.a(btwam.o)
                                                  main.o
CT2                                               ../../lib/libbtsystem.a(btcan_peakesd.o)
                                                  ../../lib/libbtsystem.a(btsystem.o)
                                                  ../../lib/libbtwam.a(gimbals.o)
                                                  ../../lib/libbtwam.a(btwam.o)
                                                  main.o
CTS                                               ../../lib/libbtsystem.a(btcan_peakesd.o)
                                                  ../../lib/libbtsystem.a(btsystem.o)
                                                  ../../lib/libbtwam.a(gimbals.o)
                                                  ../../lib/libbtwam.a(btwam.o)
                                                  main.o
CTS2                                              ../../lib/libbtsystem.a(btcan_peakesd.o)
                                                  ../../lib/libbtsystem.a(btsystem.o)
                                                  ../../lib/libbtwam.a(gimbals.o)
                                                  ../../lib/libbtwam.a(btwam.o)
                                                  main.o
C_q                                               ../../lib/libbtsystem.a(btmath.o)
C_v3                                              ../../lib/libbtsystem.a(btmath.o)
                                                  ../../lib/libbtsystem.a(btrobot.o)
CalcSegment                                       ../../lib/libbtsystem.a(btcontrol.o)
CloseDL                                           ../../lib/libbtsystem.a(btlogger.o)
                                                  ../../lib/libbtwam.a(btwam.o)
CloseSystem                                       ../../lib/libbtsystem.a(btsystem.o)
                                                  ../../lib/libbtwam.a(btwam.o)
                                                  main.o
CloseWAM                                          ../../lib/libbtwam.a(btwam.o)
D                                                 ../../lib/libbtsystem.a(btcan_peakesd.o)
                                                  ../../lib/libbtsystem.a(btsystem.o)
                                                  ../../lib/libbtwam.a(gimbals.o)
                                                  ../../lib/libbtwam.a(btwam.o)
                                                  main.o
DEF                                               ../../lib/libbtsystem.a(btcan_peakesd.o)
                                                  ../../lib/libbtsystem.a(btsystem.o)
                                                  ../../lib/libbtwam.a(gimbals.o)
                                                  ../../lib/libbtwam.a(btwam.o)
                                                  main.o
DIG0                                              ../../lib/libbtsystem.a(btcan_peakesd.o)
                                                  ../../lib/libbtsystem.a(btsystem.o)
                                                  ../../lib/libbtwam.a(gimbals.o)
                                                  ../../lib/libbtwam.a(btwam.o)
                                                  main.o
DIG1                                              ../../lib/libbtsystem.a(btcan_peakesd.o)
                                                  ../../lib/libbtsystem.a(btsystem.o)
                                                  ../../lib/libbtwam.a(gimbals.o)
                                                  ../../lib/libbtwam.a(btwam.o)
                                                  main.o
DLoff                                             ../../lib/libbtsystem.a(btlogger.o)
                                                  ../../lib/libbtwam.a(btwam.o)
DLon                                              ../../lib/libbtsystem.a(btlogger.o)
                                                  ../../lib/libbtwam.a(btwam.o)
DLwrite                                           ../../lib/libbtsystem.a(btlogger.o)
DP                                                ../../lib/libbtsystem.a(btcan_peakesd.o)
                                                  ../../lib/libbtsystem.a(btsystem.o)
                                                  ../../lib/libbtwam.a(gimbals.o)
                                                  ../../lib/libbtwam.a(btwam.o)
                                                  main.o
DP2                                               ../../lib/libbtsystem.a(btcan_peakesd.o)
                                                  ../../lib/libbtsystem.a(btsystem.o)
                                                  ../../lib/libbtwam.a(gimbals.o)
                                                  ../../lib/libbtwam.a(btwam.o)
                                                  main.o
DUMP                                              ../../lib/libbtsystem.a(btcan_peakesd.o)
                                                  ../../lib/libbtsystem.a(btsystem.o)
                                                  ../../lib/libbtwam.a(gimbals.o)
                                                  ../../lib/libbtwam.a(btwam.o)
                                                  main.o
DataSizeDL                                        ../../lib/libbtsystem.a(btlogger.o)
DecodeDL                                          ../../lib/libbtsystem.a(btlogger.o)
DefineWAMpos                                      ../../lib/libbtwam.a(btwam.o)
DiscoverSystem                                    ../../lib/libbtsystem.a(btsystem.o)
DumpData2Syslog                                   ../../lib/libbtsystem.a(btsystem.o)
DumpWAM2Syslog                                    ../../lib/libbtwam.a(btwam.o)
E                                                 ../../lib/libbtsystem.a(btcan_peakesd.o)
                                                  ../../lib/libbtsystem.a(btsystem.o)
                                                  ../../lib/libbtwam.a(gimbals.o)
                                                  ../../lib/libbtwam.a(btwam.o)
                                                  main.o
E2                                                ../../lib/libbtsystem.a(btcan_peakesd.o)
                                                  ../../lib/libbtsystem.a(btsystem.o)
                                                  ../../lib/libbtwam.a(gimbals.o)
                                                  ../../lib/libbtwam.a(btwam.o)
                                                  main.o
ECMAX                                             ../../lib/libbtsystem.a(btcan_peakesd.o)
                                                  ../../lib/libbtsystem.a(btsystem.o)
                                                  ../../lib/libbtwam.a(gimbals.o)
                                                  ../../lib/libbtwam.a(btwam.o)
                                                  main.o
ECMIN                                             ../../lib/libbtsystem.a(btcan_peakesd.o)
                                                  ../../lib/libbtsystem.a(btsystem.o)
                                                  ../../lib/libbtwam.a(gimbals.o)
                                                  ../../lib/libbtwam.a(btwam.o)
                                                  main.o
EN                                                ../../lib/libbtsystem.a(btcan_peakesd.o)
                                                  ../../lib/libbtsystem.a(btsystem.o)
                                                  ../../lib/libbtwam.a(gimbals.o)
                                                  ../../lib/libbtwam.a(btwam.o)
                                                  main.o
EN2                                               ../../lib/libbtsystem.a(btcan_peakesd.o)
                                                  ../../lib/libbtsystem.a(btsystem.o)
                                                  ../../lib/libbtwam.a(gimbals.o)
                                                  ../../lib/libbtwam.a(btwam.o)
                                                  main.o
ERROR                                             ../../lib/libbtsystem.a(btcan_peakesd.o)
                                                  ../../lib/libbtsystem.a(btsystem.o)
                                                  ../../lib/libbtwam.a(gimbals.o)
                                                  ../../lib/libbtwam.a(btwam.o)
                                                  main.o
EnergizeActuators                                 ../../lib/libbtsystem.a(btsystem.o)
EnumerateSystem                                   ../../lib/libbtsystem.a(btsystem.o)
FET0                                              ../../lib/libbtsystem.a(btcan_peakesd.o)
                                                  ../../lib/libbtsystem.a(btsystem.o)
                                                  ../../lib/libbtwam.a(gimbals.o)
                                                  ../../lib/libbtwam.a(btwam.o)
                                                  main.o
FET1                                              ../../lib/libbtsystem.a(btcan_peakesd.o)
                                                  ../../lib/libbtsystem.a(btsystem.o)
                                                  ../../lib/libbtwam.a(gimbals.o)
                                                  ../../lib/libbtwam.a(btwam.o)
                                                  main.o
FIND                                              ../../lib/libbtsystem.a(btcan_peakesd.o)
                                                  ../../lib/libbtsystem.a(btsystem.o)
                                                  ../../lib/libbtwam.a(gimbals.o)
                                                  ../../lib/libbtwam.a(btwam.o)
                                                  main.o
GAIN1                                             ../../lib/libbtsystem.a(btcan_peakesd.o)
                                                  ../../lib/libbtsystem.a(btsystem.o)
                                                  ../../lib/libbtwam.a(gimbals.o)
                                                  ../../lib/libbtwam.a(btwam.o)
                                                  main.o
GAIN2                                             ../../lib/libbtsystem.a(btcan_peakesd.o)
                                                  ../../lib/libbtsystem.a(btsystem.o)
                                                  ../../lib/libbtwam.a(gimbals.o)
                                                  ../../lib/libbtwam.a(btwam.o)
                                                  main.o
GAIN3                                             ../../lib/libbtsystem.a(btcan_peakesd.o)
                                                  ../../lib/libbtsystem.a(btsystem.o)
                                                  ../../lib/libbtwam.a(gimbals.o)
                                                  ../../lib/libbtwam.a(btwam.o)
                                                  main.o
GCaxis_q                                          ../../lib/libbtsystem.a(btmath.o)
GCdist_q                                          ../../lib/libbtsystem.a(btmath.o)
GCompSample                                       ../../lib/libbtwam.a(btwam.o)
GLIBC_2.10                                        /lib/x86_64-linux-gnu/libc.so.6
GLIBC_2.11                                        /lib/x86_64-linux-gnu/libpthread.so.0
                                                  /lib/x86_64-linux-gnu/libc.so.6
GLIBC_2.12                                        /lib/x86_64-linux-gnu/libpthread.so.0
                                                  /lib/x86_64-linux-gnu/libc.so.6
GLIBC_2.13                                        /lib/x86_64-linux-gnu/libc.so.6
GLIBC_2.14                                        /lib/x86_64-linux-gnu/libc.so.6
GLIBC_2.15                                        /lib/x86_64-linux-gnu/libm.so.6
                                                  /lib/x86_64-linux-gnu/libc.so.6
GLIBC_2.16                                        /lib/x86_64-linux-gnu/libc.so.6
GLIBC_2.17                                        /lib/x86_64-linux-gnu/libc.so.6
GLIBC_2.18                                        /lib/x86_64-linux-gnu/libm.so.6
                                                  /lib/x86_64-linux-gnu/libc.so.6
                                                  /lib/x86_64-linux-gnu/libpthread.so.0
GLIBC_2.2.5                                       /lib/x86_64-linux-gnu/libm.so.6
                                                  /lib/x86_64-linux-gnu/ld-linux-x86-64.so.2
                                                  /lib/x86_64-linux-gnu/libc.so.6
                                                  /usr/lib/gcc/x86_64-linux-gnu/7/../../../x86_64-linux-gnu/librt.so
                                                  /lib/x86_64-linux-gnu/libpthread.so.0
GLIBC_2.2.6                                       /lib/x86_64-linux-gnu/libpthread.so.0
                                                  /lib/x86_64-linux-gnu/libc.so.6
GLIBC_2.22                                        /lib/x86_64-linux-gnu/libc.so.6
GLIBC_2.23                                        /lib/x86_64-linux-gnu/libm.so.6
                                                  /lib/x86_64-linux-gnu/libc.so.6
GLIBC_2.24                                        /lib/x86_64-linux-gnu/libm.so.6
                                                  /lib/x86_64-linux-gnu/libc.so.6
GLIBC_2.25                                        /lib/x86_64-linux-gnu/libm.so.6
                                                  /lib/x86_64-linux-gnu/libc.so.6
GLIBC_2.26                                        /lib/x86_64-linux-gnu/libm.so.6
                                                  /lib/x86_64-linux-gnu/libc.so.6
GLIBC_2.27                                        /lib/x86_64-linux-gnu/libm.so.6
                                                  /lib/x86_64-linux-gnu/libc.so.6
GLIBC_2.3                                         /lib/x86_64-linux-gnu/libc.so.6
                                                  /lib/x86_64-linux-gnu/ld-linux-x86-64.so.2
GLIBC_2.3.2                                       /lib/x86_64-linux-gnu/libpthread.so.0
                                                  /lib/x86_64-linux-gnu/libc.so.6
GLIBC_2.3.3                                       /lib/x86_64-linux-gnu/libpthread.so.0
                                                  /lib/x86_64-linux-gnu/libc.so.6
                                                  /usr/lib/gcc/x86_64-linux-gnu/7/../../../x86_64-linux-gnu/librt.so
GLIBC_2.3.4                                       /lib/x86_64-linux-gnu/libpthread.so.0
                                                  /lib/x86_64-linux-gnu/libc.so.6
                                                  /usr/lib/gcc/x86_64-linux-gnu/7/../../../x86_64-linux-gnu/librt.so
GLIBC_2.4                                         /lib/x86_64-linux-gnu/libm.so.6
                                                  /lib/x86_64-linux-gnu/ld-linux-x86-64.so.2
                                                  /lib/x86_64-linux-gnu/libc.so.6
                                                  /usr/lib/gcc/x86_64-linux-gnu/7/../../../x86_64-linux-gnu/librt.so
                                                  /lib/x86_64-linux-gnu/libpthread.so.0
GLIBC_2.5                                         /lib/x86_64-linux-gnu/libc.so.6
GLIBC_2.6                                         /lib/x86_64-linux-gnu/libc.so.6
GLIBC_2.7                                         /usr/lib/gcc/x86_64-linux-gnu/7/../../../x86_64-linux-gnu/librt.so
                                                  /lib/x86_64-linux-gnu/libc.so.6
GLIBC_2.8                                         /lib/x86_64-linux-gnu/libc.so.6
GLIBC_2.9                                         /lib/x86_64-linux-gnu/libc.so.6
GLIBC_PRIVATE                                     /lib/x86_64-linux-gnu/libpthread.so.0
                                                  /lib/x86_64-linux-gnu/ld-linux-x86-64.so.2
                                                  /lib/x86_64-linux-gnu/libc.so.6
GRPA                                              ../../lib/libbtsystem.a(btcan_peakesd.o)
                                                  ../../lib/libbtsystem.a(btsystem.o)
                                                  ../../lib/libbtwam.a(gimbals.o)
                                                  ../../lib/libbtwam.a(btwam.o)
                                                  main.o
GRPB                                              ../../lib/libbtsystem.a(btcan_peakesd.o)
                                                  ../../lib/libbtsystem.a(btsystem.o)
                                                  ../../lib/libbtwam.a(gimbals.o)
                                                  ../../lib/libbtwam.a(btwam.o)
                                                  main.o
GRPC                                              ../../lib/libbtsystem.a(btcan_peakesd.o)
                                                  ../../lib/libbtsystem.a(btsystem.o)
                                                  ../../lib/libbtwam.a(gimbals.o)
                                                  ../../lib/libbtwam.a(btwam.o)
                                                  main.o
GetActuators                                      ../../lib/libbtsystem.a(btsystem.o)
                                                  ../../lib/libbtwam.a(btwam.o)
GetBuses                                          ../../lib/libbtsystem.a(btsystem.o)
GetGravityComp                                    ../../lib/libbtwam.a(btwam.o)
GetGravityIsCalibrated                            ../../lib/libbtwam.a(btwam.o)
GetGravityUsingCalibrated                         ../../lib/libbtwam.a(btwam.o)
GetPositions                                      ../../lib/libbtsystem.a(btsystem.o)
                                                  ../../lib/libbtwam.a(btwam.o)
GetProp                                           ../../lib/libbtsystem.a(btsystem.o)
                                                  ../../lib/libbtwam.a(btwam.o)
HALLH                                             ../../lib/libbtsystem.a(btcan_peakesd.o)
                                                  ../../lib/libbtsystem.a(btsystem.o)
                                                  ../../lib/libbtwam.a(gimbals.o)
                                                  ../../lib/libbtwam.a(btwam.o)
                                                  main.o
HALLH2                                            ../../lib/libbtsystem.a(btcan_peakesd.o)
                                                  ../../lib/libbtsystem.a(btsystem.o)
                                                  ../../lib/libbtwam.a(gimbals.o)
                                                  ../../lib/libbtwam.a(btwam.o)
                                                  main.o
HALLS                                             ../../lib/libbtsystem.a(btcan_peakesd.o)
                                                  ../../lib/libbtsystem.a(btsystem.o)
                                                  ../../lib/libbtwam.a(gimbals.o)
                                                  ../../lib/libbtwam.a(btwam.o)
                                                  main.o
HOLD                                              ../../lib/libbtsystem.a(btcan_peakesd.o)
                                                  ../../lib/libbtsystem.a(btsystem.o)
                                                  ../../lib/libbtwam.a(gimbals.o)
                                                  ../../lib/libbtwam.a(btwam.o)
                                                  main.o
HSG                                               ../../lib/libbtsystem.a(btcan_peakesd.o)
                                                  ../../lib/libbtsystem.a(btsystem.o)
                                                  ../../lib/libbtwam.a(gimbals.o)
                                                  ../../lib/libbtwam.a(btwam.o)
                                                  main.o
ID                                                ../../lib/libbtsystem.a(btcan_peakesd.o)
                                                  ../../lib/libbtsystem.a(btsystem.o)
                                                  ../../lib/libbtwam.a(gimbals.o)
                                                  ../../lib/libbtwam.a(btwam.o)
                                                  main.o
IFAULT                                            ../../lib/libbtsystem.a(btcan_peakesd.o)
                                                  ../../lib/libbtsystem.a(btsystem.o)
                                                  ../../lib/libbtwam.a(gimbals.o)
                                                  ../../lib/libbtwam.a(btwam.o)
                                                  main.o
IKCOR                                             ../../lib/libbtsystem.a(btcan_peakesd.o)
                                                  ../../lib/libbtsystem.a(btsystem.o)
                                                  ../../lib/libbtwam.a(gimbals.o)
                                                  ../../lib/libbtwam.a(btwam.o)
                                                  main.o
IKI                                               ../../lib/libbtsystem.a(btcan_peakesd.o)
                                                  ../../lib/libbtsystem.a(btsystem.o)
                                                  ../../lib/libbtwam.a(gimbals.o)
                                                  ../../lib/libbtwam.a(btwam.o)
                                                  main.o
IKP                                               ../../lib/libbtsystem.a(btcan_peakesd.o)
                                                  ../../lib/libbtsystem.a(btsystem.o)
                                                  ../../lib/libbtwam.a(gimbals.o)
                                                  ../../lib/libbtwam.a(btwam.o)
                                                  main.o
ILOGIC                                            ../../lib/libbtsystem.a(btcan_peakesd.o)
                                                  ../../lib/libbtsystem.a(btsystem.o)
                                                  ../../lib/libbtwam.a(gimbals.o)
                                                  ../../lib/libbtwam.a(btwam.o)
                                                  main.o
IMOTOR                                            ../../lib/libbtsystem.a(btcan_peakesd.o)
                                                  ../../lib/libbtsystem.a(btsystem.o)
                                                  ../../lib/libbtwam.a(gimbals.o)
                                                  ../../lib/libbtwam.a(btwam.o)
                                                  main.o
IOFF                                              ../../lib/libbtsystem.a(btcan_peakesd.o)
                                                  ../../lib/libbtsystem.a(btsystem.o)
                                                  ../../lib/libbtwam.a(gimbals.o)
                                                  ../../lib/libbtwam.a(btwam.o)
                                                  main.o
IOFF2                                             ../../lib/libbtsystem.a(btcan_peakesd.o)
                                                  ../../lib/libbtsystem.a(btsystem.o)
                                                  ../../lib/libbtwam.a(gimbals.o)
                                                  ../../lib/libbtwam.a(btwam.o)
                                                  main.o
IOFST                                             ../../lib/libbtsystem.a(btcan_peakesd.o)
                                                  ../../lib/libbtsystem.a(btsystem.o)
                                                  ../../lib/libbtwam.a(gimbals.o)
                                                  ../../lib/libbtwam.a(btwam.o)
                                                  main.o
IPNM                                              ../../lib/libbtsystem.a(btcan_peakesd.o)
                                                  ../../lib/libbtsystem.a(btsystem.o)
                                                  ../../lib/libbtwam.a(gimbals.o)
                                                  ../../lib/libbtwam.a(btwam.o)
                                                  main.o
ISQ                                               ../../lib/libbtsystem.a(btcan_peakesd.o)
                                                  ../../lib/libbtsystem.a(btsystem.o)
                                                  ../../lib/libbtwam.a(gimbals.o)
                                                  ../../lib/libbtwam.a(btwam.o)
                                                  main.o
IVEL                                              ../../lib/libbtsystem.a(btcan_peakesd.o)
                                                  ../../lib/libbtsystem.a(btsystem.o)
                                                  ../../lib/libbtwam.a(gimbals.o)
                                                  ../../lib/libbtwam.a(btwam.o)
                                                  main.o
IdleActuators                                     ../../lib/libbtsystem.a(btsystem.o)
InitDL                                            ../../lib/libbtsystem.a(btlogger.o)
                                                  ../../lib/libbtwam.a(btwam.o)
InitDataFileDL                                    ../../lib/libbtsystem.a(btlogger.o)
InitVectors                                       ../../lib/libbtwam.a(btwam.o)
InitializeSystem                                  ../../lib/libbtsystem.a(btsystem.o)
                                                  main.o
JIDX                                              ../../lib/libbtsystem.a(btcan_peakesd.o)
                                                  ../../lib/libbtsystem.a(btsystem.o)
                                                  ../../lib/libbtwam.a(gimbals.o)
                                                  ../../lib/libbtwam.a(btwam.o)
                                                  main.o
JOFST                                             ../../lib/libbtsystem.a(btcan_peakesd.o)
                                                  ../../lib/libbtsystem.a(btsystem.o)
                                                  ../../lib/libbtwam.a(gimbals.o)
                                                  ../../lib/libbtwam.a(btwam.o)
                                                  main.o
JOFST2                                            ../../lib/libbtsystem.a(btcan_peakesd.o)
                                                  ../../lib/libbtsystem.a(btsystem.o)
                                                  ../../lib/libbtwam.a(gimbals.o)
                                                  ../../lib/libbtwam.a(btwam.o)
                                                  main.o
JP                                                ../../lib/libbtsystem.a(btcan_peakesd.o)
                                                  ../../lib/libbtsystem.a(btsystem.o)
                                                  ../../lib/libbtwam.a(gimbals.o)
                                                  ../../lib/libbtwam.a(btwam.o)
                                                  main.o
JP2                                               ../../lib/libbtsystem.a(btcan_peakesd.o)
                                                  ../../lib/libbtsystem.a(btsystem.o)
                                                  ../../lib/libbtwam.a(gimbals.o)
                                                  ../../lib/libbtwam.a(btwam.o)
                                                  main.o
Jpos2Mpos                                         ../../lib/libbtwam.a(btwam.o)
Jtrq2Mtrq                                         ../../lib/libbtwam.a(btwam.o)
KD                                                ../../lib/libbtsystem.a(btcan_peakesd.o)
                                                  ../../lib/libbtsystem.a(btsystem.o)
                                                  ../../lib/libbtwam.a(gimbals.o)
                                                  ../../lib/libbtwam.a(btwam.o)
                                                  main.o
KI                                                ../../lib/libbtsystem.a(btcan_peakesd.o)
                                                  ../../lib/libbtsystem.a(btsystem.o)
                                                  ../../lib/libbtwam.a(gimbals.o)
                                                  ../../lib/libbtwam.a(btwam.o)
                                                  main.o
KP                                                ../../lib/libbtsystem.a(btcan_peakesd.o)
                                                  ../../lib/libbtsystem.a(btsystem.o)
                                                  ../../lib/libbtwam.a(gimbals.o)
                                                  ../../lib/libbtwam.a(btwam.o)
                                                  main.o
LCTC                                              ../../lib/libbtsystem.a(btcan_peakesd.o)
                                                  ../../lib/libbtsystem.a(btsystem.o)
                                                  ../../lib/libbtwam.a(gimbals.o)
                                                  ../../lib/libbtwam.a(btwam.o)
                                                  main.o
LCV                                               ../../lib/libbtsystem.a(btcan_peakesd.o)
                                                  ../../lib/libbtsystem.a(btsystem.o)
                                                  ../../lib/libbtwam.a(gimbals.o)
                                                  ../../lib/libbtwam.a(btwam.o)
                                                  main.o
LCVC                                              ../../lib/libbtsystem.a(btcan_peakesd.o)
                                                  ../../lib/libbtsystem.a(btsystem.o)
                                                  ../../lib/libbtwam.a(gimbals.o)
                                                  ../../lib/libbtwam.a(btwam.o)
                                                  main.o
LFAP                                              ../../lib/libbtsystem.a(btcan_peakesd.o)
                                                  ../../lib/libbtsystem.a(btsystem.o)
                                                  ../../lib/libbtwam.a(gimbals.o)
                                                  ../../lib/libbtwam.a(btwam.o)
                                                  main.o
LFDP                                              ../../lib/libbtsystem.a(btcan_peakesd.o)
                                                  ../../lib/libbtsystem.a(btsystem.o)
                                                  ../../lib/libbtwam.a(gimbals.o)
                                                  ../../lib/libbtwam.a(btwam.o)
                                                  main.o
LFLAGS                                            ../../lib/libbtsystem.a(btcan_peakesd.o)
                                                  ../../lib/libbtsystem.a(btsystem.o)
                                                  ../../lib/libbtwam.a(gimbals.o)
                                                  ../../lib/libbtwam.a(btwam.o)
                                                  main.o
LFS                                               ../../lib/libbtsystem.a(btcan_peakesd.o)
                                                  ../../lib/libbtsystem.a(btsystem.o)
                                                  ../../lib/libbtwam.a(gimbals.o)
                                                  ../../lib/libbtwam.a(btwam.o)
                                                  main.o
LFT                                               ../../lib/libbtsystem.a(btcan_peakesd.o)
                                                  ../../lib/libbtsystem.a(btsystem.o)
                                                  ../../lib/libbtwam.a(gimbals.o)
                                                  ../../lib/libbtwam.a(btwam.o)
                                                  main.o
LFV                                               ../../lib/libbtsystem.a(btcan_peakesd.o)
                                                  ../../lib/libbtsystem.a(btsystem.o)
                                                  ../../lib/libbtwam.a(gimbals.o)
                                                  ../../lib/libbtwam.a(btwam.o)
                                                  main.o
LOAD                                              ../../lib/libbtsystem.a(btcan_peakesd.o)
                                                  ../../lib/libbtsystem.a(btsystem.o)
                                                  ../../lib/libbtwam.a(gimbals.o)
                                                  ../../lib/libbtwam.a(btwam.o)
                                                  main.o
LOCK                                              ../../lib/libbtsystem.a(btcan_peakesd.o)
                                                  ../../lib/libbtsystem.a(btsystem.o)
                                                  ../../lib/libbtwam.a(gimbals.o)
                                                  ../../lib/libbtwam.a(btwam.o)
                                                  main.o
LOG                                               ../../lib/libbtsystem.a(btcan_peakesd.o)
                                                  ../../lib/libbtsystem.a(btsystem.o)
                                                  ../../lib/libbtwam.a(gimbals.o)
                                                  ../../lib/libbtwam.a(btwam.o)
                                                  main.o
LOG1                                              ../../lib/libbtsystem.a(btcan_peakesd.o)
                                                  ../../lib/libbtsystem.a(btsystem.o)
                                                  ../../lib/libbtwam.a(gimbals.o)
                                                  ../../lib/libbtwam.a(btwam.o)
                                                  main.o
LOG2                                              ../../lib/libbtsystem.a(btcan_peakesd.o)
                                                  ../../lib/libbtsystem.a(btsystem.o)
                                                  ../../lib/libbtwam.a(gimbals.o)
                                                  ../../lib/libbtwam.a(btwam.o)
                                                  main.o
LOG3                                              ../../lib/libbtsystem.a(btcan_peakesd.o)
                                                  ../../lib/libbtsystem.a(btsystem.o)
                                                  ../../lib/libbtwam.a(gimbals.o)
                                                  ../../lib/libbtwam.a(btwam.o)
                                                  main.o
LOG4                                              ../../lib/libbtsystem.a(btcan_peakesd.o)
                                                  ../../lib/libbtsystem.a(btsystem.o)
                                                  ../../lib/libbtwam.a(gimbals.o)
                                                  ../../lib/libbtwam.a(btwam.o)
                                                  main.o
LSG                                               ../../lib/libbtsystem.a(btcan_peakesd.o)
                                                  ../../lib/libbtsystem.a(btsystem.o)
                                                  ../../lib/libbtwam.a(gimbals.o)
                                                  ../../lib/libbtwam.a(btwam.o)
                                                  main.o
Ln_to_W_bot                                       ../../lib/libbtsystem.a(btrobot.o)
Ln_to_W_trans_bot                                 ../../lib/libbtsystem.a(btrobot.o)
Load_Actuator_File                                ../../lib/libbtsystem.a(btsystem.o)
Load_Bus_File                                     ../../lib/libbtsystem.a(btsystem.o)
M                                                 ../../lib/libbtsystem.a(btcan_peakesd.o)
                                                  ../../lib/libbtsystem.a(btsystem.o)
                                                  ../../lib/libbtwam.a(gimbals.o)
                                                  ../../lib/libbtwam.a(btwam.o)
                                                  main.o
M2                                                ../../lib/libbtsystem.a(btcan_peakesd.o)
                                                  ../../lib/libbtsystem.a(btsystem.o)
                                                  ../../lib/libbtwam.a(gimbals.o)
                                                  ../../lib/libbtwam.a(btwam.o)
                                                  main.o
MAXPWR                                            ../../lib/libbtsystem.a(btcan_peakesd.o)
                                                  ../../lib/libbtsystem.a(btsystem.o)
                                                  ../../lib/libbtwam.a(gimbals.o)
                                                  ../../lib/libbtwam.a(btwam.o)
                                                  main.o
MCV                                               ../../lib/libbtsystem.a(btcan_peakesd.o)
                                                  ../../lib/libbtsystem.a(btsystem.o)
                                                  ../../lib/libbtwam.a(gimbals.o)
                                                  ../../lib/libbtwam.a(btwam.o)
                                                  main.o
MD                                                ../../lib/libbtsystem.a(btcan_peakesd.o)
                                                  ../../lib/libbtsystem.a(btsystem.o)
                                                  ../../lib/libbtwam.a(gimbals.o)
                                                  ../../lib/libbtwam.a(btwam.o)
                                                  main.o
MDS                                               ../../lib/libbtsystem.a(btcan_peakesd.o)
                                                  ../../lib/libbtsystem.a(btsystem.o)
                                                  ../../lib/libbtwam.a(gimbals.o)
                                                  ../../lib/libbtwam.a(btwam.o)
                                                  main.o
MECH                                              ../../lib/libbtsystem.a(btcan_peakesd.o)
                                                  ../../lib/libbtsystem.a(btsystem.o)
                                                  ../../lib/libbtwam.a(gimbals.o)
                                                  ../../lib/libbtwam.a(btwam.o)
                                                  main.o
MECH2                                             ../../lib/libbtsystem.a(btcan_peakesd.o)
                                                  ../../lib/libbtsystem.a(btsystem.o)
                                                  ../../lib/libbtwam.a(gimbals.o)
                                                  ../../lib/libbtwam.a(btwam.o)
                                                  main.o
MODE                                              ../../lib/libbtsystem.a(btcan_peakesd.o)
                                                  ../../lib/libbtsystem.a(btsystem.o)
                                                  ../../lib/libbtwam.a(gimbals.o)
                                                  ../../lib/libbtwam.a(btwam.o)
                                                  main.o
MOFST                                             ../../lib/libbtsystem.a(btcan_peakesd.o)
                                                  ../../lib/libbtsystem.a(btsystem.o)
                                                  ../../lib/libbtwam.a(gimbals.o)
                                                  ../../lib/libbtwam.a(btwam.o)
                                                  main.o
MOV                                               ../../lib/libbtsystem.a(btcan_peakesd.o)
                                                  ../../lib/libbtsystem.a(btsystem.o)
                                                  ../../lib/libbtwam.a(gimbals.o)
                                                  ../../lib/libbtwam.a(btwam.o)
                                                  main.o
MPE                                               ../../lib/libbtsystem.a(btcan_peakesd.o)
                                                  ../../lib/libbtsystem.a(btsystem.o)
                                                  ../../lib/libbtwam.a(gimbals.o)
                                                  ../../lib/libbtwam.a(btwam.o)
                                                  main.o
MT                                                ../../lib/libbtsystem.a(btcan_peakesd.o)
                                                  ../../lib/libbtsystem.a(btsystem.o)
                                                  ../../lib/libbtwam.a(gimbals.o)
                                                  ../../lib/libbtwam.a(btwam.o)
                                                  main.o
MV                                                ../../lib/libbtsystem.a(btcan_peakesd.o)
                                                  ../../lib/libbtsystem.a(btsystem.o)
                                                  ../../lib/libbtwam.a(gimbals.o)
                                                  ../../lib/libbtwam.a(btwam.o)
                                                  main.o
MotorID_From_ActIdx                               ../../lib/libbtwam.a(btwam.o)
MoveIsDone                                        ../../lib/libbtwam.a(btwam.o)
                                                  main.o
MoveSetup                                         ../../lib/libbtwam.a(btwam.o)
                                                  main.o
MoveStop                                          ../../lib/libbtwam.a(btwam.o)
MoveWAM                                           ../../lib/libbtwam.a(btwam.o)
                                                  main.o
Mpos2Jpos                                         ../../lib/libbtwam.a(btwam.o)
Mtrq2ActTrq                                       ../../lib/libbtwam.a(btwam.o)
OD                                                ../../lib/libbtsystem.a(btcan_peakesd.o)
                                                  ../../lib/libbtsystem.a(btsystem.o)
                                                  ../../lib/libbtwam.a(gimbals.o)
                                                  ../../lib/libbtwam.a(btwam.o)
                                                  main.o
OFFSET1                                           ../../lib/libbtsystem.a(btcan_peakesd.o)
                                                  ../../lib/libbtsystem.a(btsystem.o)
                                                  ../../lib/libbtwam.a(gimbals.o)
                                                  ../../lib/libbtwam.a(btwam.o)
                                                  main.o
OFFSET2                                           ../../lib/libbtsystem.a(btcan_peakesd.o)
                                                  ../../lib/libbtsystem.a(btsystem.o)
                                                  ../../lib/libbtwam.a(gimbals.o)
                                                  ../../lib/libbtwam.a(btwam.o)
                                                  main.o
OFFSET3                                           ../../lib/libbtsystem.a(btcan_peakesd.o)
                                                  ../../lib/libbtsystem.a(btsystem.o)
                                                  ../../lib/libbtwam.a(gimbals.o)
                                                  ../../lib/libbtwam.a(btwam.o)
                                                  main.o
OT                                                ../../lib/libbtsystem.a(btcan_peakesd.o)
                                                  ../../lib/libbtsystem.a(btsystem.o)
                                                  ../../lib/libbtwam.a(gimbals.o)
                                                  ../../lib/libbtwam.a(btwam.o)
                                                  main.o
OT2                                               ../../lib/libbtsystem.a(btcan_peakesd.o)
                                                  ../../lib/libbtsystem.a(btsystem.o)
                                                  ../../lib/libbtwam.a(gimbals.o)
                                                  ../../lib/libbtwam.a(btwam.o)
                                                  main.o
OTEMP                                             ../../lib/libbtsystem.a(btcan_peakesd.o)
                                                  ../../lib/libbtsystem.a(btsystem.o)
                                                  ../../lib/libbtwam.a(gimbals.o)
                                                  ../../lib/libbtwam.a(btwam.o)
                                                  main.o
OpenWAM                                           ../../lib/libbtwam.a(btwam.o)
                                                  main.o
P                                                 ../../lib/libbtsystem.a(btcan_peakesd.o)
                                                  ../../lib/libbtsystem.a(btsystem.o)
                                                  ../../lib/libbtwam.a(gimbals.o)
                                                  ../../lib/libbtwam.a(btwam.o)
                                                  main.o
P2                                                ../../lib/libbtsystem.a(btcan_peakesd.o)
                                                  ../../lib/libbtsystem.a(btsystem.o)
                                                  ../../lib/libbtwam.a(gimbals.o)
                                                  ../../lib/libbtwam.a(btwam.o)
                                                  main.o
PEN                                               ../../lib/libbtsystem.a(btcan_peakesd.o)
                                                  ../../lib/libbtsystem.a(btsystem.o)
                                                  ../../lib/libbtwam.a(gimbals.o)
                                                  ../../lib/libbtwam.a(btwam.o)
                                                  main.o
PIDX                                              ../../lib/libbtsystem.a(btcan_peakesd.o)
                                                  ../../lib/libbtsystem.a(btsystem.o)
                                                  ../../lib/libbtwam.a(gimbals.o)
                                                  ../../lib/libbtwam.a(btwam.o)
                                                  main.o
POLES                                             ../../lib/libbtsystem.a(btcan_peakesd.o)
                                                  ../../lib/libbtsystem.a(btsystem.o)
                                                  ../../lib/libbtwam.a(gimbals.o)
                                                  ../../lib/libbtwam.a(btwam.o)
                                                  main.o
PROP_END                                          ../../lib/libbtsystem.a(btcan_peakesd.o)
                                                  ../../lib/libbtsystem.a(btsystem.o)
                                                  ../../lib/libbtwam.a(gimbals.o)
                                                  ../../lib/libbtwam.a(btwam.o)
                                                  main.o
PTEMP                                             ../../lib/libbtsystem.a(btcan_peakesd.o)
                                                  ../../lib/libbtsystem.a(btsystem.o)
                                                  ../../lib/libbtwam.a(gimbals.o)
                                                  ../../lib/libbtwam.a(btwam.o)
                                                  main.o
PWR                                               ../../lib/libbtsystem.a(btcan_peakesd.o)
                                                  ../../lib/libbtsystem.a(btsystem.o)
                                                  ../../lib/libbtwam.a(gimbals.o)
                                                  ../../lib/libbtwam.a(btwam.o)
                                                  main.o
P_OLD                                             ../../lib/libbtsystem.a(btcan_peakesd.o)
                                                  ../../lib/libbtsystem.a(btsystem.o)
                                                  ../../lib/libbtwam.a(gimbals.o)
                                                  ../../lib/libbtwam.a(btwam.o)
                                                  main.o
ParkWAM                                           ../../lib/libbtwam.a(btwam.o)
PrepDL                                            ../../lib/libbtsystem.a(btlogger.o)
                                                  ../../lib/libbtwam.a(btwam.o)
RATIO                                             ../../lib/libbtsystem.a(btcan_peakesd.o)
                                                  ../../lib/libbtsystem.a(btsystem.o)
                                                  ../../lib/libbtwam.a(gimbals.o)
                                                  ../../lib/libbtwam.a(btwam.o)
                                                  main.o
ROLE                                              ../../lib/libbtsystem.a(btcan_peakesd.o)
                                                  ../../lib/libbtsystem.a(btsystem.o)
                                                  ../../lib/libbtwam.a(gimbals.o)
                                                  ../../lib/libbtwam.a(btwam.o)
                                                  main.o
R_to_q                                            ../../lib/libbtsystem.a(btmath.o)
ReadSystemFromConfig                              ../../lib/libbtsystem.a(btsystem.o)
                                                  main.o
RtoXYZf_m3                                        ../../lib/libbtsystem.a(btmath.o)
RtoZYZf_m3                                        ../../lib/libbtsystem.a(btmath.o)
SAFE                                              ../../lib/libbtsystem.a(btcan_peakesd.o)
                                                  ../../lib/libbtsystem.a(btsystem.o)
                                                  ../../lib/libbtwam.a(gimbals.o)
                                                  ../../lib/libbtwam.a(btwam.o)
                                                  main.o
SAFETY_END                                        ../../lib/libbtsystem.a(btcan_peakesd.o)
                                                  ../../lib/libbtsystem.a(btsystem.o)
                                                  ../../lib/libbtwam.a(gimbals.o)
                                                  ../../lib/libbtwam.a(btwam.o)
                                                  main.o
SAMPLE                                            ../../lib/libbtsystem.a(btcan_peakesd.o)
                                                  ../../lib/libbtsystem.a(btsystem.o)
                                                  ../../lib/libbtwam.a(gimbals.o)
                                                  ../../lib/libbtwam.a(btwam.o)
                                                  main.o
SAVE                                              ../../lib/libbtsystem.a(btcan_peakesd.o)
                                                  ../../lib/libbtsystem.a(btsystem.o)
                                                  ../../lib/libbtwam.a(gimbals.o)
                                                  ../../lib/libbtwam.a(btwam.o)
                                                  main.o
SG                                                ../../lib/libbtsystem.a(btcan_peakesd.o)
                                                  ../../lib/libbtsystem.a(btsystem.o)
                                                  ../../lib/libbtwam.a(gimbals.o)
                                                  ../../lib/libbtwam.a(btwam.o)
                                                  main.o
SN                                                ../../lib/libbtsystem.a(btcan_peakesd.o)
                                                  ../../lib/libbtsystem.a(btsystem.o)
                                                  ../../lib/libbtwam.a(gimbals.o)
                                                  ../../lib/libbtwam.a(btwam.o)
                                                  main.o
STAT                                              ../../lib/libbtsystem.a(btcan_peakesd.o)
                                                  ../../lib/libbtsystem.a(btsystem.o)
                                                  ../../lib/libbtwam.a(gimbals.o)
                                                  ../../lib/libbtwam.a(btwam.o)
                                                  main.o
ServiceContinuousTeach                            ../../lib/libbtwam.a(btwam.o)
SetAcc_vt                                         ../../lib/libbtsystem.a(btcontrol.o)
SetByID                                           ../../lib/libbtsystem.a(btsystem.o)
                                                  ../../lib/libbtwam.a(btwam.o)
SetCartesianSpace                                 ../../lib/libbtwam.a(btwam.o)
                                                  main.o
SetEngrUnits                                      ../../lib/libbtsystem.a(btsystem.o)
                                                  ../../lib/libbtwam.a(btwam.o)
SetGravityComp                                    ../../lib/libbtwam.a(btwam.o)
                                                  main.o
SetGravityUsingCalibrated                         ../../lib/libbtwam.a(btwam.o)
SetJointSpace                                     ../../lib/libbtwam.a(btwam.o)
                                                  main.o
SetPositionConstraint                             ../../lib/libbtwam.a(btwam.o)
                                                  main.o
SetProp                                           ../../lib/libbtsystem.a(btsystem.o)
SetTRC                                            ../../lib/libbtsystem.a(btsystem.o)
SetTorques                                        ../../lib/libbtsystem.a(btsystem.o)
                                                  ../../lib/libbtwam.a(btwam.o)
StartContinuousTeach                              ../../lib/libbtwam.a(btwam.o)
StopContinuousTeach                               ../../lib/libbtwam.a(btwam.o)
T                                                 ../../lib/libbtsystem.a(btcan_peakesd.o)
                                                  ../../lib/libbtsystem.a(btsystem.o)
                                                  ../../lib/libbtwam.a(gimbals.o)
                                                  ../../lib/libbtwam.a(btwam.o)
                                                  main.o
TACT                                              ../../lib/libbtsystem.a(btcan_peakesd.o)
                                                  ../../lib/libbtsystem.a(btsystem.o)
                                                  ../../lib/libbtwam.a(gimbals.o)
                                                  ../../lib/libbtwam.a(btwam.o)
                                                  main.o
TACTID                                            ../../lib/libbtsystem.a(btcan_peakesd.o)
                                                  ../../lib/libbtsystem.a(btsystem.o)
                                                  ../../lib/libbtwam.a(gimbals.o)
                                                  ../../lib/libbtwam.a(btwam.o)
                                                  main.o
TEMP                                              ../../lib/libbtsystem.a(btcan_peakesd.o)
                                                  ../../lib/libbtsystem.a(btsystem.o)
                                                  ../../lib/libbtwam.a(gimbals.o)
                                                  ../../lib/libbtwam.a(btwam.o)
                                                  main.o
TENSION                                           ../../lib/libbtsystem.a(btcan_peakesd.o)
                                                  ../../lib/libbtsystem.a(btsystem.o)
                                                  ../../lib/libbtwam.a(gimbals.o)
                                                  ../../lib/libbtwam.a(btwam.o)
                                                  main.o
TENSO                                             ../../lib/libbtsystem.a(btcan_peakesd.o)
                                                  ../../lib/libbtsystem.a(btsystem.o)
                                                  ../../lib/libbtwam.a(gimbals.o)
                                                  ../../lib/libbtwam.a(btwam.o)
                                                  main.o
TENST                                             ../../lib/libbtsystem.a(btcan_peakesd.o)
                                                  ../../lib/libbtsystem.a(btsystem.o)
                                                  ../../lib/libbtwam.a(gimbals.o)
                                                  ../../lib/libbtwam.a(btwam.o)
                                                  main.o
TETAE                                             ../../lib/libbtsystem.a(btcan_peakesd.o)
                                                  ../../lib/libbtsystem.a(btsystem.o)
                                                  ../../lib/libbtwam.a(gimbals.o)
                                                  ../../lib/libbtwam.a(btwam.o)
                                                  main.o
THERM                                             ../../lib/libbtsystem.a(btcan_peakesd.o)
                                                  ../../lib/libbtsystem.a(btsystem.o)
                                                  ../../lib/libbtwam.a(gimbals.o)
                                                  ../../lib/libbtwam.a(btwam.o)
                                                  main.o
TIE                                               ../../lib/libbtsystem.a(btcan_peakesd.o)
                                                  ../../lib/libbtsystem.a(btsystem.o)
                                                  ../../lib/libbtwam.a(gimbals.o)
                                                  ../../lib/libbtwam.a(btwam.o)
                                                  main.o
TL1                                               ../../lib/libbtsystem.a(btcan_peakesd.o)
                                                  ../../lib/libbtsystem.a(btsystem.o)
                                                  ../../lib/libbtwam.a(gimbals.o)
                                                  ../../lib/libbtwam.a(btwam.o)
                                                  main.o
TL2                                               ../../lib/libbtsystem.a(btcan_peakesd.o)
                                                  ../../lib/libbtsystem.a(btsystem.o)
                                                  ../../lib/libbtwam.a(gimbals.o)
                                                  ../../lib/libbtwam.a(btwam.o)
                                                  main.o
TORQ                                              ../../lib/libbtsystem.a(btcan_peakesd.o)
                                                  ../../lib/libbtsystem.a(btsystem.o)
                                                  ../../lib/libbtwam.a(gimbals.o)
                                                  ../../lib/libbtwam.a(btwam.o)
                                                  main.o
TSTOP                                             ../../lib/libbtsystem.a(btcan_peakesd.o)
                                                  ../../lib/libbtsystem.a(btsystem.o)
                                                  ../../lib/libbtwam.a(gimbals.o)
                                                  ../../lib/libbtwam.a(btwam.o)
                                                  main.o
T_m3                                              ../../lib/libbtsystem.a(btmath.o)
T_mn                                              ../../lib/libbtsystem.a(btmath.o)
                                                  ../../lib/libbtsystem.a(btrobot.o)
T_to_W_bot                                        ../../lib/libbtsystem.a(btrobot.o)
                                                  ../../lib/libbtwam.a(btwam.o)
T_to_W_trans_bot                                  ../../lib/libbtsystem.a(btrobot.o)
ThereIsTRC                                        ../../lib/libbtsystem.a(btsystem.o)
TriggerDL                                         ../../lib/libbtsystem.a(btlogger.o)
                                                  ../../lib/libbtwam.a(btwam.o)
TurnaroundTime                                    ../../lib/libbtsystem.a(btsystem.o)
UNITS                                             ../../lib/libbtsystem.a(btcan_peakesd.o)
                                                  ../../lib/libbtsystem.a(btsystem.o)
                                                  ../../lib/libbtwam.a(gimbals.o)
                                                  ../../lib/libbtwam.a(btwam.o)
                                                  main.o
UPSECS                                            ../../lib/libbtsystem.a(btcan_peakesd.o)
                                                  ../../lib/libbtsystem.a(btsystem.o)
                                                  ../../lib/libbtwam.a(gimbals.o)
                                                  ../../lib/libbtwam.a(btwam.o)
                                                  main.o
UpdateDL                                          ../../lib/libbtsystem.a(btlogger.o)
V                                                 ../../lib/libbtsystem.a(btcan_peakesd.o)
                                                  ../../lib/libbtsystem.a(btsystem.o)
                                                  ../../lib/libbtwam.a(gimbals.o)
                                                  ../../lib/libbtwam.a(btwam.o)
                                                  main.o
VALUE                                             ../../lib/libbtsystem.a(btcan_peakesd.o)
                                                  ../../lib/libbtsystem.a(btsystem.o)
                                                  ../../lib/libbtwam.a(gimbals.o)
                                                  ../../lib/libbtwam.a(btwam.o)
                                                  main.o
VALUE32                                           ../../lib/libbtsystem.a(btcan_peakesd.o)
                                                  ../../lib/libbtsystem.a(btsystem.o)
                                                  ../../lib/libbtwam.a(gimbals.o)
                                                  ../../lib/libbtwam.a(btwam.o)
                                                  main.o
VBUS                                              ../../lib/libbtsystem.a(btcan_peakesd.o)
                                                  ../../lib/libbtsystem.a(btsystem.o)
                                                  ../../lib/libbtwam.a(gimbals.o)
                                                  ../../lib/libbtwam.a(btwam.o)
                                                  main.o
VERS                                              ../../lib/libbtsystem.a(btcan_peakesd.o)
                                                  ../../lib/libbtsystem.a(btsystem.o)
                                                  ../../lib/libbtwam.a(gimbals.o)
                                                  ../../lib/libbtwam.a(btwam.o)
                                                  main.o
VL1                                               ../../lib/libbtsystem.a(btcan_peakesd.o)
                                                  ../../lib/libbtsystem.a(btsystem.o)
                                                  ../../lib/libbtwam.a(gimbals.o)
                                                  ../../lib/libbtwam.a(btwam.o)
                                                  main.o
VL2                                               ../../lib/libbtsystem.a(btcan_peakesd.o)
                                                  ../../lib/libbtsystem.a(btsystem.o)
                                                  ../../lib/libbtwam.a(gimbals.o)
                                                  ../../lib/libbtwam.a(btwam.o)
                                                  main.o
VLOGIC                                            ../../lib/libbtsystem.a(btcan_peakesd.o)
                                                  ../../lib/libbtsystem.a(btsystem.o)
                                                  ../../lib/libbtwam.a(gimbals.o)
                                                  ../../lib/libbtwam.a(btwam.o)
                                                  main.o
VNOM                                              ../../lib/libbtsystem.a(btcan_peakesd.o)
                                                  ../../lib/libbtsystem.a(btsystem.o)
                                                  ../../lib/libbtwam.a(gimbals.o)
                                                  ../../lib/libbtwam.a(btwam.o)
                                                  main.o
VOLTH1                                            ../../lib/libbtsystem.a(btcan_peakesd.o)
                                                  ../../lib/libbtsystem.a(btsystem.o)
                                                  ../../lib/libbtwam.a(gimbals.o)
                                                  ../../lib/libbtwam.a(btwam.o)
                                                  main.o
VOLTH2                                            ../../lib/libbtsystem.a(btcan_peakesd.o)
                                                  ../../lib/libbtsystem.a(btsystem.o)
                                                  ../../lib/libbtwam.a(gimbals.o)
                                                  ../../lib/libbtwam.a(btwam.o)
                                                  main.o
VOLTL1                                            ../../lib/libbtsystem.a(btcan_peakesd.o)
                                                  ../../lib/libbtsystem.a(btsystem.o)
                                                  ../../lib/libbtwam.a(gimbals.o)
                                                  ../../lib/libbtwam.a(btwam.o)
                                                  main.o
VOLTL2                                            ../../lib/libbtsystem.a(btcan_peakesd.o)
                                                  ../../lib/libbtsystem.a(btsystem.o)
                                                  ../../lib/libbtwam.a(gimbals.o)
                                                  ../../lib/libbtwam.a(btwam.o)
                                                  main.o
WAMControlThread                                  ../../lib/libbtwam.a(btwam.o)
                                                  main.o
WAMMaintenanceThread                              ../../lib/libbtwam.a(btwam.o)
X0                                                ../../lib/libbtsystem.a(btcan_peakesd.o)
                                                  ../../lib/libbtsystem.a(btsystem.o)
                                                  ../../lib/libbtwam.a(gimbals.o)
                                                  ../../lib/libbtwam.a(btwam.o)
                                                  main.o
X1                                                ../../lib/libbtsystem.a(btcan_peakesd.o)
                                                  ../../lib/libbtsystem.a(btsystem.o)
                                                  ../../lib/libbtwam.a(gimbals.o)
                                                  ../../lib/libbtwam.a(btwam.o)
                                                  main.o
X2                                                ../../lib/libbtsystem.a(btcan_peakesd.o)
                                                  ../../lib/libbtsystem.a(btsystem.o)
                                                  ../../lib/libbtwam.a(gimbals.o)
                                                  ../../lib/libbtwam.a(btwam.o)
                                                  main.o
X3                                                ../../lib/libbtsystem.a(btcan_peakesd.o)
                                                  ../../lib/libbtsystem.a(btsystem.o)
                                                  ../../lib/libbtwam.a(gimbals.o)
                                                  ../../lib/libbtwam.a(btwam.o)
                                                  main.o
X4                                                ../../lib/libbtsystem.a(btcan_peakesd.o)
                                                  ../../lib/libbtsystem.a(btsystem.o)
                                                  ../../lib/libbtwam.a(gimbals.o)
                                                  ../../lib/libbtwam.a(btwam.o)
                                                  main.o
X5                                                ../../lib/libbtsystem.a(btcan_peakesd.o)
                                                  ../../lib/libbtsystem.a(btsystem.o)
                                                  ../../lib/libbtwam.a(gimbals.o)
                                                  ../../lib/libbtwam.a(btwam.o)
                                                  main.o
X6                                                ../../lib/libbtsystem.a(btcan_peakesd.o)
                                                  ../../lib/libbtsystem.a(btsystem.o)
                                                  ../../lib/libbtwam.a(gimbals.o)
                                                  ../../lib/libbtwam.a(btwam.o)
                                                  main.o
X7                                                ../../lib/libbtsystem.a(btcan_peakesd.o)
                                                  ../../lib/libbtsystem.a(btsystem.o)
                                                  ../../lib/libbtwam.a(gimbals.o)
                                                  ../../lib/libbtwam.a(btwam.o)
                                                  main.o
XYZftoR_m3                                        ../../lib/libbtsystem.a(btmath.o)
                                                  main.o
ZERO                                              ../../lib/libbtsystem.a(btcan_peakesd.o)
                                                  ../../lib/libbtsystem.a(btsystem.o)
                                                  ../../lib/libbtwam.a(gimbals.o)
                                                  ../../lib/libbtwam.a(btwam.o)
                                                  main.o
_DS                                               ../../lib/libbtsystem.a(btcan_peakesd.o)
                                                  ../../lib/libbtsystem.a(btsystem.o)
                                                  ../../lib/libbtwam.a(gimbals.o)
                                                  ../../lib/libbtwam.a(btwam.o)
                                                  main.o
_DYNAMIC                                          /usr/lib/gcc/x86_64-linux-gnu/7/../../../x86_64-linux-gnu/Scrt1.o
_Exit                                             /lib/x86_64-linux-gnu/libc.so.6
_Exit@@GLIBC_2.2.5                                /lib/x86_64-linux-gnu/libc.so.6
_Exit@GLIBC_2.2.5                                 /lib/x86_64-linux-gnu/libc.so.6
_GLOBAL_OFFSET_TABLE_                             /usr/lib/gcc/x86_64-linux-gnu/7/../../../x86_64-linux-gnu/Scrt1.o
                                                  /usr/lib/x86_64-linux-gnu/libc_nonshared.a(elf-init.oS)
                                                  /usr/xenomai/lib/xenomai/bootstrap.o
                                                  ../../lib/libbtsystem.a(btpath.o)
                                                  ../../lib/libbtsystem.a(btseg.o)
                                                  ../../lib/libbtsystem.a(btparser.o)
                                                  ../../lib/libbtsystem.a(btstatecontrol.o)
                                                  ../../lib/libbtsystem.a(btcontrol.o)
                                                  ../../lib/libbtsystem.a(btos.o)
                                                  ../../lib/libbtsystem.a(btmath.o)
                                                  ../../lib/libbtsystem.a(btrobot.o)
                                                  ../../lib/libbtsystem.a(btcan_peakesd.o)
                                                  ../../lib/libbtsystem.a(btlogger.o)
                                                  ../../lib/libbtsystem.a(btsystem.o)
                                                  ../../lib/libbtwam.a(gimbals.o)
                                                  ../../lib/libbtwam.a(btwam.o)
                                                  main.o
                                                  /usr/lib/gcc/x86_64-linux-gnu/7/crtbeginS.o
                                                  /usr/lib/gcc/x86_64-linux-gnu/7/../../../x86_64-linux-gnu/crti.o
_IO_fprintf                                       /lib/x86_64-linux-gnu/libc.so.6
_IO_fprintf@@GLIBC_2.2.5                          /lib/x86_64-linux-gnu/libc.so.6
_IO_fprintf@GLIBC_2.2.5                           /lib/x86_64-linux-gnu/libc.so.6
_IO_stdin_used                                    /usr/lib/gcc/x86_64-linux-gnu/7/../../../x86_64-linux-gnu/Scrt1.o
_ITM_deregisterTMCloneTable                       /usr/lib/gcc/x86_64-linux-gnu/7/../../../x86_64-linux-gnu/librt.so
                                                  /lib/x86_64-linux-gnu/libpthread.so.0
                                                  /usr/lib/libmodechk.so
                                                  /usr/lib/libcobalt.so
                                                  /usr/lib/libcopperplate.so
                                                  /usr/lib/libalchemy.so
                                                  /usr/lib/libtrank.so
                                                  /lib/x86_64-linux-gnu/libm.so.6
                                                  /usr/lib/gcc/x86_64-linux-gnu/7/crtbeginS.o
_ITM_registerTMCloneTable                         /usr/lib/gcc/x86_64-linux-gnu/7/../../../x86_64-linux-gnu/librt.so
                                                  /lib/x86_64-linux-gnu/libpthread.so.0
                                                  /usr/lib/libmodechk.so
                                                  /usr/lib/libcobalt.so
                                                  /usr/lib/libcopperplate.so
                                                  /usr/lib/libalchemy.so
                                                  /usr/lib/libtrank.so
                                                  /lib/x86_64-linux-gnu/libm.so.6
                                                  /usr/lib/gcc/x86_64-linux-gnu/7/crtbeginS.o
_LOCK                                             ../../lib/libbtsystem.a(btcan_peakesd.o)
                                                  ../../lib/libbtsystem.a(btsystem.o)
                                                  ../../lib/libbtwam.a(gimbals.o)
                                                  ../../lib/libbtwam.a(btwam.o)
                                                  main.o
__GNU_EH_FRAME_HDR                                ex5
__TMC_END__                                       /usr/lib/gcc/x86_64-linux-gnu/7/crtendS.o
                                                  /usr/lib/gcc/x86_64-linux-gnu/7/crtbeginS.o
__after_morecore_hook                             /lib/x86_64-linux-gnu/libc.so.6
__after_morecore_hook@@GLIBC_2.2.5                /lib/x86_64-linux-gnu/libc.so.6
__after_morecore_hook@GLIBC_2.2.5                 /lib/x86_64-linux-gnu/libc.so.6
__cobalt_control_bind                             /usr/lib/libcobalt.so
__compat_bdflush                                  /lib/x86_64-linux-gnu/libc.so.6
__connect                                         /lib/x86_64-linux-gnu/libpthread.so.0
__connect@@GLIBC_2.2.5                            /lib/x86_64-linux-gnu/libpthread.so.0
                                                  /lib/x86_64-linux-gnu/libc.so.6
__connect@GLIBC_2.2.5                             /lib/x86_64-linux-gnu/libpthread.so.0
__ctype_get_mb_cur_max                            /lib/x86_64-linux-gnu/libc.so.6
__ctype_get_mb_cur_max@@GLIBC_2.2.5               /lib/x86_64-linux-gnu/libc.so.6
__ctype_get_mb_cur_max@GLIBC_2.2.5                /lib/x86_64-linux-gnu/libc.so.6
__data_start                                      /usr/lib/gcc/x86_64-linux-gnu/7/../../../x86_64-linux-gnu/Scrt1.o
__dso_handle                                      /usr/lib/gcc/x86_64-linux-gnu/7/crtbeginS.o
__fcntl                                           /lib/x86_64-linux-gnu/libpthread.so.0
__fcntl@@GLIBC_2.2.5                              /lib/x86_64-linux-gnu/libpthread.so.0
                                                  /lib/x86_64-linux-gnu/libc.so.6
__fcntl@GLIBC_2.2.5                               /lib/x86_64-linux-gnu/libpthread.so.0
__free_hook                                       /lib/x86_64-linux-gnu/libc.so.6
__free_hook@@GLIBC_2.2.5                          /lib/x86_64-linux-gnu/libc.so.6
__free_hook@GLIBC_2.2.5                           /lib/x86_64-linux-gnu/libc.so.6
__getdelim                                        /lib/x86_64-linux-gnu/libc.so.6
__getdelim@@GLIBC_2.2.5                           /lib/x86_64-linux-gnu/libc.so.6
__getdelim@GLIBC_2.2.5                            /lib/x86_64-linux-gnu/libc.so.6
                                                  /lib/x86_64-linux-gnu/libpthread.so.0
__gmon_start__                                    /usr/lib/gcc/x86_64-linux-gnu/7/../../../x86_64-linux-gnu/librt.so
                                                  /usr/lib/libmodechk.so
                                                  /usr/lib/libcobalt.so
                                                  /usr/lib/libcopperplate.so
                                                  /usr/lib/libalchemy.so
                                                  /usr/lib/libtrank.so
                                                  /lib/x86_64-linux-gnu/libm.so.6
                                                  /usr/lib/gcc/x86_64-linux-gnu/7/../../../x86_64-linux-gnu/crti.o
__init_array_end                                  /usr/lib/x86_64-linux-gnu/libc_nonshared.a(elf-init.oS)
__init_array_start                                /usr/lib/x86_64-linux-gnu/libc_nonshared.a(elf-init.oS)
__isascii_l                                       /lib/x86_64-linux-gnu/libc.so.6
__isascii_l@@GLIBC_2.2.5                          /lib/x86_64-linux-gnu/libc.so.6
__isascii_l@GLIBC_2.2.5                           /lib/x86_64-linux-gnu/libc.so.6
__libc_csu_fini                                   /usr/lib/x86_64-linux-gnu/libc_nonshared.a(elf-init.oS)
                                                  /usr/lib/gcc/x86_64-linux-gnu/7/../../../x86_64-linux-gnu/Scrt1.o
__libc_csu_init                                   /usr/lib/x86_64-linux-gnu/libc_nonshared.a(elf-init.oS)
                                                  /usr/lib/gcc/x86_64-linux-gnu/7/../../../x86_64-linux-gnu/Scrt1.o
__libc_secure_getenv                              /lib/x86_64-linux-gnu/libc.so.6
__libc_secure_getenv@@GLIBC_PRIVATE               /lib/x86_64-linux-gnu/libc.so.6
__libc_secure_getenv@GLIBC_PRIVATE                /lib/x86_64-linux-gnu/libc.so.6
__lseek                                           /lib/x86_64-linux-gnu/libpthread.so.0
__lseek@@GLIBC_2.2.5                              /lib/x86_64-linux-gnu/libpthread.so.0
                                                  /lib/x86_64-linux-gnu/libc.so.6
__lseek@GLIBC_2.2.5                               /lib/x86_64-linux-gnu/libpthread.so.0
__malloc_hook                                     /lib/x86_64-linux-gnu/libc.so.6
__malloc_hook@@GLIBC_2.2.5                        /lib/x86_64-linux-gnu/libc.so.6
__malloc_hook@GLIBC_2.2.5                         /lib/x86_64-linux-gnu/libc.so.6
__malloc_initialize_hook@GLIBC_2.2.5              /lib/x86_64-linux-gnu/libc.so.6
__memalign_hook                                   /lib/x86_64-linux-gnu/libc.so.6
__memalign_hook@@GLIBC_2.2.5                      /lib/x86_64-linux-gnu/libc.so.6
__memalign_hook@GLIBC_2.2.5                       /lib/x86_64-linux-gnu/libc.so.6
__open_nocancel                                   /lib/x86_64-linux-gnu/libc.so.6
__open_nocancel@@GLIBC_PRIVATE                    /lib/x86_64-linux-gnu/libc.so.6
__open_nocancel@GLIBC_PRIVATE                     /lib/x86_64-linux-gnu/libc.so.6
__pread64                                         /lib/x86_64-linux-gnu/libpthread.so.0
__pread64@@GLIBC_2.2.5                            /lib/x86_64-linux-gnu/libpthread.so.0
                                                  /lib/x86_64-linux-gnu/libc.so.6
__pread64@GLIBC_2.2.5                             /lib/x86_64-linux-gnu/libpthread.so.0
__pwrite64                                        /lib/x86_64-linux-gnu/libpthread.so.0
__pwrite64@@GLIBC_2.2.5                           /lib/x86_64-linux-gnu/libpthread.so.0
                                                  /lib/x86_64-linux-gnu/libc.so.6
__pwrite64@GLIBC_2.2.5                            /lib/x86_64-linux-gnu/libpthread.so.0
__read                                            /lib/x86_64-linux-gnu/libpthread.so.0
__read@@GLIBC_2.2.5                               /lib/x86_64-linux-gnu/libpthread.so.0
                                                  /lib/x86_64-linux-gnu/libc.so.6
__read@GLIBC_2.2.5                                /lib/x86_64-linux-gnu/libpthread.so.0
__real___vfprintf_chk                             /usr/lib/libcobalt.so
__real___vsyslog_chk                              /usr/lib/libcobalt.so
__real_accept                                     /usr/lib/libcobalt.so
__real_bind                                       /usr/lib/libcobalt.so
__real_clock_gettime                              /usr/lib/libcobalt.so
__real_close                                      /usr/lib/libcobalt.so
                                                  /usr/xenomai/lib/xenomai/bootstrap.o
__real_connect                                    /usr/lib/libcobalt.so
__real_fclose                                     /usr/lib/libcobalt.so
__real_fcntl                                      /usr/lib/libcobalt.so
__real_fprintf                                    /usr/lib/libcobalt.so
__real_fputc                                      /usr/lib/libcobalt.so
__real_fputs                                      /usr/lib/libcobalt.so
__real_free                                       /usr/lib/libmodechk.so
__real_fwrite                                     /usr/lib/libcobalt.so
__real_getpeername                                /usr/lib/libcobalt.so
__real_getsockname                                /usr/lib/libcobalt.so
__real_getsockopt                                 /usr/lib/libcobalt.so
__real_gettimeofday                               /usr/lib/libcobalt.so
__real_ioctl                                      /usr/lib/libcobalt.so
__real_kill                                       /usr/lib/libcobalt.so
__real_listen                                     /usr/lib/libcobalt.so
__real_malloc                                     /usr/lib/libmodechk.so
__real_mmap                                       /usr/lib/libcobalt.so
__real_open                                       /usr/lib/libcobalt.so
                                                  /usr/xenomai/lib/xenomai/bootstrap.o
__real_printf                                     /usr/lib/libcobalt.so
__real_pthread_attr_init                          /usr/lib/libcobalt.so
__real_pthread_create                             /usr/lib/libcobalt.so
__real_pthread_getschedparam                      /usr/lib/libcobalt.so
__real_pthread_join                               /usr/lib/libcobalt.so
__real_pthread_kill                               /usr/lib/libcobalt.so
__real_pthread_setschedparam                      /usr/lib/libcobalt.so
__real_putchar                                    /usr/lib/libcobalt.so
__real_puts                                       /usr/lib/libcobalt.so
__real_read                                       /usr/lib/libcobalt.so
                                                  /usr/xenomai/lib/xenomai/bootstrap.o
__real_recv                                       /usr/lib/libcobalt.so
__real_recvfrom                                   /usr/lib/libcobalt.so
__real_recvmsg                                    /usr/lib/libcobalt.so
__real_sched_get_priority_max                     /usr/lib/libcobalt.so
__real_sched_get_priority_min                     /usr/lib/libcobalt.so
__real_sched_getscheduler                         /usr/lib/libcobalt.so
__real_sched_setscheduler                         /usr/lib/libcobalt.so
__real_sched_yield                                /usr/lib/libcobalt.so
__real_select                                     /usr/lib/libcobalt.so
__real_sem_destroy                                /usr/lib/libcobalt.so
                                                  /usr/lib/libcopperplate.so
__real_sem_getvalue                               /usr/lib/libcobalt.so
__real_sem_init                                   /usr/lib/libcobalt.so
                                                  /usr/lib/libcopperplate.so
__real_sem_post                                   /usr/lib/libcobalt.so
                                                  /usr/lib/libcopperplate.so
__real_sem_timedwait                              /usr/lib/libcobalt.so
__real_sem_trywait                                /usr/lib/libcobalt.so
__real_sem_wait                                   /usr/lib/libcobalt.so
                                                  /usr/lib/libcopperplate.so
__real_send                                       /usr/lib/libcobalt.so
__real_sendmsg                                    /usr/lib/libcobalt.so
__real_sendto                                     /usr/lib/libcobalt.so
__real_setsockopt                                 /usr/lib/libcobalt.so
__real_shutdown                                   /usr/lib/libcobalt.so
__real_sigpending                                 /usr/lib/libcobalt.so
__real_sigtimedwait                               /usr/lib/libcobalt.so
__real_sigwait                                    /usr/lib/libcobalt.so
__real_sigwaitinfo                                /usr/lib/libcobalt.so
__real_sleep                                      /usr/lib/libcobalt.so
__real_socket                                     /usr/lib/libcobalt.so
__real_syslog                                     /usr/lib/libcobalt.so
__real_vfprintf                                   /usr/lib/libcobalt.so
__real_vprintf                                    /usr/lib/libcobalt.so
__real_vsyslog                                    /usr/lib/libcobalt.so
__real_write                                      /usr/lib/libcobalt.so
__realloc_hook                                    /lib/x86_64-linux-gnu/libc.so.6
__realloc_hook@@GLIBC_2.2.5                       /lib/x86_64-linux-gnu/libc.so.6
__realloc_hook@GLIBC_2.2.5                        /lib/x86_64-linux-gnu/libc.so.6
__recv                                            /lib/x86_64-linux-gnu/libc.so.6
__recv@@GLIBC_PRIVATE                             /lib/x86_64-linux-gnu/libc.so.6
__recv@GLIBC_PRIVATE                              /lib/x86_64-linux-gnu/libc.so.6
                                                  /usr/lib/gcc/x86_64-linux-gnu/7/../../../x86_64-linux-gnu/librt.so
__secure_getenv@GLIBC_2.2.5                       /lib/x86_64-linux-gnu/libc.so.6
__send                                            /lib/x86_64-linux-gnu/libpthread.so.0
__send@@GLIBC_2.2.5                               /lib/x86_64-linux-gnu/libpthread.so.0
                                                  /lib/x86_64-linux-gnu/libc.so.6
__send@GLIBC_2.2.5                                /lib/x86_64-linux-gnu/libpthread.so.0
__strtoll_l                                       /lib/x86_64-linux-gnu/libc.so.6
__strtoll_l@@GLIBC_2.2.5                          /lib/x86_64-linux-gnu/libc.so.6
__strtoll_l@GLIBC_2.2.5                           /lib/x86_64-linux-gnu/libc.so.6
__strtoull_l                                      /lib/x86_64-linux-gnu/libc.so.6
__strtoull_l@@GLIBC_2.2.5                         /lib/x86_64-linux-gnu/libc.so.6
__strtoull_l@GLIBC_2.2.5                          /lib/x86_64-linux-gnu/libc.so.6
__toascii_l                                       /lib/x86_64-linux-gnu/libc.so.6
__toascii_l@@GLIBC_2.2.5                          /lib/x86_64-linux-gnu/libc.so.6
__toascii_l@GLIBC_2.2.5                           /lib/x86_64-linux-gnu/libc.so.6
__vsnprintf                                       /lib/x86_64-linux-gnu/libc.so.6
__vsnprintf@@GLIBC_2.2.5                          /lib/x86_64-linux-gnu/libc.so.6
__vsnprintf@GLIBC_2.2.5                           /lib/x86_64-linux-gnu/libc.so.6
__vsscanf                                         /lib/x86_64-linux-gnu/libc.so.6
__vsscanf@@GLIBC_2.2.5                            /lib/x86_64-linux-gnu/libc.so.6
__vsscanf@GLIBC_2.2.5                             /lib/x86_64-linux-gnu/libc.so.6
__wait                                            /lib/x86_64-linux-gnu/libpthread.so.0
__wait@@GLIBC_2.2.5                               /lib/x86_64-linux-gnu/libpthread.so.0
                                                  /lib/x86_64-linux-gnu/libc.so.6
__wait@GLIBC_2.2.5                                /lib/x86_64-linux-gnu/libpthread.so.0
__wcstoll_l                                       /lib/x86_64-linux-gnu/libc.so.6
__wcstoll_l@@GLIBC_2.2.5                          /lib/x86_64-linux-gnu/libc.so.6
__wcstoll_l@GLIBC_2.2.5                           /lib/x86_64-linux-gnu/libc.so.6
__wcstoull_l                                      /lib/x86_64-linux-gnu/libc.so.6
__wcstoull_l@@GLIBC_2.2.5                         /lib/x86_64-linux-gnu/libc.so.6
__wcstoull_l@GLIBC_2.2.5                          /lib/x86_64-linux-gnu/libc.so.6
__wrap___fprintf_chk                              /usr/lib/libcobalt.so
__wrap___printf_chk                               /usr/lib/libcobalt.so
__wrap___syslog_chk                               /usr/lib/libcobalt.so
__wrap___vfprintf_chk                             /usr/lib/libcobalt.so
__wrap___vprintf_chk                              /usr/lib/libcobalt.so
__wrap___vsyslog_chk                              /usr/lib/libcobalt.so
__wrap_accept                                     /usr/lib/libcobalt.so
__wrap_bind                                       /usr/lib/libcobalt.so
__wrap_clock_getres                               /usr/lib/libcobalt.so
__wrap_clock_gettime                              /usr/lib/libcobalt.so
__wrap_clock_nanosleep                            /usr/lib/libcobalt.so
__wrap_clock_settime                              /usr/lib/libcobalt.so
__wrap_close                                      /usr/lib/libcobalt.so
__wrap_connect                                    /usr/lib/libcobalt.so
__wrap_fclose                                     /usr/lib/libcobalt.so
__wrap_fcntl                                      /usr/lib/libcobalt.so
__wrap_fprintf                                    /usr/lib/libcobalt.so
__wrap_fputc                                      /usr/lib/libcobalt.so
__wrap_fputs                                      /usr/lib/libcobalt.so
__wrap_free                                       /usr/lib/libmodechk.so
                                                  ../../lib/libbtsystem.a(btos.o)
                                                  ../../lib/libbtsystem.a(btmath.o)
                                                  ../../lib/libbtsystem.a(btlogger.o)
                                                  ../../lib/libbtsystem.a(btsystem.o)
__wrap_fwrite                                     /usr/lib/libcobalt.so
__wrap_getpeername                                /usr/lib/libcobalt.so
__wrap_getsockname                                /usr/lib/libcobalt.so
__wrap_getsockopt                                 /usr/lib/libcobalt.so
__wrap_gettimeofday                               /usr/lib/libcobalt.so
__wrap_ioctl                                      /usr/lib/libcobalt.so
__wrap_kill                                       /usr/lib/libcobalt.so
__wrap_listen                                     /usr/lib/libcobalt.so
__wrap_main                                       /usr/xenomai/lib/xenomai/bootstrap.o
                                                  /usr/lib/gcc/x86_64-linux-gnu/7/../../../x86_64-linux-gnu/Scrt1.o
__wrap_malloc                                     /usr/lib/libmodechk.so
                                                  ../../lib/libbtsystem.a(btos.o)
                                                  ../../lib/libbtsystem.a(btsystem.o)
__wrap_mmap                                       /usr/lib/libcobalt.so
__wrap_mmap64                                     /usr/lib/libcobalt.so
__wrap_mq_close                                   /usr/lib/libcobalt.so
__wrap_mq_getattr                                 /usr/lib/libcobalt.so
__wrap_mq_notify                                  /usr/lib/libcobalt.so
__wrap_mq_open                                    /usr/lib/libcobalt.so
__wrap_mq_receive                                 /usr/lib/libcobalt.so
__wrap_mq_send                                    /usr/lib/libcobalt.so
__wrap_mq_setattr                                 /usr/lib/libcobalt.so
__wrap_mq_timedreceive                            /usr/lib/libcobalt.so
__wrap_mq_timedsend                               /usr/lib/libcobalt.so
__wrap_mq_unlink                                  /usr/lib/libcobalt.so
__wrap_nanosleep                                  /usr/lib/libcobalt.so
__wrap_open                                       /usr/lib/libcobalt.so
__wrap_open64                                     /usr/lib/libcobalt.so
__wrap_printf                                     /usr/lib/libcobalt.so
__wrap_pthread_attr_init                          /usr/lib/libcobalt.so
__wrap_pthread_cond_broadcast                     /usr/lib/libcobalt.so
__wrap_pthread_cond_destroy                       /usr/lib/libcobalt.so
__wrap_pthread_cond_init                          /usr/lib/libcobalt.so
__wrap_pthread_cond_signal                        /usr/lib/libcobalt.so
__wrap_pthread_cond_timedwait                     /usr/lib/libcobalt.so
__wrap_pthread_cond_wait                          /usr/lib/libcobalt.so
__wrap_pthread_create                             /usr/lib/libcobalt.so
__wrap_pthread_getschedparam                      /usr/lib/libcobalt.so
__wrap_pthread_join                               /usr/lib/libcobalt.so
__wrap_pthread_kill                               /usr/lib/libcobalt.so
__wrap_pthread_mutex_destroy                      /usr/lib/libcobalt.so
__wrap_pthread_mutex_init                         /usr/lib/libcobalt.so
__wrap_pthread_mutex_lock                         /usr/lib/libcobalt.so
__wrap_pthread_mutex_timedlock                    /usr/lib/libcobalt.so
__wrap_pthread_mutex_trylock                      /usr/lib/libcobalt.so
__wrap_pthread_mutex_unlock                       /usr/lib/libcobalt.so
__wrap_pthread_setname_np                         /usr/lib/libcobalt.so
__wrap_pthread_setschedparam                      /usr/lib/libcobalt.so
__wrap_pthread_yield                              /usr/lib/libcobalt.so
__wrap_putchar                                    /usr/lib/libcobalt.so
__wrap_puts                                       /usr/lib/libcobalt.so
__wrap_read                                       /usr/lib/libcobalt.so
__wrap_recv                                       /usr/lib/libcobalt.so
__wrap_recvfrom                                   /usr/lib/libcobalt.so
__wrap_recvmsg                                    /usr/lib/libcobalt.so
__wrap_sched_get_priority_max                     /usr/lib/libcobalt.so
__wrap_sched_get_priority_min                     /usr/lib/libcobalt.so
__wrap_sched_getscheduler                         /usr/lib/libcobalt.so
__wrap_sched_setscheduler                         /usr/lib/libcobalt.so
__wrap_sched_yield                                /usr/lib/libcobalt.so
__wrap_select                                     /usr/lib/libcobalt.so
__wrap_sem_close                                  /usr/lib/libcobalt.so
__wrap_sem_destroy                                /usr/lib/libcobalt.so
__wrap_sem_getvalue                               /usr/lib/libcobalt.so
__wrap_sem_init                                   /usr/lib/libcobalt.so
__wrap_sem_open                                   /usr/lib/libcobalt.so
__wrap_sem_post                                   /usr/lib/libcobalt.so
__wrap_sem_timedwait                              /usr/lib/libcobalt.so
__wrap_sem_trywait                                /usr/lib/libcobalt.so
__wrap_sem_unlink                                 /usr/lib/libcobalt.so
__wrap_sem_wait                                   /usr/lib/libcobalt.so
__wrap_send                                       /usr/lib/libcobalt.so
__wrap_sendmsg                                    /usr/lib/libcobalt.so
__wrap_sendto                                     /usr/lib/libcobalt.so
__wrap_setsockopt                                 /usr/lib/libcobalt.so
__wrap_shutdown                                   /usr/lib/libcobalt.so
__wrap_sigpending                                 /usr/lib/libcobalt.so
__wrap_sigqueue                                   /usr/lib/libcobalt.so
__wrap_sigtimedwait                               /usr/lib/libcobalt.so
__wrap_sigwait                                    /usr/lib/libcobalt.so
__wrap_sigwaitinfo                                /usr/lib/libcobalt.so
__wrap_sleep                                      /usr/lib/libcobalt.so
__wrap_socket                                     /usr/lib/libcobalt.so
__wrap_syslog                                     /usr/lib/libcobalt.so
__wrap_time                                       /usr/lib/libcobalt.so
__wrap_timer_create                               /usr/lib/libcobalt.so
__wrap_timer_delete                               /usr/lib/libcobalt.so
__wrap_timer_getoverrun                           /usr/lib/libcobalt.so
__wrap_timer_gettime                              /usr/lib/libcobalt.so
__wrap_timer_settime                              /usr/lib/libcobalt.so
__wrap_timerfd_create                             /usr/lib/libcobalt.so
__wrap_timerfd_gettime                            /usr/lib/libcobalt.so
__wrap_timerfd_settime                            /usr/lib/libcobalt.so
__wrap_vfprintf                                   /usr/lib/libcobalt.so
__wrap_vprintf                                    /usr/lib/libcobalt.so
__wrap_vsyslog                                    /usr/lib/libcobalt.so
__wrap_write                                      /usr/lib/libcobalt.so
__write                                           /lib/x86_64-linux-gnu/libpthread.so.0
__write@@GLIBC_2.2.5                              /lib/x86_64-linux-gnu/libpthread.so.0
                                                  /lib/x86_64-linux-gnu/libc.so.6
__write@GLIBC_2.2.5                               /lib/x86_64-linux-gnu/libpthread.so.0
__xpg_sigpause                                    /lib/x86_64-linux-gnu/libc.so.6
__xpg_sigpause@@GLIBC_2.2.5                       /lib/x86_64-linux-gnu/libc.so.6
__xpg_sigpause@GLIBC_2.2.5                        /lib/x86_64-linux-gnu/libc.so.6
_dl_starting_up                                   /lib/x86_64-linux-gnu/libc.so.6
_environ                                          /lib/x86_64-linux-gnu/libc.so.6
_environ@@GLIBC_2.2.5                             /lib/x86_64-linux-gnu/libc.so.6
_environ@GLIBC_2.2.5                              /lib/x86_64-linux-gnu/libc.so.6
_fini                                             /usr/lib/gcc/x86_64-linux-gnu/7/../../../x86_64-linux-gnu/crti.o
                                                  /usr/lib/libmodechk.so
                                                  /usr/lib/libcobalt.so
                                                  /usr/lib/libcopperplate.so
                                                  /usr/lib/libalchemy.so
                                                  /usr/lib/libtrank.so
_flushlbf                                         /lib/x86_64-linux-gnu/libc.so.6
_flushlbf@@GLIBC_2.2.5                            /lib/x86_64-linux-gnu/libc.so.6
_flushlbf@GLIBC_2.2.5                             /lib/x86_64-linux-gnu/libc.so.6
_init                                             /usr/lib/gcc/x86_64-linux-gnu/7/../../../x86_64-linux-gnu/crti.o
                                                  /usr/lib/x86_64-linux-gnu/libc_nonshared.a(elf-init.oS)
                                                  /usr/lib/libmodechk.so
                                                  /usr/lib/libcobalt.so
                                                  /usr/lib/libcopperplate.so
                                                  /usr/lib/libalchemy.so
                                                  /usr/lib/libtrank.so
_longjmp                                          /lib/x86_64-linux-gnu/libc.so.6
_longjmp@@GLIBC_2.2.5                             /lib/x86_64-linux-gnu/libc.so.6
_longjmp@GLIBC_2.2.5                              /lib/x86_64-linux-gnu/libc.so.6
_start                                            /usr/lib/gcc/x86_64-linux-gnu/7/../../../x86_64-linux-gnu/Scrt1.o
accept                                            /lib/x86_64-linux-gnu/libpthread.so.0
accept@@GLIBC_2.2.5                               /lib/x86_64-linux-gnu/libpthread.so.0
                                                  /lib/x86_64-linux-gnu/libc.so.6
accept@GLIBC_2.2.5                                /lib/x86_64-linux-gnu/libpthread.so.0
                                                  /usr/lib/libcobalt.so
access                                            /lib/x86_64-linux-gnu/libc.so.6
access@@GLIBC_2.2.5                               /lib/x86_64-linux-gnu/libc.so.6
access@GLIBC_2.2.5                                /lib/x86_64-linux-gnu/libc.so.6
                                                  /usr/lib/libcobalt.so
acos                                              /lib/x86_64-linux-gnu/libm.so.6
                                                  ../../lib/libbtsystem.a(btmath.o)
acos@@GLIBC_2.2.5                                 /lib/x86_64-linux-gnu/libm.so.6
acos@GLIBC_2.2.5                                  /lib/x86_64-linux-gnu/libm.so.6
acosf                                             /lib/x86_64-linux-gnu/libm.so.6
acosf128                                          /lib/x86_64-linux-gnu/libm.so.6
acosf128@@GLIBC_2.26                              /lib/x86_64-linux-gnu/libm.so.6
acosf128@GLIBC_2.26                               /lib/x86_64-linux-gnu/libm.so.6
acosf32                                           /lib/x86_64-linux-gnu/libm.so.6
acosf32@@GLIBC_2.27                               /lib/x86_64-linux-gnu/libm.so.6
acosf32@GLIBC_2.27                                /lib/x86_64-linux-gnu/libm.so.6
acosf32x                                          /lib/x86_64-linux-gnu/libm.so.6
acosf32x@@GLIBC_2.27                              /lib/x86_64-linux-gnu/libm.so.6
acosf32x@GLIBC_2.27                               /lib/x86_64-linux-gnu/libm.so.6
acosf64                                           /lib/x86_64-linux-gnu/libm.so.6
acosf64@@GLIBC_2.27                               /lib/x86_64-linux-gnu/libm.so.6
acosf64@GLIBC_2.27                                /lib/x86_64-linux-gnu/libm.so.6
acosf64x                                          /lib/x86_64-linux-gnu/libm.so.6
acosf64x@@GLIBC_2.27                              /lib/x86_64-linux-gnu/libm.so.6
acosf64x@GLIBC_2.27                               /lib/x86_64-linux-gnu/libm.so.6
acosf@@GLIBC_2.2.5                                /lib/x86_64-linux-gnu/libm.so.6
acosf@GLIBC_2.2.5                                 /lib/x86_64-linux-gnu/libm.so.6
acosh                                             /lib/x86_64-linux-gnu/libm.so.6
acosh@@GLIBC_2.2.5                                /lib/x86_64-linux-gnu/libm.so.6
acosh@GLIBC_2.2.5                                 /lib/x86_64-linux-gnu/libm.so.6
acoshf                                            /lib/x86_64-linux-gnu/libm.so.6
acoshf128                                         /lib/x86_64-linux-gnu/libm.so.6
acoshf128@@GLIBC_2.26                             /lib/x86_64-linux-gnu/libm.so.6
acoshf128@GLIBC_2.26                              /lib/x86_64-linux-gnu/libm.so.6
acoshf32                                          /lib/x86_64-linux-gnu/libm.so.6
acoshf32@@GLIBC_2.27                              /lib/x86_64-linux-gnu/libm.so.6
acoshf32@GLIBC_2.27                               /lib/x86_64-linux-gnu/libm.so.6
acoshf32x                                         /lib/x86_64-linux-gnu/libm.so.6
acoshf32x@@GLIBC_2.27                             /lib/x86_64-linux-gnu/libm.so.6
acoshf32x@GLIBC_2.27                              /lib/x86_64-linux-gnu/libm.so.6
acoshf64                                          /lib/x86_64-linux-gnu/libm.so.6
acoshf64@@GLIBC_2.27                              /lib/x86_64-linux-gnu/libm.so.6
acoshf64@GLIBC_2.27                               /lib/x86_64-linux-gnu/libm.so.6
acoshf64x                                         /lib/x86_64-linux-gnu/libm.so.6
acoshf64x@@GLIBC_2.27                             /lib/x86_64-linux-gnu/libm.so.6
acoshf64x@GLIBC_2.27                              /lib/x86_64-linux-gnu/libm.so.6
acoshf@@GLIBC_2.2.5                               /lib/x86_64-linux-gnu/libm.so.6
acoshf@GLIBC_2.2.5                                /lib/x86_64-linux-gnu/libm.so.6
acoshl                                            /lib/x86_64-linux-gnu/libm.so.6
acoshl@@GLIBC_2.2.5                               /lib/x86_64-linux-gnu/libm.so.6
acoshl@GLIBC_2.2.5                                /lib/x86_64-linux-gnu/libm.so.6
acosl                                             /lib/x86_64-linux-gnu/libm.so.6
acosl@@GLIBC_2.2.5                                /lib/x86_64-linux-gnu/libm.so.6
acosl@GLIBC_2.2.5                                 /lib/x86_64-linux-gnu/libm.so.6
act                                               ../../lib/libbtsystem.a(btsystem.o)
act_data_valid                                    ../../lib/libbtsystem.a(btsystem.o)
add_arclen_point_pwl                              ../../lib/libbtsystem.a(btpath.o)
                                                  ../../lib/libbtsystem.a(btstatecontrol.o)
add_bseg_pa                                       ../../lib/libbtsystem.a(btseg.o)
add_mn                                            ../../lib/libbtsystem.a(btmath.o)
                                                  ../../lib/libbtsystem.a(btrobot.o)
add_point_pwl                                     ../../lib/libbtsystem.a(btpath.o)
add_q                                             ../../lib/libbtsystem.a(btmath.o)
add_v3                                            ../../lib/libbtsystem.a(btmath.o)
                                                  ../../lib/libbtsystem.a(btrobot.o)
                                                  ../../lib/libbtwam.a(btwam.o)
add_vectray_pwl                                   ../../lib/libbtsystem.a(btpath.o)
add_vn                                            ../../lib/libbtsystem.a(btmath.o)
                                                  ../../lib/libbtwam.a(btwam.o)
addbtptr                                          ../../lib/libbtsystem.a(btmath.o)
addmntent                                         /lib/x86_64-linux-gnu/libc.so.6
addmntent@@GLIBC_2.2.5                            /lib/x86_64-linux-gnu/libc.so.6
addmntent@GLIBC_2.2.5                             /lib/x86_64-linux-gnu/libc.so.6
addseverity                                       /lib/x86_64-linux-gnu/libc.so.6
addseverity@@GLIBC_2.2.5                          /lib/x86_64-linux-gnu/libc.so.6
addseverity@GLIBC_2.2.5                           /lib/x86_64-linux-gnu/libc.so.6
adjtime                                           /lib/x86_64-linux-gnu/libc.so.6
adjtime@@GLIBC_2.2.5                              /lib/x86_64-linux-gnu/libc.so.6
adjtime@GLIBC_2.2.5                               /lib/x86_64-linux-gnu/libc.so.6
adjtimex                                          /lib/x86_64-linux-gnu/libc.so.6
adjtimex@@GLIBC_2.2.5                             /lib/x86_64-linux-gnu/libc.so.6
adjtimex@GLIBC_2.2.5                              /lib/x86_64-linux-gnu/libc.so.6
advance@GLIBC_2.2.5                               /lib/x86_64-linux-gnu/libc.so.6
aio_cancel64                                      /usr/lib/gcc/x86_64-linux-gnu/7/../../../x86_64-linux-gnu/librt.so
aio_cancel64@@GLIBC_2.2.5                         /usr/lib/gcc/x86_64-linux-gnu/7/../../../x86_64-linux-gnu/librt.so
aio_cancel64@GLIBC_2.2.5                          /usr/lib/gcc/x86_64-linux-gnu/7/../../../x86_64-linux-gnu/librt.so
aio_error64                                       /usr/lib/gcc/x86_64-linux-gnu/7/../../../x86_64-linux-gnu/librt.so
aio_error64@@GLIBC_2.2.5                          /usr/lib/gcc/x86_64-linux-gnu/7/../../../x86_64-linux-gnu/librt.so
aio_error64@GLIBC_2.2.5                           /usr/lib/gcc/x86_64-linux-gnu/7/../../../x86_64-linux-gnu/librt.so
aio_fsync64                                       /usr/lib/gcc/x86_64-linux-gnu/7/../../../x86_64-linux-gnu/librt.so
aio_fsync64@@GLIBC_2.2.5                          /usr/lib/gcc/x86_64-linux-gnu/7/../../../x86_64-linux-gnu/librt.so
aio_fsync64@GLIBC_2.2.5                           /usr/lib/gcc/x86_64-linux-gnu/7/../../../x86_64-linux-gnu/librt.so
aio_init                                          /usr/lib/gcc/x86_64-linux-gnu/7/../../../x86_64-linux-gnu/librt.so
aio_init@@GLIBC_2.2.5                             /usr/lib/gcc/x86_64-linux-gnu/7/../../../x86_64-linux-gnu/librt.so
aio_init@GLIBC_2.2.5                              /usr/lib/gcc/x86_64-linux-gnu/7/../../../x86_64-linux-gnu/librt.so
aio_read64                                        /usr/lib/gcc/x86_64-linux-gnu/7/../../../x86_64-linux-gnu/librt.so
aio_read64@@GLIBC_2.2.5                           /usr/lib/gcc/x86_64-linux-gnu/7/../../../x86_64-linux-gnu/librt.so
aio_read64@GLIBC_2.2.5                            /usr/lib/gcc/x86_64-linux-gnu/7/../../../x86_64-linux-gnu/librt.so
aio_return64                                      /usr/lib/gcc/x86_64-linux-gnu/7/../../../x86_64-linux-gnu/librt.so
aio_return64@@GLIBC_2.2.5                         /usr/lib/gcc/x86_64-linux-gnu/7/../../../x86_64-linux-gnu/librt.so
aio_return64@GLIBC_2.2.5                          /usr/lib/gcc/x86_64-linux-gnu/7/../../../x86_64-linux-gnu/librt.so
aio_suspend64                                     /usr/lib/gcc/x86_64-linux-gnu/7/../../../x86_64-linux-gnu/librt.so
aio_suspend64@@GLIBC_2.2.5                        /usr/lib/gcc/x86_64-linux-gnu/7/../../../x86_64-linux-gnu/librt.so
aio_suspend64@GLIBC_2.2.5                         /usr/lib/gcc/x86_64-linux-gnu/7/../../../x86_64-linux-gnu/librt.so
aio_write64                                       /usr/lib/gcc/x86_64-linux-gnu/7/../../../x86_64-linux-gnu/librt.so
aio_write64@@GLIBC_2.2.5                          /usr/lib/gcc/x86_64-linux-gnu/7/../../../x86_64-linux-gnu/librt.so
aio_write64@GLIBC_2.2.5                           /usr/lib/gcc/x86_64-linux-gnu/7/../../../x86_64-linux-gnu/librt.so
alchemy_clock                                     /usr/lib/libalchemy.so
                                                  ../../lib/libbtsystem.a(btos.o)
aligned_alloc                                     /lib/x86_64-linux-gnu/libc.so.6
aligned_alloc@@GLIBC_2.16                         /lib/x86_64-linux-gnu/libc.so.6
aligned_alloc@GLIBC_2.16                          /lib/x86_64-linux-gnu/libc.so.6
allowMessage                                      ../../lib/libbtsystem.a(btcan_peakesd.o)
alphasort64                                       /lib/x86_64-linux-gnu/libc.so.6
alphasort64@@GLIBC_2.2.5                          /lib/x86_64-linux-gnu/libc.so.6
alphasort64@GLIBC_2.2.5                           /lib/x86_64-linux-gnu/libc.so.6
angle_q                                           ../../lib/libbtsystem.a(btmath.o)
angle_vn                                          ../../lib/libbtsystem.a(btmath.o)
append_vr                                         ../../lib/libbtsystem.a(btmath.o)
                                                  ../../lib/libbtsystem.a(btpath.o)
application_usage                                 /usr/lib/libcobalt.so
application_version                               /usr/lib/libcobalt.so
apply_force_bot                                   ../../lib/libbtsystem.a(btrobot.o)
apply_tool_force_bot                              ../../lib/libbtsystem.a(btrobot.o)
                                                  ../../lib/libbtwam.a(btwam.o)
arch_prctl                                        /lib/x86_64-linux-gnu/libc.so.6
arch_prctl@@GLIBC_2.2.5                           /lib/x86_64-linux-gnu/libc.so.6
arch_prctl@GLIBC_2.2.5                            /lib/x86_64-linux-gnu/libc.so.6
arclength_pwl                                     ../../lib/libbtsystem.a(btpath.o)
                                                  ../../lib/libbtsystem.a(btstatecontrol.o)
                                                  ../../lib/libbtsystem.a(btcontrol.o)
arclength_vr                                      ../../lib/libbtsystem.a(btmath.o)
argp_error                                        /lib/x86_64-linux-gnu/libc.so.6
argp_error@@GLIBC_2.2.5                           /lib/x86_64-linux-gnu/libc.so.6
argp_error@GLIBC_2.2.5                            /lib/x86_64-linux-gnu/libc.so.6
argp_failure                                      /lib/x86_64-linux-gnu/libc.so.6
argp_failure@@GLIBC_2.2.5                         /lib/x86_64-linux-gnu/libc.so.6
argp_failure@GLIBC_2.2.5                          /lib/x86_64-linux-gnu/libc.so.6
argp_help                                         /lib/x86_64-linux-gnu/libc.so.6
argp_help@@GLIBC_2.2.5                            /lib/x86_64-linux-gnu/libc.so.6
argp_help@GLIBC_2.2.5                             /lib/x86_64-linux-gnu/libc.so.6
argp_parse                                        /lib/x86_64-linux-gnu/libc.so.6
argp_parse@@GLIBC_2.2.5                           /lib/x86_64-linux-gnu/libc.so.6
argp_parse@GLIBC_2.2.5                            /lib/x86_64-linux-gnu/libc.so.6
argp_state_help                                   /lib/x86_64-linux-gnu/libc.so.6
argp_state_help@@GLIBC_2.2.5                      /lib/x86_64-linux-gnu/libc.so.6
argp_state_help@GLIBC_2.2.5                       /lib/x86_64-linux-gnu/libc.so.6
argp_usage                                        /lib/x86_64-linux-gnu/libc.so.6
argp_usage@@GLIBC_2.2.5                           /lib/x86_64-linux-gnu/libc.so.6
argp_usage@GLIBC_2.2.5                            /lib/x86_64-linux-gnu/libc.so.6
argz_add                                          /lib/x86_64-linux-gnu/libc.so.6
argz_add@@GLIBC_2.2.5                             /lib/x86_64-linux-gnu/libc.so.6
argz_add@GLIBC_2.2.5                              /lib/x86_64-linux-gnu/libc.so.6
argz_add_sep                                      /lib/x86_64-linux-gnu/libc.so.6
argz_add_sep@@GLIBC_2.2.5                         /lib/x86_64-linux-gnu/libc.so.6
argz_add_sep@GLIBC_2.2.5                          /lib/x86_64-linux-gnu/libc.so.6
argz_append                                       /lib/x86_64-linux-gnu/libc.so.6
argz_append@@GLIBC_2.2.5                          /lib/x86_64-linux-gnu/libc.so.6
argz_append@GLIBC_2.2.5                           /lib/x86_64-linux-gnu/libc.so.6
argz_count                                        /lib/x86_64-linux-gnu/libc.so.6
argz_count@@GLIBC_2.2.5                           /lib/x86_64-linux-gnu/libc.so.6
argz_count@GLIBC_2.2.5                            /lib/x86_64-linux-gnu/libc.so.6
argz_create                                       /lib/x86_64-linux-gnu/libc.so.6
argz_create@@GLIBC_2.2.5                          /lib/x86_64-linux-gnu/libc.so.6
argz_create@GLIBC_2.2.5                           /lib/x86_64-linux-gnu/libc.so.6
argz_create_sep                                   /lib/x86_64-linux-gnu/libc.so.6
argz_create_sep@@GLIBC_2.2.5                      /lib/x86_64-linux-gnu/libc.so.6
argz_create_sep@GLIBC_2.2.5                       /lib/x86_64-linux-gnu/libc.so.6
argz_extract                                      /lib/x86_64-linux-gnu/libc.so.6
argz_extract@@GLIBC_2.2.5                         /lib/x86_64-linux-gnu/libc.so.6
argz_extract@GLIBC_2.2.5                          /lib/x86_64-linux-gnu/libc.so.6
argz_insert                                       /lib/x86_64-linux-gnu/libc.so.6
argz_insert@@GLIBC_2.2.5                          /lib/x86_64-linux-gnu/libc.so.6
argz_insert@GLIBC_2.2.5                           /lib/x86_64-linux-gnu/libc.so.6
argz_next                                         /lib/x86_64-linux-gnu/libc.so.6
argz_next@@GLIBC_2.2.5                            /lib/x86_64-linux-gnu/libc.so.6
argz_next@GLIBC_2.2.5                             /lib/x86_64-linux-gnu/libc.so.6
argz_replace                                      /lib/x86_64-linux-gnu/libc.so.6
argz_replace@@GLIBC_2.2.5                         /lib/x86_64-linux-gnu/libc.so.6
argz_replace@GLIBC_2.2.5                          /lib/x86_64-linux-gnu/libc.so.6
argz_stringify                                    /lib/x86_64-linux-gnu/libc.so.6
argz_stringify@@GLIBC_2.2.5                       /lib/x86_64-linux-gnu/libc.so.6
argz_stringify@GLIBC_2.2.5                        /lib/x86_64-linux-gnu/libc.so.6
asctime_r                                         /lib/x86_64-linux-gnu/libc.so.6
asctime_r@@GLIBC_2.2.5                            /lib/x86_64-linux-gnu/libc.so.6
asctime_r@GLIBC_2.2.5                             /lib/x86_64-linux-gnu/libc.so.6
asin                                              /lib/x86_64-linux-gnu/libm.so.6
asin@@GLIBC_2.2.5                                 /lib/x86_64-linux-gnu/libm.so.6
asin@GLIBC_2.2.5                                  /lib/x86_64-linux-gnu/libm.so.6
asinf                                             /lib/x86_64-linux-gnu/libm.so.6
asinf128                                          /lib/x86_64-linux-gnu/libm.so.6
asinf128@@GLIBC_2.26                              /lib/x86_64-linux-gnu/libm.so.6
asinf128@GLIBC_2.26                               /lib/x86_64-linux-gnu/libm.so.6
asinf32                                           /lib/x86_64-linux-gnu/libm.so.6
asinf32@@GLIBC_2.27                               /lib/x86_64-linux-gnu/libm.so.6
asinf32@GLIBC_2.27                                /lib/x86_64-linux-gnu/libm.so.6
asinf32x                                          /lib/x86_64-linux-gnu/libm.so.6
asinf32x@@GLIBC_2.27                              /lib/x86_64-linux-gnu/libm.so.6
asinf32x@GLIBC_2.27                               /lib/x86_64-linux-gnu/libm.so.6
asinf64                                           /lib/x86_64-linux-gnu/libm.so.6
asinf64@@GLIBC_2.27                               /lib/x86_64-linux-gnu/libm.so.6
asinf64@GLIBC_2.27                                /lib/x86_64-linux-gnu/libm.so.6
asinf64x                                          /lib/x86_64-linux-gnu/libm.so.6
asinf64x@@GLIBC_2.27                              /lib/x86_64-linux-gnu/libm.so.6
asinf64x@GLIBC_2.27                               /lib/x86_64-linux-gnu/libm.so.6
asinf@@GLIBC_2.2.5                                /lib/x86_64-linux-gnu/libm.so.6
asinf@GLIBC_2.2.5                                 /lib/x86_64-linux-gnu/libm.so.6
asinh                                             /lib/x86_64-linux-gnu/libm.so.6
asinh@@GLIBC_2.2.5                                /lib/x86_64-linux-gnu/libm.so.6
asinh@GLIBC_2.2.5                                 /lib/x86_64-linux-gnu/libm.so.6
asinhf                                            /lib/x86_64-linux-gnu/libm.so.6
asinhf128                                         /lib/x86_64-linux-gnu/libm.so.6
asinhf128@@GLIBC_2.26                             /lib/x86_64-linux-gnu/libm.so.6
asinhf128@GLIBC_2.26                              /lib/x86_64-linux-gnu/libm.so.6
asinhf32                                          /lib/x86_64-linux-gnu/libm.so.6
asinhf32@@GLIBC_2.27                              /lib/x86_64-linux-gnu/libm.so.6
asinhf32@GLIBC_2.27                               /lib/x86_64-linux-gnu/libm.so.6
asinhf32x                                         /lib/x86_64-linux-gnu/libm.so.6
asinhf32x@@GLIBC_2.27                             /lib/x86_64-linux-gnu/libm.so.6
asinhf32x@GLIBC_2.27                              /lib/x86_64-linux-gnu/libm.so.6
asinhf64                                          /lib/x86_64-linux-gnu/libm.so.6
asinhf64@@GLIBC_2.27                              /lib/x86_64-linux-gnu/libm.so.6
asinhf64@GLIBC_2.27                               /lib/x86_64-linux-gnu/libm.so.6
asinhf64x                                         /lib/x86_64-linux-gnu/libm.so.6
asinhf64x@@GLIBC_2.27                             /lib/x86_64-linux-gnu/libm.so.6
asinhf64x@GLIBC_2.27                              /lib/x86_64-linux-gnu/libm.so.6
asinhf@@GLIBC_2.2.5                               /lib/x86_64-linux-gnu/libm.so.6
asinhf@GLIBC_2.2.5                                /lib/x86_64-linux-gnu/libm.so.6
asinhl                                            /lib/x86_64-linux-gnu/libm.so.6
asinhl@@GLIBC_2.2.5                               /lib/x86_64-linux-gnu/libm.so.6
asinhl@GLIBC_2.2.5                                /lib/x86_64-linux-gnu/libm.so.6
asinl                                             /lib/x86_64-linux-gnu/libm.so.6
asinl@@GLIBC_2.2.5                                /lib/x86_64-linux-gnu/libm.so.6
asinl@GLIBC_2.2.5                                 /lib/x86_64-linux-gnu/libm.so.6
asprintf                                          /lib/x86_64-linux-gnu/libc.so.6
asprintf@@GLIBC_2.2.5                             /lib/x86_64-linux-gnu/libc.so.6
asprintf@GLIBC_2.2.5                              /lib/x86_64-linux-gnu/libc.so.6
assignLine                                        ../../lib/libbtsystem.a(btparser.o)
atan                                              /lib/x86_64-linux-gnu/libm.so.6
                                                  ../../lib/libbtsystem.a(btmath.o)
atan2                                             /lib/x86_64-linux-gnu/libm.so.6
                                                  ../../lib/libbtsystem.a(btmath.o)
atan2@@GLIBC_2.2.5                                /lib/x86_64-linux-gnu/libm.so.6
atan2@GLIBC_2.2.5                                 /lib/x86_64-linux-gnu/libm.so.6
atan2_bt                                          ../../lib/libbtsystem.a(btmath.o)
atan2f                                            /lib/x86_64-linux-gnu/libm.so.6
atan2f128                                         /lib/x86_64-linux-gnu/libm.so.6
atan2f128@@GLIBC_2.26                             /lib/x86_64-linux-gnu/libm.so.6
atan2f128@GLIBC_2.26                              /lib/x86_64-linux-gnu/libm.so.6
atan2f32                                          /lib/x86_64-linux-gnu/libm.so.6
atan2f32@@GLIBC_2.27                              /lib/x86_64-linux-gnu/libm.so.6
atan2f32@GLIBC_2.27                               /lib/x86_64-linux-gnu/libm.so.6
atan2f32x                                         /lib/x86_64-linux-gnu/libm.so.6
atan2f32x@@GLIBC_2.27                             /lib/x86_64-linux-gnu/libm.so.6
atan2f32x@GLIBC_2.27                              /lib/x86_64-linux-gnu/libm.so.6
atan2f64                                          /lib/x86_64-linux-gnu/libm.so.6
atan2f64@@GLIBC_2.27                              /lib/x86_64-linux-gnu/libm.so.6
atan2f64@GLIBC_2.27                               /lib/x86_64-linux-gnu/libm.so.6
atan2f64x                                         /lib/x86_64-linux-gnu/libm.so.6
atan2f64x@@GLIBC_2.27                             /lib/x86_64-linux-gnu/libm.so.6
atan2f64x@GLIBC_2.27                              /lib/x86_64-linux-gnu/libm.so.6
atan2f@@GLIBC_2.2.5                               /lib/x86_64-linux-gnu/libm.so.6
atan2f@GLIBC_2.2.5                                /lib/x86_64-linux-gnu/libm.so.6
atan2l                                            /lib/x86_64-linux-gnu/libm.so.6
atan2l@@GLIBC_2.2.5                               /lib/x86_64-linux-gnu/libm.so.6
atan2l@GLIBC_2.2.5                                /lib/x86_64-linux-gnu/libm.so.6
atan@@GLIBC_2.2.5                                 /lib/x86_64-linux-gnu/libm.so.6
atan@GLIBC_2.2.5                                  /lib/x86_64-linux-gnu/libm.so.6
atanf                                             /lib/x86_64-linux-gnu/libm.so.6
atanf128                                          /lib/x86_64-linux-gnu/libm.so.6
atanf128@@GLIBC_2.26                              /lib/x86_64-linux-gnu/libm.so.6
atanf128@GLIBC_2.26                               /lib/x86_64-linux-gnu/libm.so.6
atanf32                                           /lib/x86_64-linux-gnu/libm.so.6
atanf32@@GLIBC_2.27                               /lib/x86_64-linux-gnu/libm.so.6
atanf32@GLIBC_2.27                                /lib/x86_64-linux-gnu/libm.so.6
atanf32x                                          /lib/x86_64-linux-gnu/libm.so.6
atanf32x@@GLIBC_2.27                              /lib/x86_64-linux-gnu/libm.so.6
atanf32x@GLIBC_2.27                               /lib/x86_64-linux-gnu/libm.so.6
atanf64                                           /lib/x86_64-linux-gnu/libm.so.6
atanf64@@GLIBC_2.27                               /lib/x86_64-linux-gnu/libm.so.6
atanf64@GLIBC_2.27                                /lib/x86_64-linux-gnu/libm.so.6
atanf64x                                          /lib/x86_64-linux-gnu/libm.so.6
atanf64x@@GLIBC_2.27                              /lib/x86_64-linux-gnu/libm.so.6
atanf64x@GLIBC_2.27                               /lib/x86_64-linux-gnu/libm.so.6
atanf@@GLIBC_2.2.5                                /lib/x86_64-linux-gnu/libm.so.6
atanf@GLIBC_2.2.5                                 /lib/x86_64-linux-gnu/libm.so.6
atanh                                             /lib/x86_64-linux-gnu/libm.so.6
atanh@@GLIBC_2.2.5                                /lib/x86_64-linux-gnu/libm.so.6
atanh@GLIBC_2.2.5                                 /lib/x86_64-linux-gnu/libm.so.6
atanhf                                            /lib/x86_64-linux-gnu/libm.so.6
atanhf128                                         /lib/x86_64-linux-gnu/libm.so.6
atanhf128@@GLIBC_2.26                             /lib/x86_64-linux-gnu/libm.so.6
atanhf128@GLIBC_2.26                              /lib/x86_64-linux-gnu/libm.so.6
atanhf32                                          /lib/x86_64-linux-gnu/libm.so.6
atanhf32@@GLIBC_2.27                              /lib/x86_64-linux-gnu/libm.so.6
atanhf32@GLIBC_2.27                               /lib/x86_64-linux-gnu/libm.so.6
atanhf32x                                         /lib/x86_64-linux-gnu/libm.so.6
atanhf32x@@GLIBC_2.27                             /lib/x86_64-linux-gnu/libm.so.6
atanhf32x@GLIBC_2.27                              /lib/x86_64-linux-gnu/libm.so.6
atanhf64                                          /lib/x86_64-linux-gnu/libm.so.6
atanhf64@@GLIBC_2.27                              /lib/x86_64-linux-gnu/libm.so.6
atanhf64@GLIBC_2.27                               /lib/x86_64-linux-gnu/libm.so.6
atanhf64x                                         /lib/x86_64-linux-gnu/libm.so.6
atanhf64x@@GLIBC_2.27                             /lib/x86_64-linux-gnu/libm.so.6
atanhf64x@GLIBC_2.27                              /lib/x86_64-linux-gnu/libm.so.6
atanhf@@GLIBC_2.2.5                               /lib/x86_64-linux-gnu/libm.so.6
atanhf@GLIBC_2.2.5                                /lib/x86_64-linux-gnu/libm.so.6
atanhl                                            /lib/x86_64-linux-gnu/libm.so.6
atanhl@@GLIBC_2.2.5                               /lib/x86_64-linux-gnu/libm.so.6
atanhl@GLIBC_2.2.5                                /lib/x86_64-linux-gnu/libm.so.6
atanl                                             /lib/x86_64-linux-gnu/libm.so.6
atanl@@GLIBC_2.2.5                                /lib/x86_64-linux-gnu/libm.so.6
atanl@GLIBC_2.2.5                                 /lib/x86_64-linux-gnu/libm.so.6
axis_q                                            ../../lib/libbtsystem.a(btmath.o)
backtrace                                         /lib/x86_64-linux-gnu/libc.so.6
                                                  ../../lib/libbtwam.a(btwam.o)
backtrace@@GLIBC_2.2.5                            /lib/x86_64-linux-gnu/libc.so.6
backtrace@GLIBC_2.2.5                             /lib/x86_64-linux-gnu/libc.so.6
                                                  /usr/lib/libcobalt.so
backtrace_symbols                                 /lib/x86_64-linux-gnu/libc.so.6
backtrace_symbols@@GLIBC_2.2.5                    /lib/x86_64-linux-gnu/libc.so.6
backtrace_symbols@GLIBC_2.2.5                     /lib/x86_64-linux-gnu/libc.so.6
backtrace_symbols_fd                              /lib/x86_64-linux-gnu/libc.so.6
                                                  ../../lib/libbtwam.a(btwam.o)
backtrace_symbols_fd@@GLIBC_2.2.5                 /lib/x86_64-linux-gnu/libc.so.6
backtrace_symbols_fd@GLIBC_2.2.5                  /lib/x86_64-linux-gnu/libc.so.6
backtracearray                                    ../../lib/libbtsystem.a(btos.o)
backtracesize                                     ../../lib/libbtsystem.a(btos.o)
backtracestrings                                  ../../lib/libbtsystem.a(btos.o)
basename                                          /lib/x86_64-linux-gnu/libc.so.6
basename@@GLIBC_2.2.5                             /lib/x86_64-linux-gnu/libc.so.6
basename@GLIBC_2.2.5                              /lib/x86_64-linux-gnu/libc.so.6
                                                  /usr/lib/libcobalt.so
bcmp                                              /lib/x86_64-linux-gnu/libc.so.6
bcmp@@GLIBC_2.2.5                                 /lib/x86_64-linux-gnu/libc.so.6
bcmp@GLIBC_2.2.5                                  /lib/x86_64-linux-gnu/libc.so.6
bench_mh                                          ../../lib/libbtsystem.a(btmath.o)
bind                                              /lib/x86_64-linux-gnu/libc.so.6
bind@@GLIBC_2.2.5                                 /lib/x86_64-linux-gnu/libc.so.6
bind@GLIBC_2.2.5                                  /lib/x86_64-linux-gnu/libc.so.6
                                                  /usr/lib/libcobalt.so
bind_textdomain_codeset                           /lib/x86_64-linux-gnu/libc.so.6
bind_textdomain_codeset@@GLIBC_2.2.5              /lib/x86_64-linux-gnu/libc.so.6
bind_textdomain_codeset@GLIBC_2.2.5               /lib/x86_64-linux-gnu/libc.so.6
bindtextdomain                                    /lib/x86_64-linux-gnu/libc.so.6
bindtextdomain@@GLIBC_2.2.5                       /lib/x86_64-linux-gnu/libc.so.6
bindtextdomain@GLIBC_2.2.5                        /lib/x86_64-linux-gnu/libc.so.6
blend_pb                                          ../../lib/libbtsystem.a(btseg.o)
bound_vn                                          ../../lib/libbtsystem.a(btmath.o)
boundary_pb                                       ../../lib/libbtsystem.a(btseg.o)
brk                                               /lib/x86_64-linux-gnu/libc.so.6
brk@@GLIBC_2.2.5                                  /lib/x86_64-linux-gnu/libc.so.6
brk@GLIBC_2.2.5                                   /lib/x86_64-linux-gnu/libc.so.6
bsd_signal                                        /lib/x86_64-linux-gnu/libc.so.6
bsd_signal@@GLIBC_2.2.5                           /lib/x86_64-linux-gnu/libc.so.6
bsd_signal@GLIBC_2.2.5                            /lib/x86_64-linux-gnu/libc.so.6
btParseClose                                      ../../lib/libbtsystem.a(btparser.o)
btParseFile                                       ../../lib/libbtsystem.a(btparser.o)
btParseGetVal                                     ../../lib/libbtsystem.a(btparser.o)
btfree                                            ../../lib/libbtsystem.a(btos.o)
                                                  ../../lib/libbtsystem.a(btpath.o)
                                                  ../../lib/libbtsystem.a(btseg.o)
                                                  ../../lib/libbtsystem.a(btcontrol.o)
                                                  ../../lib/libbtsystem.a(btmath.o)
btmalloc                                          ../../lib/libbtsystem.a(btos.o)
                                                  ../../lib/libbtsystem.a(btpath.o)
                                                  ../../lib/libbtsystem.a(btseg.o)
                                                  ../../lib/libbtsystem.a(btcontrol.o)
                                                  ../../lib/libbtsystem.a(btmath.o)
                                                  ../../lib/libbtsystem.a(btrobot.o)
                                                  ../../lib/libbtsystem.a(btlogger.o)
                                                  ../../lib/libbtwam.a(btwam.o)
btmutex_init                                      ../../lib/libbtsystem.a(btos.o)
btmutex_lock                                      ../../lib/libbtsystem.a(btos.o)
btmutex_unlock                                    ../../lib/libbtsystem.a(btos.o)
btowc                                             /lib/x86_64-linux-gnu/libc.so.6
btowc@@GLIBC_2.2.5                                /lib/x86_64-linux-gnu/libc.so.6
btowc@GLIBC_2.2.5                                 /lib/x86_64-linux-gnu/libc.so.6
btparser_default                                  ../../lib/libbtsystem.a(btparser.o)
btposition_interface_eval_btPID                   ../../lib/libbtsystem.a(btcontrol.o)
btposition_interface_mapf_btPID                   ../../lib/libbtsystem.a(btcontrol.o)
                                                  ../../lib/libbtwam.a(btwam.o)
btposition_interface_pause_btPID                  ../../lib/libbtsystem.a(btcontrol.o)
btposition_interface_reset_btPID                  ../../lib/libbtsystem.a(btcontrol.o)
btptr_chk                                         ../../lib/libbtsystem.a(btos.o)
                                                  ../../lib/libbtsystem.a(btstatecontrol.o)
btptr_ok                                          ../../lib/libbtsystem.a(btos.o)
                                                  ../../lib/libbtsystem.a(btmath.o)
btptrs                                            ../../lib/libbtsystem.a(btmath.o)
btrt_get_time                                     ../../lib/libbtsystem.a(btos.o)
                                                  ../../lib/libbtwam.a(btwam.o)
btrt_mutex_create                                 ../../lib/libbtsystem.a(btos.o)
                                                  ../../lib/libbtwam.a(btwam.o)
btrt_mutex_init                                   ../../lib/libbtsystem.a(btos.o)
                                                  ../../lib/libbtsystem.a(btstatecontrol.o)
                                                  ../../lib/libbtsystem.a(btcontrol.o)
                                                  ../../lib/libbtsystem.a(btcan_peakesd.o)
btrt_mutex_lock                                   ../../lib/libbtsystem.a(btos.o)
                                                  ../../lib/libbtsystem.a(btstatecontrol.o)
                                                  ../../lib/libbtsystem.a(btcontrol.o)
                                                  ../../lib/libbtsystem.a(btcan_peakesd.o)
                                                  ../../lib/libbtwam.a(btwam.o)
btrt_mutex_unlock                                 ../../lib/libbtsystem.a(btos.o)
                                                  ../../lib/libbtsystem.a(btstatecontrol.o)
                                                  ../../lib/libbtsystem.a(btcontrol.o)
                                                  ../../lib/libbtsystem.a(btcan_peakesd.o)
                                                  ../../lib/libbtwam.a(btwam.o)
btrt_set_mode_hard                                ../../lib/libbtsystem.a(btos.o)
                                                  ../../lib/libbtsystem.a(btcan_peakesd.o)
                                                  ../../lib/libbtwam.a(btwam.o)
btrt_set_mode_soft                                ../../lib/libbtsystem.a(btos.o)
btrt_set_mode_warn                                ../../lib/libbtsystem.a(btos.o)
                                                  ../../lib/libbtwam.a(btwam.o)
btrt_task_wait_period                             ../../lib/libbtsystem.a(btos.o)
                                                  ../../lib/libbtwam.a(btwam.o)
btrt_thread_create                                ../../lib/libbtsystem.a(btos.o)
                                                  ../../lib/libbtwam.a(btwam.o)
                                                  main.o
btrt_thread_done                                  ../../lib/libbtsystem.a(btos.o)
                                                  ../../lib/libbtwam.a(btwam.o)
                                                  main.o
btrt_thread_exit                                  ../../lib/libbtsystem.a(btos.o)
                                                  ../../lib/libbtwam.a(btwam.o)
                                                  main.o
btrt_thread_join                                  ../../lib/libbtsystem.a(btos.o)
btrt_thread_stop                                  ../../lib/libbtsystem.a(btos.o)
btthread_create                                   ../../lib/libbtsystem.a(btos.o)
btthread_done                                     ../../lib/libbtsystem.a(btos.o)
btthread_exit                                     ../../lib/libbtsystem.a(btos.o)
btthread_stop                                     ../../lib/libbtsystem.a(btos.o)
bttrajectory_interface_eval_ct                    ../../lib/libbtsystem.a(btcontrol.o)
bttrajectory_interface_eval_vt                    ../../lib/libbtsystem.a(btcontrol.o)
bttrajectory_interface_getstate_ct                ../../lib/libbtsystem.a(btcontrol.o)
bttrajectory_interface_getstate_vt                ../../lib/libbtsystem.a(btcontrol.o)
bttrajectory_interface_mapf_ct                    ../../lib/libbtsystem.a(btcontrol.o)
bttrajectory_interface_reset_ct                   ../../lib/libbtsystem.a(btcontrol.o)
bttrajectory_interface_reset_vt                   ../../lib/libbtsystem.a(btcontrol.o)
bus_data_valid                                    ../../lib/libbtsystem.a(btsystem.o)
buses                                             ../../lib/libbtsystem.a(btsystem.o)
                                                  ../../lib/libbtwam.a(btwam.o)
bzero                                             /lib/x86_64-linux-gnu/libc.so.6
bzero@@GLIBC_2.2.5                                /lib/x86_64-linux-gnu/libc.so.6
bzero@GLIBC_2.2.5                                 /lib/x86_64-linux-gnu/libc.so.6
c32rtomb                                          /lib/x86_64-linux-gnu/libc.so.6
c32rtomb@@GLIBC_2.16                              /lib/x86_64-linux-gnu/libc.so.6
c32rtomb@GLIBC_2.16                               /lib/x86_64-linux-gnu/libc.so.6
cabs                                              /lib/x86_64-linux-gnu/libm.so.6
cabs@@GLIBC_2.2.5                                 /lib/x86_64-linux-gnu/libm.so.6
cabs@GLIBC_2.2.5                                  /lib/x86_64-linux-gnu/libm.so.6
cabsf                                             /lib/x86_64-linux-gnu/libm.so.6
cabsf128                                          /lib/x86_64-linux-gnu/libm.so.6
cabsf128@@GLIBC_2.26                              /lib/x86_64-linux-gnu/libm.so.6
cabsf128@GLIBC_2.26                               /lib/x86_64-linux-gnu/libm.so.6
cabsf32                                           /lib/x86_64-linux-gnu/libm.so.6
cabsf32@@GLIBC_2.27                               /lib/x86_64-linux-gnu/libm.so.6
cabsf32@GLIBC_2.27                                /lib/x86_64-linux-gnu/libm.so.6
cabsf32x                                          /lib/x86_64-linux-gnu/libm.so.6
cabsf32x@@GLIBC_2.27                              /lib/x86_64-linux-gnu/libm.so.6
cabsf32x@GLIBC_2.27                               /lib/x86_64-linux-gnu/libm.so.6
cabsf64                                           /lib/x86_64-linux-gnu/libm.so.6
cabsf64@@GLIBC_2.27                               /lib/x86_64-linux-gnu/libm.so.6
cabsf64@GLIBC_2.27                                /lib/x86_64-linux-gnu/libm.so.6
cabsf64x                                          /lib/x86_64-linux-gnu/libm.so.6
cabsf64x@@GLIBC_2.27                              /lib/x86_64-linux-gnu/libm.so.6
cabsf64x@GLIBC_2.27                               /lib/x86_64-linux-gnu/libm.so.6
cabsf@@GLIBC_2.2.5                                /lib/x86_64-linux-gnu/libm.so.6
cabsf@GLIBC_2.2.5                                 /lib/x86_64-linux-gnu/libm.so.6
cabsl                                             /lib/x86_64-linux-gnu/libm.so.6
cabsl@@GLIBC_2.2.5                                /lib/x86_64-linux-gnu/libm.so.6
cabsl@GLIBC_2.2.5                                 /lib/x86_64-linux-gnu/libm.so.6
cacos                                             /lib/x86_64-linux-gnu/libm.so.6
cacos@@GLIBC_2.2.5                                /lib/x86_64-linux-gnu/libm.so.6
cacos@GLIBC_2.2.5                                 /lib/x86_64-linux-gnu/libm.so.6
cacosf                                            /lib/x86_64-linux-gnu/libm.so.6
cacosf128                                         /lib/x86_64-linux-gnu/libm.so.6
cacosf128@@GLIBC_2.26                             /lib/x86_64-linux-gnu/libm.so.6
cacosf128@GLIBC_2.26                              /lib/x86_64-linux-gnu/libm.so.6
cacosf32                                          /lib/x86_64-linux-gnu/libm.so.6
cacosf32@@GLIBC_2.27                              /lib/x86_64-linux-gnu/libm.so.6
cacosf32@GLIBC_2.27                               /lib/x86_64-linux-gnu/libm.so.6
cacosf32x                                         /lib/x86_64-linux-gnu/libm.so.6
cacosf32x@@GLIBC_2.27                             /lib/x86_64-linux-gnu/libm.so.6
cacosf32x@GLIBC_2.27                              /lib/x86_64-linux-gnu/libm.so.6
cacosf64                                          /lib/x86_64-linux-gnu/libm.so.6
cacosf64@@GLIBC_2.27                              /lib/x86_64-linux-gnu/libm.so.6
cacosf64@GLIBC_2.27                               /lib/x86_64-linux-gnu/libm.so.6
cacosf64x                                         /lib/x86_64-linux-gnu/libm.so.6
cacosf64x@@GLIBC_2.27                             /lib/x86_64-linux-gnu/libm.so.6
cacosf64x@GLIBC_2.27                              /lib/x86_64-linux-gnu/libm.so.6
cacosf@@GLIBC_2.2.5                               /lib/x86_64-linux-gnu/libm.so.6
cacosf@GLIBC_2.2.5                                /lib/x86_64-linux-gnu/libm.so.6
cacosh                                            /lib/x86_64-linux-gnu/libm.so.6
cacosh@@GLIBC_2.2.5                               /lib/x86_64-linux-gnu/libm.so.6
cacosh@GLIBC_2.2.5                                /lib/x86_64-linux-gnu/libm.so.6
cacoshf                                           /lib/x86_64-linux-gnu/libm.so.6
cacoshf128                                        /lib/x86_64-linux-gnu/libm.so.6
cacoshf128@@GLIBC_2.26                            /lib/x86_64-linux-gnu/libm.so.6
cacoshf128@GLIBC_2.26                             /lib/x86_64-linux-gnu/libm.so.6
cacoshf32                                         /lib/x86_64-linux-gnu/libm.so.6
cacoshf32@@GLIBC_2.27                             /lib/x86_64-linux-gnu/libm.so.6
cacoshf32@GLIBC_2.27                              /lib/x86_64-linux-gnu/libm.so.6
cacoshf32x                                        /lib/x86_64-linux-gnu/libm.so.6
cacoshf32x@@GLIBC_2.27                            /lib/x86_64-linux-gnu/libm.so.6
cacoshf32x@GLIBC_2.27                             /lib/x86_64-linux-gnu/libm.so.6
cacoshf64                                         /lib/x86_64-linux-gnu/libm.so.6
cacoshf64@@GLIBC_2.27                             /lib/x86_64-linux-gnu/libm.so.6
cacoshf64@GLIBC_2.27                              /lib/x86_64-linux-gnu/libm.so.6
cacoshf64x                                        /lib/x86_64-linux-gnu/libm.so.6
cacoshf64x@@GLIBC_2.27                            /lib/x86_64-linux-gnu/libm.so.6
cacoshf64x@GLIBC_2.27                             /lib/x86_64-linux-gnu/libm.so.6
cacoshf@@GLIBC_2.2.5                              /lib/x86_64-linux-gnu/libm.so.6
cacoshf@GLIBC_2.2.5                               /lib/x86_64-linux-gnu/libm.so.6
cacoshl                                           /lib/x86_64-linux-gnu/libm.so.6
cacoshl@@GLIBC_2.2.5                              /lib/x86_64-linux-gnu/libm.so.6
cacoshl@GLIBC_2.2.5                               /lib/x86_64-linux-gnu/libm.so.6
cacosl                                            /lib/x86_64-linux-gnu/libm.so.6
cacosl@@GLIBC_2.2.5                               /lib/x86_64-linux-gnu/libm.so.6
cacosl@GLIBC_2.2.5                                /lib/x86_64-linux-gnu/libm.so.6
calloc                                            /lib/x86_64-linux-gnu/libc.so.6
calloc@@GLIBC_2.2.5                               /lib/x86_64-linux-gnu/libc.so.6
                                                  /lib/x86_64-linux-gnu/ld-linux-x86-64.so.2
calloc@GLIBC_2.2.5                                /lib/x86_64-linux-gnu/libc.so.6
                                                  /usr/lib/gcc/x86_64-linux-gnu/7/../../../x86_64-linux-gnu/librt.so
                                                  /lib/x86_64-linux-gnu/libpthread.so.0
                                                  /usr/lib/libcobalt.so
canClearMsg                                       ../../lib/libbtsystem.a(btcan_peakesd.o)
                                                  ../../lib/libbtwam.a(btwam.o)
canDev                                            ../../lib/libbtsystem.a(btcan_peakesd.o)
canReadMsg                                        ../../lib/libbtsystem.a(btcan_peakesd.o)
canSendMsg                                        ../../lib/libbtsystem.a(btcan_peakesd.o)
can_accept                                        ../../lib/libbtsystem.a(btcan_peakesd.o)
can_thd                                           main.o
can_thd_function                                  main.o
canonicalize                                      /lib/x86_64-linux-gnu/libm.so.6
canonicalize@@GLIBC_2.25                          /lib/x86_64-linux-gnu/libm.so.6
canonicalize@GLIBC_2.25                           /lib/x86_64-linux-gnu/libm.so.6
canonicalize_file_name                            /lib/x86_64-linux-gnu/libc.so.6
canonicalize_file_name@@GLIBC_2.2.5               /lib/x86_64-linux-gnu/libc.so.6
canonicalize_file_name@GLIBC_2.2.5                /lib/x86_64-linux-gnu/libc.so.6
canonicalizef                                     /lib/x86_64-linux-gnu/libm.so.6
canonicalizef128                                  /lib/x86_64-linux-gnu/libm.so.6
canonicalizef128@@GLIBC_2.26                      /lib/x86_64-linux-gnu/libm.so.6
canonicalizef128@GLIBC_2.26                       /lib/x86_64-linux-gnu/libm.so.6
canonicalizef32                                   /lib/x86_64-linux-gnu/libm.so.6
canonicalizef32@@GLIBC_2.27                       /lib/x86_64-linux-gnu/libm.so.6
canonicalizef32@GLIBC_2.27                        /lib/x86_64-linux-gnu/libm.so.6
canonicalizef32x                                  /lib/x86_64-linux-gnu/libm.so.6
canonicalizef32x@@GLIBC_2.27                      /lib/x86_64-linux-gnu/libm.so.6
canonicalizef32x@GLIBC_2.27                       /lib/x86_64-linux-gnu/libm.so.6
canonicalizef64                                   /lib/x86_64-linux-gnu/libm.so.6
canonicalizef64@@GLIBC_2.27                       /lib/x86_64-linux-gnu/libm.so.6
canonicalizef64@GLIBC_2.27                        /lib/x86_64-linux-gnu/libm.so.6
canonicalizef64x                                  /lib/x86_64-linux-gnu/libm.so.6
canonicalizef64x@@GLIBC_2.27                      /lib/x86_64-linux-gnu/libm.so.6
canonicalizef64x@GLIBC_2.27                       /lib/x86_64-linux-gnu/libm.so.6
canonicalizef@@GLIBC_2.25                         /lib/x86_64-linux-gnu/libm.so.6
canonicalizef@GLIBC_2.25                          /lib/x86_64-linux-gnu/libm.so.6
canonicalizel                                     /lib/x86_64-linux-gnu/libm.so.6
canonicalizel@@GLIBC_2.25                         /lib/x86_64-linux-gnu/libm.so.6
canonicalizel@GLIBC_2.25                          /lib/x86_64-linux-gnu/libm.so.6
carg                                              /lib/x86_64-linux-gnu/libm.so.6
carg@@GLIBC_2.2.5                                 /lib/x86_64-linux-gnu/libm.so.6
carg@GLIBC_2.2.5                                  /lib/x86_64-linux-gnu/libm.so.6
cargf                                             /lib/x86_64-linux-gnu/libm.so.6
cargf128                                          /lib/x86_64-linux-gnu/libm.so.6
cargf128@@GLIBC_2.26                              /lib/x86_64-linux-gnu/libm.so.6
cargf128@GLIBC_2.26                               /lib/x86_64-linux-gnu/libm.so.6
cargf32                                           /lib/x86_64-linux-gnu/libm.so.6
cargf32@@GLIBC_2.27                               /lib/x86_64-linux-gnu/libm.so.6
cargf32@GLIBC_2.27                                /lib/x86_64-linux-gnu/libm.so.6
cargf32x                                          /lib/x86_64-linux-gnu/libm.so.6
cargf32x@@GLIBC_2.27                              /lib/x86_64-linux-gnu/libm.so.6
cargf32x@GLIBC_2.27                               /lib/x86_64-linux-gnu/libm.so.6
cargf64                                           /lib/x86_64-linux-gnu/libm.so.6
cargf64@@GLIBC_2.27                               /lib/x86_64-linux-gnu/libm.so.6
cargf64@GLIBC_2.27                                /lib/x86_64-linux-gnu/libm.so.6
cargf64x                                          /lib/x86_64-linux-gnu/libm.so.6
cargf64x@@GLIBC_2.27                              /lib/x86_64-linux-gnu/libm.so.6
cargf64x@GLIBC_2.27                               /lib/x86_64-linux-gnu/libm.so.6
cargf@@GLIBC_2.2.5                                /lib/x86_64-linux-gnu/libm.so.6
cargf@GLIBC_2.2.5                                 /lib/x86_64-linux-gnu/libm.so.6
cargl                                             /lib/x86_64-linux-gnu/libm.so.6
cargl@@GLIBC_2.2.5                                /lib/x86_64-linux-gnu/libm.so.6
cargl@GLIBC_2.2.5                                 /lib/x86_64-linux-gnu/libm.so.6
casin                                             /lib/x86_64-linux-gnu/libm.so.6
casin@@GLIBC_2.2.5                                /lib/x86_64-linux-gnu/libm.so.6
casin@GLIBC_2.2.5                                 /lib/x86_64-linux-gnu/libm.so.6
casinf                                            /lib/x86_64-linux-gnu/libm.so.6
casinf128                                         /lib/x86_64-linux-gnu/libm.so.6
casinf128@@GLIBC_2.26                             /lib/x86_64-linux-gnu/libm.so.6
casinf128@GLIBC_2.26                              /lib/x86_64-linux-gnu/libm.so.6
casinf32                                          /lib/x86_64-linux-gnu/libm.so.6
casinf32@@GLIBC_2.27                              /lib/x86_64-linux-gnu/libm.so.6
casinf32@GLIBC_2.27                               /lib/x86_64-linux-gnu/libm.so.6
casinf32x                                         /lib/x86_64-linux-gnu/libm.so.6
casinf32x@@GLIBC_2.27                             /lib/x86_64-linux-gnu/libm.so.6
casinf32x@GLIBC_2.27                              /lib/x86_64-linux-gnu/libm.so.6
casinf64                                          /lib/x86_64-linux-gnu/libm.so.6
casinf64@@GLIBC_2.27                              /lib/x86_64-linux-gnu/libm.so.6
casinf64@GLIBC_2.27                               /lib/x86_64-linux-gnu/libm.so.6
casinf64x                                         /lib/x86_64-linux-gnu/libm.so.6
casinf64x@@GLIBC_2.27                             /lib/x86_64-linux-gnu/libm.so.6
casinf64x@GLIBC_2.27                              /lib/x86_64-linux-gnu/libm.so.6
casinf@@GLIBC_2.2.5                               /lib/x86_64-linux-gnu/libm.so.6
casinf@GLIBC_2.2.5                                /lib/x86_64-linux-gnu/libm.so.6
casinh                                            /lib/x86_64-linux-gnu/libm.so.6
casinh@@GLIBC_2.2.5                               /lib/x86_64-linux-gnu/libm.so.6
casinh@GLIBC_2.2.5                                /lib/x86_64-linux-gnu/libm.so.6
casinhf                                           /lib/x86_64-linux-gnu/libm.so.6
casinhf128                                        /lib/x86_64-linux-gnu/libm.so.6
casinhf128@@GLIBC_2.26                            /lib/x86_64-linux-gnu/libm.so.6
casinhf128@GLIBC_2.26                             /lib/x86_64-linux-gnu/libm.so.6
casinhf32                                         /lib/x86_64-linux-gnu/libm.so.6
casinhf32@@GLIBC_2.27                             /lib/x86_64-linux-gnu/libm.so.6
casinhf32@GLIBC_2.27                              /lib/x86_64-linux-gnu/libm.so.6
casinhf32x                                        /lib/x86_64-linux-gnu/libm.so.6
casinhf32x@@GLIBC_2.27                            /lib/x86_64-linux-gnu/libm.so.6
casinhf32x@GLIBC_2.27                             /lib/x86_64-linux-gnu/libm.so.6
casinhf64                                         /lib/x86_64-linux-gnu/libm.so.6
casinhf64@@GLIBC_2.27                             /lib/x86_64-linux-gnu/libm.so.6
casinhf64@GLIBC_2.27                              /lib/x86_64-linux-gnu/libm.so.6
casinhf64x                                        /lib/x86_64-linux-gnu/libm.so.6
casinhf64x@@GLIBC_2.27                            /lib/x86_64-linux-gnu/libm.so.6
casinhf64x@GLIBC_2.27                             /lib/x86_64-linux-gnu/libm.so.6
casinhf@@GLIBC_2.2.5                              /lib/x86_64-linux-gnu/libm.so.6
casinhf@GLIBC_2.2.5                               /lib/x86_64-linux-gnu/libm.so.6
casinhl                                           /lib/x86_64-linux-gnu/libm.so.6
casinhl@@GLIBC_2.2.5                              /lib/x86_64-linux-gnu/libm.so.6
casinhl@GLIBC_2.2.5                               /lib/x86_64-linux-gnu/libm.so.6
casinl                                            /lib/x86_64-linux-gnu/libm.so.6
casinl@@GLIBC_2.2.5                               /lib/x86_64-linux-gnu/libm.so.6
casinl@GLIBC_2.2.5                                /lib/x86_64-linux-gnu/libm.so.6
catan                                             /lib/x86_64-linux-gnu/libm.so.6
catan@@GLIBC_2.2.5                                /lib/x86_64-linux-gnu/libm.so.6
catan@GLIBC_2.2.5                                 /lib/x86_64-linux-gnu/libm.so.6
catanf                                            /lib/x86_64-linux-gnu/libm.so.6
catanf128                                         /lib/x86_64-linux-gnu/libm.so.6
catanf128@@GLIBC_2.26                             /lib/x86_64-linux-gnu/libm.so.6
catanf128@GLIBC_2.26                              /lib/x86_64-linux-gnu/libm.so.6
catanf32                                          /lib/x86_64-linux-gnu/libm.so.6
catanf32@@GLIBC_2.27                              /lib/x86_64-linux-gnu/libm.so.6
catanf32@GLIBC_2.27                               /lib/x86_64-linux-gnu/libm.so.6
catanf32x                                         /lib/x86_64-linux-gnu/libm.so.6
catanf32x@@GLIBC_2.27                             /lib/x86_64-linux-gnu/libm.so.6
catanf32x@GLIBC_2.27                              /lib/x86_64-linux-gnu/libm.so.6
catanf64                                          /lib/x86_64-linux-gnu/libm.so.6
catanf64@@GLIBC_2.27                              /lib/x86_64-linux-gnu/libm.so.6
catanf64@GLIBC_2.27                               /lib/x86_64-linux-gnu/libm.so.6
catanf64x                                         /lib/x86_64-linux-gnu/libm.so.6
catanf64x@@GLIBC_2.27                             /lib/x86_64-linux-gnu/libm.so.6
catanf64x@GLIBC_2.27                              /lib/x86_64-linux-gnu/libm.so.6
catanf@@GLIBC_2.2.5                               /lib/x86_64-linux-gnu/libm.so.6
catanf@GLIBC_2.2.5                                /lib/x86_64-linux-gnu/libm.so.6
catanh                                            /lib/x86_64-linux-gnu/libm.so.6
catanh@@GLIBC_2.2.5                               /lib/x86_64-linux-gnu/libm.so.6
catanh@GLIBC_2.2.5                                /lib/x86_64-linux-gnu/libm.so.6
catanhf                                           /lib/x86_64-linux-gnu/libm.so.6
catanhf128                                        /lib/x86_64-linux-gnu/libm.so.6
catanhf128@@GLIBC_2.26                            /lib/x86_64-linux-gnu/libm.so.6
catanhf128@GLIBC_2.26                             /lib/x86_64-linux-gnu/libm.so.6
catanhf32                                         /lib/x86_64-linux-gnu/libm.so.6
catanhf32@@GLIBC_2.27                             /lib/x86_64-linux-gnu/libm.so.6
catanhf32@GLIBC_2.27                              /lib/x86_64-linux-gnu/libm.so.6
catanhf32x                                        /lib/x86_64-linux-gnu/libm.so.6
catanhf32x@@GLIBC_2.27                            /lib/x86_64-linux-gnu/libm.so.6
catanhf32x@GLIBC_2.27                             /lib/x86_64-linux-gnu/libm.so.6
catanhf64                                         /lib/x86_64-linux-gnu/libm.so.6
catanhf64@@GLIBC_2.27                             /lib/x86_64-linux-gnu/libm.so.6
catanhf64@GLIBC_2.27                              /lib/x86_64-linux-gnu/libm.so.6
catanhf64x                                        /lib/x86_64-linux-gnu/libm.so.6
catanhf64x@@GLIBC_2.27                            /lib/x86_64-linux-gnu/libm.so.6
catanhf64x@GLIBC_2.27                             /lib/x86_64-linux-gnu/libm.so.6
catanhf@@GLIBC_2.2.5                              /lib/x86_64-linux-gnu/libm.so.6
catanhf@GLIBC_2.2.5                               /lib/x86_64-linux-gnu/libm.so.6
catanhl                                           /lib/x86_64-linux-gnu/libm.so.6
catanhl@@GLIBC_2.2.5                              /lib/x86_64-linux-gnu/libm.so.6
catanhl@GLIBC_2.2.5                               /lib/x86_64-linux-gnu/libm.so.6
catanl                                            /lib/x86_64-linux-gnu/libm.so.6
catanl@@GLIBC_2.2.5                               /lib/x86_64-linux-gnu/libm.so.6
catanl@GLIBC_2.2.5                                /lib/x86_64-linux-gnu/libm.so.6
cbrt                                              /lib/x86_64-linux-gnu/libm.so.6
cbrt@@GLIBC_2.2.5                                 /lib/x86_64-linux-gnu/libm.so.6
cbrt@GLIBC_2.2.5                                  /lib/x86_64-linux-gnu/libm.so.6
cbrtf                                             /lib/x86_64-linux-gnu/libm.so.6
cbrtf128                                          /lib/x86_64-linux-gnu/libm.so.6
cbrtf128@@GLIBC_2.26                              /lib/x86_64-linux-gnu/libm.so.6
cbrtf128@GLIBC_2.26                               /lib/x86_64-linux-gnu/libm.so.6
cbrtf32                                           /lib/x86_64-linux-gnu/libm.so.6
cbrtf32@@GLIBC_2.27                               /lib/x86_64-linux-gnu/libm.so.6
cbrtf32@GLIBC_2.27                                /lib/x86_64-linux-gnu/libm.so.6
cbrtf32x                                          /lib/x86_64-linux-gnu/libm.so.6
cbrtf32x@@GLIBC_2.27                              /lib/x86_64-linux-gnu/libm.so.6
cbrtf32x@GLIBC_2.27                               /lib/x86_64-linux-gnu/libm.so.6
cbrtf64                                           /lib/x86_64-linux-gnu/libm.so.6
cbrtf64@@GLIBC_2.27                               /lib/x86_64-linux-gnu/libm.so.6
cbrtf64@GLIBC_2.27                                /lib/x86_64-linux-gnu/libm.so.6
cbrtf64x                                          /lib/x86_64-linux-gnu/libm.so.6
cbrtf64x@@GLIBC_2.27                              /lib/x86_64-linux-gnu/libm.so.6
cbrtf64x@GLIBC_2.27                               /lib/x86_64-linux-gnu/libm.so.6
cbrtf@@GLIBC_2.2.5                                /lib/x86_64-linux-gnu/libm.so.6
cbrtf@GLIBC_2.2.5                                 /lib/x86_64-linux-gnu/libm.so.6
cbrtl                                             /lib/x86_64-linux-gnu/libm.so.6
cbrtl@@GLIBC_2.2.5                                /lib/x86_64-linux-gnu/libm.so.6
cbrtl@GLIBC_2.2.5                                 /lib/x86_64-linux-gnu/libm.so.6
ccos                                              /lib/x86_64-linux-gnu/libm.so.6
ccos@@GLIBC_2.2.5                                 /lib/x86_64-linux-gnu/libm.so.6
ccos@GLIBC_2.2.5                                  /lib/x86_64-linux-gnu/libm.so.6
ccosf                                             /lib/x86_64-linux-gnu/libm.so.6
ccosf128                                          /lib/x86_64-linux-gnu/libm.so.6
ccosf128@@GLIBC_2.26                              /lib/x86_64-linux-gnu/libm.so.6
ccosf128@GLIBC_2.26                               /lib/x86_64-linux-gnu/libm.so.6
ccosf32                                           /lib/x86_64-linux-gnu/libm.so.6
ccosf32@@GLIBC_2.27                               /lib/x86_64-linux-gnu/libm.so.6
ccosf32@GLIBC_2.27                                /lib/x86_64-linux-gnu/libm.so.6
ccosf32x                                          /lib/x86_64-linux-gnu/libm.so.6
ccosf32x@@GLIBC_2.27                              /lib/x86_64-linux-gnu/libm.so.6
ccosf32x@GLIBC_2.27                               /lib/x86_64-linux-gnu/libm.so.6
ccosf64                                           /lib/x86_64-linux-gnu/libm.so.6
ccosf64@@GLIBC_2.27                               /lib/x86_64-linux-gnu/libm.so.6
ccosf64@GLIBC_2.27                                /lib/x86_64-linux-gnu/libm.so.6
ccosf64x                                          /lib/x86_64-linux-gnu/libm.so.6
ccosf64x@@GLIBC_2.27                              /lib/x86_64-linux-gnu/libm.so.6
ccosf64x@GLIBC_2.27                               /lib/x86_64-linux-gnu/libm.so.6
ccosf@@GLIBC_2.2.5                                /lib/x86_64-linux-gnu/libm.so.6
ccosf@GLIBC_2.2.5                                 /lib/x86_64-linux-gnu/libm.so.6
ccosh                                             /lib/x86_64-linux-gnu/libm.so.6
ccosh@@GLIBC_2.2.5                                /lib/x86_64-linux-gnu/libm.so.6
ccosh@GLIBC_2.2.5                                 /lib/x86_64-linux-gnu/libm.so.6
ccoshf                                            /lib/x86_64-linux-gnu/libm.so.6
ccoshf128                                         /lib/x86_64-linux-gnu/libm.so.6
ccoshf128@@GLIBC_2.26                             /lib/x86_64-linux-gnu/libm.so.6
ccoshf128@GLIBC_2.26                              /lib/x86_64-linux-gnu/libm.so.6
ccoshf32                                          /lib/x86_64-linux-gnu/libm.so.6
ccoshf32@@GLIBC_2.27                              /lib/x86_64-linux-gnu/libm.so.6
ccoshf32@GLIBC_2.27                               /lib/x86_64-linux-gnu/libm.so.6
ccoshf32x                                         /lib/x86_64-linux-gnu/libm.so.6
ccoshf32x@@GLIBC_2.27                             /lib/x86_64-linux-gnu/libm.so.6
ccoshf32x@GLIBC_2.27                              /lib/x86_64-linux-gnu/libm.so.6
ccoshf64                                          /lib/x86_64-linux-gnu/libm.so.6
ccoshf64@@GLIBC_2.27                              /lib/x86_64-linux-gnu/libm.so.6
ccoshf64@GLIBC_2.27                               /lib/x86_64-linux-gnu/libm.so.6
ccoshf64x                                         /lib/x86_64-linux-gnu/libm.so.6
ccoshf64x@@GLIBC_2.27                             /lib/x86_64-linux-gnu/libm.so.6
ccoshf64x@GLIBC_2.27                              /lib/x86_64-linux-gnu/libm.so.6
ccoshf@@GLIBC_2.2.5                               /lib/x86_64-linux-gnu/libm.so.6
ccoshf@GLIBC_2.2.5                                /lib/x86_64-linux-gnu/libm.so.6
ccoshl                                            /lib/x86_64-linux-gnu/libm.so.6
ccoshl@@GLIBC_2.2.5                               /lib/x86_64-linux-gnu/libm.so.6
ccoshl@GLIBC_2.2.5                                /lib/x86_64-linux-gnu/libm.so.6
ccosl                                             /lib/x86_64-linux-gnu/libm.so.6
ccosl@@GLIBC_2.2.5                                /lib/x86_64-linux-gnu/libm.so.6
ccosl@GLIBC_2.2.5                                 /lib/x86_64-linux-gnu/libm.so.6
ceil                                              /lib/x86_64-linux-gnu/libm.so.6
ceil@@GLIBC_2.2.5                                 /lib/x86_64-linux-gnu/libm.so.6
ceil@GLIBC_2.2.5                                  /lib/x86_64-linux-gnu/libm.so.6
ceilf                                             /lib/x86_64-linux-gnu/libm.so.6
ceilf128                                          /lib/x86_64-linux-gnu/libm.so.6
ceilf128@@GLIBC_2.26                              /lib/x86_64-linux-gnu/libm.so.6
ceilf128@GLIBC_2.26                               /lib/x86_64-linux-gnu/libm.so.6
ceilf32                                           /lib/x86_64-linux-gnu/libm.so.6
ceilf32@@GLIBC_2.27                               /lib/x86_64-linux-gnu/libm.so.6
ceilf32@GLIBC_2.27                                /lib/x86_64-linux-gnu/libm.so.6
ceilf32x                                          /lib/x86_64-linux-gnu/libm.so.6
ceilf32x@@GLIBC_2.27                              /lib/x86_64-linux-gnu/libm.so.6
ceilf32x@GLIBC_2.27                               /lib/x86_64-linux-gnu/libm.so.6
ceilf64                                           /lib/x86_64-linux-gnu/libm.so.6
ceilf64@@GLIBC_2.27                               /lib/x86_64-linux-gnu/libm.so.6
ceilf64@GLIBC_2.27                                /lib/x86_64-linux-gnu/libm.so.6
ceilf64x                                          /lib/x86_64-linux-gnu/libm.so.6
ceilf64x@@GLIBC_2.27                              /lib/x86_64-linux-gnu/libm.so.6
ceilf64x@GLIBC_2.27                               /lib/x86_64-linux-gnu/libm.so.6
ceilf@@GLIBC_2.2.5                                /lib/x86_64-linux-gnu/libm.so.6
ceilf@GLIBC_2.2.5                                 /lib/x86_64-linux-gnu/libm.so.6
ceill                                             /lib/x86_64-linux-gnu/libm.so.6
ceill@@GLIBC_2.2.5                                /lib/x86_64-linux-gnu/libm.so.6
ceill@GLIBC_2.2.5                                 /lib/x86_64-linux-gnu/libm.so.6
cexp                                              /lib/x86_64-linux-gnu/libm.so.6
cexp@@GLIBC_2.2.5                                 /lib/x86_64-linux-gnu/libm.so.6
cexp@GLIBC_2.2.5                                  /lib/x86_64-linux-gnu/libm.so.6
cexpf                                             /lib/x86_64-linux-gnu/libm.so.6
cexpf128                                          /lib/x86_64-linux-gnu/libm.so.6
cexpf128@@GLIBC_2.26                              /lib/x86_64-linux-gnu/libm.so.6
cexpf128@GLIBC_2.26                               /lib/x86_64-linux-gnu/libm.so.6
cexpf32                                           /lib/x86_64-linux-gnu/libm.so.6
cexpf32@@GLIBC_2.27                               /lib/x86_64-linux-gnu/libm.so.6
cexpf32@GLIBC_2.27                                /lib/x86_64-linux-gnu/libm.so.6
cexpf32x                                          /lib/x86_64-linux-gnu/libm.so.6
cexpf32x@@GLIBC_2.27                              /lib/x86_64-linux-gnu/libm.so.6
cexpf32x@GLIBC_2.27                               /lib/x86_64-linux-gnu/libm.so.6
cexpf64                                           /lib/x86_64-linux-gnu/libm.so.6
cexpf64@@GLIBC_2.27                               /lib/x86_64-linux-gnu/libm.so.6
cexpf64@GLIBC_2.27                                /lib/x86_64-linux-gnu/libm.so.6
cexpf64x                                          /lib/x86_64-linux-gnu/libm.so.6
cexpf64x@@GLIBC_2.27                              /lib/x86_64-linux-gnu/libm.so.6
cexpf64x@GLIBC_2.27                               /lib/x86_64-linux-gnu/libm.so.6
cexpf@@GLIBC_2.2.5                                /lib/x86_64-linux-gnu/libm.so.6
cexpf@GLIBC_2.2.5                                 /lib/x86_64-linux-gnu/libm.so.6
cexpl                                             /lib/x86_64-linux-gnu/libm.so.6
cexpl@@GLIBC_2.2.5                                /lib/x86_64-linux-gnu/libm.so.6
cexpl@GLIBC_2.2.5                                 /lib/x86_64-linux-gnu/libm.so.6
chdir                                             /lib/x86_64-linux-gnu/libc.so.6
chdir@@GLIBC_2.2.5                                /lib/x86_64-linux-gnu/libc.so.6
chdir@GLIBC_2.2.5                                 /lib/x86_64-linux-gnu/libc.so.6
chmod                                             /lib/x86_64-linux-gnu/libc.so.6
chmod@@GLIBC_2.2.5                                /lib/x86_64-linux-gnu/libc.so.6
chmod@GLIBC_2.2.5                                 /lib/x86_64-linux-gnu/libc.so.6
chown                                             /lib/x86_64-linux-gnu/libc.so.6
chown@@GLIBC_2.2.5                                /lib/x86_64-linux-gnu/libc.so.6
chown@GLIBC_2.2.5                                 /lib/x86_64-linux-gnu/libc.so.6
cimag                                             /lib/x86_64-linux-gnu/libm.so.6
cimag@@GLIBC_2.2.5                                /lib/x86_64-linux-gnu/libm.so.6
cimag@GLIBC_2.2.5                                 /lib/x86_64-linux-gnu/libm.so.6
cimagf                                            /lib/x86_64-linux-gnu/libm.so.6
cimagf128                                         /lib/x86_64-linux-gnu/libm.so.6
cimagf128@@GLIBC_2.26                             /lib/x86_64-linux-gnu/libm.so.6
cimagf128@GLIBC_2.26                              /lib/x86_64-linux-gnu/libm.so.6
cimagf32                                          /lib/x86_64-linux-gnu/libm.so.6
cimagf32@@GLIBC_2.27                              /lib/x86_64-linux-gnu/libm.so.6
cimagf32@GLIBC_2.27                               /lib/x86_64-linux-gnu/libm.so.6
cimagf32x                                         /lib/x86_64-linux-gnu/libm.so.6
cimagf32x@@GLIBC_2.27                             /lib/x86_64-linux-gnu/libm.so.6
cimagf32x@GLIBC_2.27                              /lib/x86_64-linux-gnu/libm.so.6
cimagf64                                          /lib/x86_64-linux-gnu/libm.so.6
cimagf64@@GLIBC_2.27                              /lib/x86_64-linux-gnu/libm.so.6
cimagf64@GLIBC_2.27                               /lib/x86_64-linux-gnu/libm.so.6
cimagf64x                                         /lib/x86_64-linux-gnu/libm.so.6
cimagf64x@@GLIBC_2.27                             /lib/x86_64-linux-gnu/libm.so.6
cimagf64x@GLIBC_2.27                              /lib/x86_64-linux-gnu/libm.so.6
cimagf@@GLIBC_2.2.5                               /lib/x86_64-linux-gnu/libm.so.6
cimagf@GLIBC_2.2.5                                /lib/x86_64-linux-gnu/libm.so.6
cimagl                                            /lib/x86_64-linux-gnu/libm.so.6
cimagl@@GLIBC_2.2.5                               /lib/x86_64-linux-gnu/libm.so.6
cimagl@GLIBC_2.2.5                                /lib/x86_64-linux-gnu/libm.so.6
clear_pa                                          ../../lib/libbtsystem.a(btseg.o)
clear_pavn                                        ../../lib/libbtsystem.a(btseg.o)
clear_pwl                                         ../../lib/libbtsystem.a(btpath.o)
                                                  ../../lib/libbtsystem.a(btstatecontrol.o)
clear_vr                                          ../../lib/libbtsystem.a(btmath.o)
                                                  ../../lib/libbtsystem.a(btpath.o)
clearenv                                          /lib/x86_64-linux-gnu/libc.so.6
clearenv@@GLIBC_2.2.5                             /lib/x86_64-linux-gnu/libc.so.6
clearenv@GLIBC_2.2.5                              /lib/x86_64-linux-gnu/libc.so.6
clog                                              /lib/x86_64-linux-gnu/libm.so.6
clog10                                            /lib/x86_64-linux-gnu/libm.so.6
clog10@@GLIBC_2.2.5                               /lib/x86_64-linux-gnu/libm.so.6
clog10@GLIBC_2.2.5                                /lib/x86_64-linux-gnu/libm.so.6
clog10f                                           /lib/x86_64-linux-gnu/libm.so.6
clog10f128                                        /lib/x86_64-linux-gnu/libm.so.6
clog10f128@@GLIBC_2.26                            /lib/x86_64-linux-gnu/libm.so.6
clog10f128@GLIBC_2.26                             /lib/x86_64-linux-gnu/libm.so.6
clog10f32                                         /lib/x86_64-linux-gnu/libm.so.6
clog10f32@@GLIBC_2.27                             /lib/x86_64-linux-gnu/libm.so.6
clog10f32@GLIBC_2.27                              /lib/x86_64-linux-gnu/libm.so.6
clog10f32x                                        /lib/x86_64-linux-gnu/libm.so.6
clog10f32x@@GLIBC_2.27                            /lib/x86_64-linux-gnu/libm.so.6
clog10f32x@GLIBC_2.27                             /lib/x86_64-linux-gnu/libm.so.6
clog10f64                                         /lib/x86_64-linux-gnu/libm.so.6
clog10f64@@GLIBC_2.27                             /lib/x86_64-linux-gnu/libm.so.6
clog10f64@GLIBC_2.27                              /lib/x86_64-linux-gnu/libm.so.6
clog10f64x                                        /lib/x86_64-linux-gnu/libm.so.6
clog10f64x@@GLIBC_2.27                            /lib/x86_64-linux-gnu/libm.so.6
clog10f64x@GLIBC_2.27                             /lib/x86_64-linux-gnu/libm.so.6
clog10f@@GLIBC_2.2.5                              /lib/x86_64-linux-gnu/libm.so.6
clog10f@GLIBC_2.2.5                               /lib/x86_64-linux-gnu/libm.so.6
clog10l                                           /lib/x86_64-linux-gnu/libm.so.6
clog10l@@GLIBC_2.2.5                              /lib/x86_64-linux-gnu/libm.so.6
clog10l@GLIBC_2.2.5                               /lib/x86_64-linux-gnu/libm.so.6
clog@@GLIBC_2.2.5                                 /lib/x86_64-linux-gnu/libm.so.6
clog@GLIBC_2.2.5                                  /lib/x86_64-linux-gnu/libm.so.6
clogf                                             /lib/x86_64-linux-gnu/libm.so.6
clogf128                                          /lib/x86_64-linux-gnu/libm.so.6
clogf128@@GLIBC_2.26                              /lib/x86_64-linux-gnu/libm.so.6
clogf128@GLIBC_2.26                               /lib/x86_64-linux-gnu/libm.so.6
clogf32                                           /lib/x86_64-linux-gnu/libm.so.6
clogf32@@GLIBC_2.27                               /lib/x86_64-linux-gnu/libm.so.6
clogf32@GLIBC_2.27                                /lib/x86_64-linux-gnu/libm.so.6
clogf32x                                          /lib/x86_64-linux-gnu/libm.so.6
clogf32x@@GLIBC_2.27                              /lib/x86_64-linux-gnu/libm.so.6
clogf32x@GLIBC_2.27                               /lib/x86_64-linux-gnu/libm.so.6
clogf64                                           /lib/x86_64-linux-gnu/libm.so.6
clogf64@@GLIBC_2.27                               /lib/x86_64-linux-gnu/libm.so.6
clogf64@GLIBC_2.27                                /lib/x86_64-linux-gnu/libm.so.6
clogf64x                                          /lib/x86_64-linux-gnu/libm.so.6
clogf64x@@GLIBC_2.27                              /lib/x86_64-linux-gnu/libm.so.6
clogf64x@GLIBC_2.27                               /lib/x86_64-linux-gnu/libm.so.6
clogf@@GLIBC_2.2.5                                /lib/x86_64-linux-gnu/libm.so.6
clogf@GLIBC_2.2.5                                 /lib/x86_64-linux-gnu/libm.so.6
clogl                                             /lib/x86_64-linux-gnu/libm.so.6
clogl@@GLIBC_2.2.5                                /lib/x86_64-linux-gnu/libm.so.6
clogl@GLIBC_2.2.5                                 /lib/x86_64-linux-gnu/libm.so.6
clone                                             /lib/x86_64-linux-gnu/libc.so.6
clone@@GLIBC_2.2.5                                /lib/x86_64-linux-gnu/libc.so.6
clone@GLIBC_2.2.5                                 /lib/x86_64-linux-gnu/libc.so.6
close                                             /lib/x86_64-linux-gnu/libpthread.so.0
                                                  ../../lib/libbtwam.a(btwam.o)
close@@GLIBC_2.2.5                                /lib/x86_64-linux-gnu/libpthread.so.0
                                                  /lib/x86_64-linux-gnu/libc.so.6
close@GLIBC_2.2.5                                 /lib/x86_64-linux-gnu/libpthread.so.0
                                                  /usr/lib/libcobalt.so
closedir                                          /lib/x86_64-linux-gnu/libc.so.6
closedir@@GLIBC_2.2.5                             /lib/x86_64-linux-gnu/libc.so.6
closedir@GLIBC_2.2.5                              /lib/x86_64-linux-gnu/libc.so.6
commMutex                                         ../../lib/libbtsystem.a(btcan_peakesd.o)
compile                                           ../../lib/libbtsystem.a(btcan_peakesd.o)
conj                                              /lib/x86_64-linux-gnu/libm.so.6
conj@@GLIBC_2.2.5                                 /lib/x86_64-linux-gnu/libm.so.6
conj@GLIBC_2.2.5                                  /lib/x86_64-linux-gnu/libm.so.6
conj_q                                            ../../lib/libbtsystem.a(btmath.o)
conjf                                             /lib/x86_64-linux-gnu/libm.so.6
conjf128                                          /lib/x86_64-linux-gnu/libm.so.6
conjf128@@GLIBC_2.26                              /lib/x86_64-linux-gnu/libm.so.6
conjf128@GLIBC_2.26                               /lib/x86_64-linux-gnu/libm.so.6
conjf32                                           /lib/x86_64-linux-gnu/libm.so.6
conjf32@@GLIBC_2.27                               /lib/x86_64-linux-gnu/libm.so.6
conjf32@GLIBC_2.27                                /lib/x86_64-linux-gnu/libm.so.6
conjf32x                                          /lib/x86_64-linux-gnu/libm.so.6
conjf32x@@GLIBC_2.27                              /lib/x86_64-linux-gnu/libm.so.6
conjf32x@GLIBC_2.27                               /lib/x86_64-linux-gnu/libm.so.6
conjf64                                           /lib/x86_64-linux-gnu/libm.so.6
conjf64@@GLIBC_2.27                               /lib/x86_64-linux-gnu/libm.so.6
conjf64@GLIBC_2.27                                /lib/x86_64-linux-gnu/libm.so.6
conjf64x                                          /lib/x86_64-linux-gnu/libm.so.6
conjf64x@@GLIBC_2.27                              /lib/x86_64-linux-gnu/libm.so.6
conjf64x@GLIBC_2.27                               /lib/x86_64-linux-gnu/libm.so.6
conjf@@GLIBC_2.2.5                                /lib/x86_64-linux-gnu/libm.so.6
conjf@GLIBC_2.2.5                                 /lib/x86_64-linux-gnu/libm.so.6
conjl                                             /lib/x86_64-linux-gnu/libm.so.6
conjl@@GLIBC_2.2.5                                /lib/x86_64-linux-gnu/libm.so.6
conjl@GLIBC_2.2.5                                 /lib/x86_64-linux-gnu/libm.so.6
connect                                           /lib/x86_64-linux-gnu/libpthread.so.0
connect@@GLIBC_2.2.5                              /lib/x86_64-linux-gnu/libpthread.so.0
                                                  /lib/x86_64-linux-gnu/libc.so.6
connect@GLIBC_2.2.5                               /lib/x86_64-linux-gnu/libpthread.so.0
                                                  /usr/lib/libcobalt.so
const_q                                           ../../lib/libbtsystem.a(btmath.o)
const_v3                                          ../../lib/libbtsystem.a(btmath.o)
                                                  ../../lib/libbtsystem.a(btrobot.o)
const_vn                                          ../../lib/libbtsystem.a(btmath.o)
                                                  ../../lib/libbtwam.a(btwam.o)
                                                  main.o
copy_sub_vr                                       ../../lib/libbtsystem.a(btmath.o)
copysign                                          /lib/x86_64-linux-gnu/libm.so.6
copysign@@GLIBC_2.2.5                             /lib/x86_64-linux-gnu/libm.so.6
                                                  /lib/x86_64-linux-gnu/libc.so.6
copysign@GLIBC_2.2.5                              /lib/x86_64-linux-gnu/libm.so.6
copysignf                                         /lib/x86_64-linux-gnu/libm.so.6
copysignf128                                      /lib/x86_64-linux-gnu/libm.so.6
copysignf128@@GLIBC_2.26                          /lib/x86_64-linux-gnu/libm.so.6
copysignf128@GLIBC_2.26                           /lib/x86_64-linux-gnu/libm.so.6
copysignf32                                       /lib/x86_64-linux-gnu/libm.so.6
copysignf32@@GLIBC_2.27                           /lib/x86_64-linux-gnu/libm.so.6
copysignf32@GLIBC_2.27                            /lib/x86_64-linux-gnu/libm.so.6
copysignf32x                                      /lib/x86_64-linux-gnu/libm.so.6
copysignf32x@@GLIBC_2.27                          /lib/x86_64-linux-gnu/libm.so.6
copysignf32x@GLIBC_2.27                           /lib/x86_64-linux-gnu/libm.so.6
copysignf64                                       /lib/x86_64-linux-gnu/libm.so.6
copysignf64@@GLIBC_2.27                           /lib/x86_64-linux-gnu/libm.so.6
copysignf64@GLIBC_2.27                            /lib/x86_64-linux-gnu/libm.so.6
copysignf64x                                      /lib/x86_64-linux-gnu/libm.so.6
copysignf64x@@GLIBC_2.27                          /lib/x86_64-linux-gnu/libm.so.6
copysignf64x@GLIBC_2.27                           /lib/x86_64-linux-gnu/libm.so.6
copysignf@@GLIBC_2.2.5                            /lib/x86_64-linux-gnu/libm.so.6
                                                  /lib/x86_64-linux-gnu/libc.so.6
copysignf@GLIBC_2.2.5                             /lib/x86_64-linux-gnu/libm.so.6
copysignl                                         /lib/x86_64-linux-gnu/libm.so.6
copysignl@@GLIBC_2.2.5                            /lib/x86_64-linux-gnu/libm.so.6
                                                  /lib/x86_64-linux-gnu/libc.so.6
copysignl@GLIBC_2.2.5                             /lib/x86_64-linux-gnu/libm.so.6
cos                                               /lib/x86_64-linux-gnu/libm.so.6
                                                  ../../lib/libbtsystem.a(btmath.o)
                                                  ../../lib/libbtsystem.a(btrobot.o)
cos@@GLIBC_2.2.5                                  /lib/x86_64-linux-gnu/libm.so.6
cos@GLIBC_2.2.5                                   /lib/x86_64-linux-gnu/libm.so.6
cosf                                              /lib/x86_64-linux-gnu/libm.so.6
cosf128                                           /lib/x86_64-linux-gnu/libm.so.6
cosf128@@GLIBC_2.26                               /lib/x86_64-linux-gnu/libm.so.6
cosf128@GLIBC_2.26                                /lib/x86_64-linux-gnu/libm.so.6
cosf32                                            /lib/x86_64-linux-gnu/libm.so.6
cosf32@@GLIBC_2.27                                /lib/x86_64-linux-gnu/libm.so.6
cosf32@GLIBC_2.27                                 /lib/x86_64-linux-gnu/libm.so.6
cosf32x                                           /lib/x86_64-linux-gnu/libm.so.6
cosf32x@@GLIBC_2.27                               /lib/x86_64-linux-gnu/libm.so.6
cosf32x@GLIBC_2.27                                /lib/x86_64-linux-gnu/libm.so.6
cosf64                                            /lib/x86_64-linux-gnu/libm.so.6
cosf64@@GLIBC_2.27                                /lib/x86_64-linux-gnu/libm.so.6
cosf64@GLIBC_2.27                                 /lib/x86_64-linux-gnu/libm.so.6
cosf64x                                           /lib/x86_64-linux-gnu/libm.so.6
cosf64x@@GLIBC_2.27                               /lib/x86_64-linux-gnu/libm.so.6
cosf64x@GLIBC_2.27                                /lib/x86_64-linux-gnu/libm.so.6
cosf@@GLIBC_2.2.5                                 /lib/x86_64-linux-gnu/libm.so.6
cosf@GLIBC_2.2.5                                  /lib/x86_64-linux-gnu/libm.so.6
cosh                                              /lib/x86_64-linux-gnu/libm.so.6
cosh@@GLIBC_2.2.5                                 /lib/x86_64-linux-gnu/libm.so.6
cosh@GLIBC_2.2.5                                  /lib/x86_64-linux-gnu/libm.so.6
coshf                                             /lib/x86_64-linux-gnu/libm.so.6
coshf128                                          /lib/x86_64-linux-gnu/libm.so.6
coshf128@@GLIBC_2.26                              /lib/x86_64-linux-gnu/libm.so.6
coshf128@GLIBC_2.26                               /lib/x86_64-linux-gnu/libm.so.6
coshf32                                           /lib/x86_64-linux-gnu/libm.so.6
coshf32@@GLIBC_2.27                               /lib/x86_64-linux-gnu/libm.so.6
coshf32@GLIBC_2.27                                /lib/x86_64-linux-gnu/libm.so.6
coshf32x                                          /lib/x86_64-linux-gnu/libm.so.6
coshf32x@@GLIBC_2.27                              /lib/x86_64-linux-gnu/libm.so.6
coshf32x@GLIBC_2.27                               /lib/x86_64-linux-gnu/libm.so.6
coshf64                                           /lib/x86_64-linux-gnu/libm.so.6
coshf64@@GLIBC_2.27                               /lib/x86_64-linux-gnu/libm.so.6
coshf64@GLIBC_2.27                                /lib/x86_64-linux-gnu/libm.so.6
coshf64x                                          /lib/x86_64-linux-gnu/libm.so.6
coshf64x@@GLIBC_2.27                              /lib/x86_64-linux-gnu/libm.so.6
coshf64x@GLIBC_2.27                               /lib/x86_64-linux-gnu/libm.so.6
coshf@@GLIBC_2.2.5                                /lib/x86_64-linux-gnu/libm.so.6
coshf@GLIBC_2.2.5                                 /lib/x86_64-linux-gnu/libm.so.6
coshl                                             /lib/x86_64-linux-gnu/libm.so.6
coshl@@GLIBC_2.2.5                                /lib/x86_64-linux-gnu/libm.so.6
coshl@GLIBC_2.2.5                                 /lib/x86_64-linux-gnu/libm.so.6
cosl                                              /lib/x86_64-linux-gnu/libm.so.6
cosl@@GLIBC_2.2.5                                 /lib/x86_64-linux-gnu/libm.so.6
cosl@GLIBC_2.2.5                                  /lib/x86_64-linux-gnu/libm.so.6
cpow                                              /lib/x86_64-linux-gnu/libm.so.6
cpow@@GLIBC_2.2.5                                 /lib/x86_64-linux-gnu/libm.so.6
cpow@GLIBC_2.2.5                                  /lib/x86_64-linux-gnu/libm.so.6
cpowf                                             /lib/x86_64-linux-gnu/libm.so.6
cpowf128                                          /lib/x86_64-linux-gnu/libm.so.6
cpowf128@@GLIBC_2.26                              /lib/x86_64-linux-gnu/libm.so.6
cpowf128@GLIBC_2.26                               /lib/x86_64-linux-gnu/libm.so.6
cpowf32                                           /lib/x86_64-linux-gnu/libm.so.6
cpowf32@@GLIBC_2.27                               /lib/x86_64-linux-gnu/libm.so.6
cpowf32@GLIBC_2.27                                /lib/x86_64-linux-gnu/libm.so.6
cpowf32x                                          /lib/x86_64-linux-gnu/libm.so.6
cpowf32x@@GLIBC_2.27                              /lib/x86_64-linux-gnu/libm.so.6
cpowf32x@GLIBC_2.27                               /lib/x86_64-linux-gnu/libm.so.6
cpowf64                                           /lib/x86_64-linux-gnu/libm.so.6
cpowf64@@GLIBC_2.27                               /lib/x86_64-linux-gnu/libm.so.6
cpowf64@GLIBC_2.27                                /lib/x86_64-linux-gnu/libm.so.6
cpowf64x                                          /lib/x86_64-linux-gnu/libm.so.6
cpowf64x@@GLIBC_2.27                              /lib/x86_64-linux-gnu/libm.so.6
cpowf64x@GLIBC_2.27                               /lib/x86_64-linux-gnu/libm.so.6
cpowf@@GLIBC_2.2.5                                /lib/x86_64-linux-gnu/libm.so.6
cpowf@GLIBC_2.2.5                                 /lib/x86_64-linux-gnu/libm.so.6
cpowl                                             /lib/x86_64-linux-gnu/libm.so.6
cpowl@@GLIBC_2.2.5                                /lib/x86_64-linux-gnu/libm.so.6
cpowl@GLIBC_2.2.5                                 /lib/x86_64-linux-gnu/libm.so.6
cproj                                             /lib/x86_64-linux-gnu/libm.so.6
cproj@@GLIBC_2.2.5                                /lib/x86_64-linux-gnu/libm.so.6
cproj@GLIBC_2.2.5                                 /lib/x86_64-linux-gnu/libm.so.6
cprojf                                            /lib/x86_64-linux-gnu/libm.so.6
cprojf128                                         /lib/x86_64-linux-gnu/libm.so.6
cprojf128@@GLIBC_2.26                             /lib/x86_64-linux-gnu/libm.so.6
cprojf128@GLIBC_2.26                              /lib/x86_64-linux-gnu/libm.so.6
cprojf32                                          /lib/x86_64-linux-gnu/libm.so.6
cprojf32@@GLIBC_2.27                              /lib/x86_64-linux-gnu/libm.so.6
cprojf32@GLIBC_2.27                               /lib/x86_64-linux-gnu/libm.so.6
cprojf32x                                         /lib/x86_64-linux-gnu/libm.so.6
cprojf32x@@GLIBC_2.27                             /lib/x86_64-linux-gnu/libm.so.6
cprojf32x@GLIBC_2.27                              /lib/x86_64-linux-gnu/libm.so.6
cprojf64                                          /lib/x86_64-linux-gnu/libm.so.6
cprojf64@@GLIBC_2.27                              /lib/x86_64-linux-gnu/libm.so.6
cprojf64@GLIBC_2.27                               /lib/x86_64-linux-gnu/libm.so.6
cprojf64x                                         /lib/x86_64-linux-gnu/libm.so.6
cprojf64x@@GLIBC_2.27                             /lib/x86_64-linux-gnu/libm.so.6
cprojf64x@GLIBC_2.27                              /lib/x86_64-linux-gnu/libm.so.6
cprojf@@GLIBC_2.2.5                               /lib/x86_64-linux-gnu/libm.so.6
cprojf@GLIBC_2.2.5                                /lib/x86_64-linux-gnu/libm.so.6
cprojl                                            /lib/x86_64-linux-gnu/libm.so.6
cprojl@@GLIBC_2.2.5                               /lib/x86_64-linux-gnu/libm.so.6
cprojl@GLIBC_2.2.5                                /lib/x86_64-linux-gnu/libm.so.6
creal                                             /lib/x86_64-linux-gnu/libm.so.6
creal@@GLIBC_2.2.5                                /lib/x86_64-linux-gnu/libm.so.6
creal@GLIBC_2.2.5                                 /lib/x86_64-linux-gnu/libm.so.6
crealf                                            /lib/x86_64-linux-gnu/libm.so.6
crealf128                                         /lib/x86_64-linux-gnu/libm.so.6
crealf128@@GLIBC_2.26                             /lib/x86_64-linux-gnu/libm.so.6
crealf128@GLIBC_2.26                              /lib/x86_64-linux-gnu/libm.so.6
crealf32                                          /lib/x86_64-linux-gnu/libm.so.6
crealf32@@GLIBC_2.27                              /lib/x86_64-linux-gnu/libm.so.6
crealf32@GLIBC_2.27                               /lib/x86_64-linux-gnu/libm.so.6
crealf32x                                         /lib/x86_64-linux-gnu/libm.so.6
crealf32x@@GLIBC_2.27                             /lib/x86_64-linux-gnu/libm.so.6
crealf32x@GLIBC_2.27                              /lib/x86_64-linux-gnu/libm.so.6
crealf64                                          /lib/x86_64-linux-gnu/libm.so.6
crealf64@@GLIBC_2.27                              /lib/x86_64-linux-gnu/libm.so.6
crealf64@GLIBC_2.27                               /lib/x86_64-linux-gnu/libm.so.6
crealf64x                                         /lib/x86_64-linux-gnu/libm.so.6
crealf64x@@GLIBC_2.27                             /lib/x86_64-linux-gnu/libm.so.6
crealf64x@GLIBC_2.27                              /lib/x86_64-linux-gnu/libm.so.6
crealf@@GLIBC_2.2.5                               /lib/x86_64-linux-gnu/libm.so.6
crealf@GLIBC_2.2.5                                /lib/x86_64-linux-gnu/libm.so.6
creall                                            /lib/x86_64-linux-gnu/libm.so.6
creall@@GLIBC_2.2.5                               /lib/x86_64-linux-gnu/libm.so.6
creall@GLIBC_2.2.5                                /lib/x86_64-linux-gnu/libm.so.6
creat                                             /lib/x86_64-linux-gnu/libc.so.6
creat64                                           /lib/x86_64-linux-gnu/libc.so.6
creat64@@GLIBC_2.2.5                              /lib/x86_64-linux-gnu/libc.so.6
creat64@GLIBC_2.2.5                               /lib/x86_64-linux-gnu/libc.so.6
creat@@GLIBC_2.2.5                                /lib/x86_64-linux-gnu/libc.so.6
creat@GLIBC_2.2.5                                 /lib/x86_64-linux-gnu/libc.so.6
create_ct                                         ../../lib/libbtsystem.a(btcontrol.o)
cross_v3                                          ../../lib/libbtsystem.a(btmath.o)
                                                  ../../lib/libbtsystem.a(btrobot.o)
                                                  ../../lib/libbtwam.a(btwam.o)
csin                                              /lib/x86_64-linux-gnu/libm.so.6
csin@@GLIBC_2.2.5                                 /lib/x86_64-linux-gnu/libm.so.6
csin@GLIBC_2.2.5                                  /lib/x86_64-linux-gnu/libm.so.6
csinf                                             /lib/x86_64-linux-gnu/libm.so.6
csinf128                                          /lib/x86_64-linux-gnu/libm.so.6
csinf128@@GLIBC_2.26                              /lib/x86_64-linux-gnu/libm.so.6
csinf128@GLIBC_2.26                               /lib/x86_64-linux-gnu/libm.so.6
csinf32                                           /lib/x86_64-linux-gnu/libm.so.6
csinf32@@GLIBC_2.27                               /lib/x86_64-linux-gnu/libm.so.6
csinf32@GLIBC_2.27                                /lib/x86_64-linux-gnu/libm.so.6
csinf32x                                          /lib/x86_64-linux-gnu/libm.so.6
csinf32x@@GLIBC_2.27                              /lib/x86_64-linux-gnu/libm.so.6
csinf32x@GLIBC_2.27                               /lib/x86_64-linux-gnu/libm.so.6
csinf64                                           /lib/x86_64-linux-gnu/libm.so.6
csinf64@@GLIBC_2.27                               /lib/x86_64-linux-gnu/libm.so.6
csinf64@GLIBC_2.27                                /lib/x86_64-linux-gnu/libm.so.6
csinf64x                                          /lib/x86_64-linux-gnu/libm.so.6
csinf64x@@GLIBC_2.27                              /lib/x86_64-linux-gnu/libm.so.6
csinf64x@GLIBC_2.27                               /lib/x86_64-linux-gnu/libm.so.6
csinf@@GLIBC_2.2.5                                /lib/x86_64-linux-gnu/libm.so.6
csinf@GLIBC_2.2.5                                 /lib/x86_64-linux-gnu/libm.so.6
csinh                                             /lib/x86_64-linux-gnu/libm.so.6
csinh@@GLIBC_2.2.5                                /lib/x86_64-linux-gnu/libm.so.6
csinh@GLIBC_2.2.5                                 /lib/x86_64-linux-gnu/libm.so.6
csinhf                                            /lib/x86_64-linux-gnu/libm.so.6
csinhf128                                         /lib/x86_64-linux-gnu/libm.so.6
csinhf128@@GLIBC_2.26                             /lib/x86_64-linux-gnu/libm.so.6
csinhf128@GLIBC_2.26                              /lib/x86_64-linux-gnu/libm.so.6
csinhf32                                          /lib/x86_64-linux-gnu/libm.so.6
csinhf32@@GLIBC_2.27                              /lib/x86_64-linux-gnu/libm.so.6
csinhf32@GLIBC_2.27                               /lib/x86_64-linux-gnu/libm.so.6
csinhf32x                                         /lib/x86_64-linux-gnu/libm.so.6
csinhf32x@@GLIBC_2.27                             /lib/x86_64-linux-gnu/libm.so.6
csinhf32x@GLIBC_2.27                              /lib/x86_64-linux-gnu/libm.so.6
csinhf64                                          /lib/x86_64-linux-gnu/libm.so.6
csinhf64@@GLIBC_2.27                              /lib/x86_64-linux-gnu/libm.so.6
csinhf64@GLIBC_2.27                               /lib/x86_64-linux-gnu/libm.so.6
csinhf64x                                         /lib/x86_64-linux-gnu/libm.so.6
csinhf64x@@GLIBC_2.27                             /lib/x86_64-linux-gnu/libm.so.6
csinhf64x@GLIBC_2.27                              /lib/x86_64-linux-gnu/libm.so.6
csinhf@@GLIBC_2.2.5                               /lib/x86_64-linux-gnu/libm.so.6
csinhf@GLIBC_2.2.5                                /lib/x86_64-linux-gnu/libm.so.6
csinhl                                            /lib/x86_64-linux-gnu/libm.so.6
csinhl@@GLIBC_2.2.5                               /lib/x86_64-linux-gnu/libm.so.6
csinhl@GLIBC_2.2.5                                /lib/x86_64-linux-gnu/libm.so.6
csinl                                             /lib/x86_64-linux-gnu/libm.so.6
csinl@@GLIBC_2.2.5                                /lib/x86_64-linux-gnu/libm.so.6
csinl@GLIBC_2.2.5                                 /lib/x86_64-linux-gnu/libm.so.6
csqrt                                             /lib/x86_64-linux-gnu/libm.so.6
csqrt@@GLIBC_2.2.5                                /lib/x86_64-linux-gnu/libm.so.6
csqrt@GLIBC_2.2.5                                 /lib/x86_64-linux-gnu/libm.so.6
csqrtf                                            /lib/x86_64-linux-gnu/libm.so.6
csqrtf128                                         /lib/x86_64-linux-gnu/libm.so.6
csqrtf128@@GLIBC_2.26                             /lib/x86_64-linux-gnu/libm.so.6
csqrtf128@GLIBC_2.26                              /lib/x86_64-linux-gnu/libm.so.6
csqrtf32                                          /lib/x86_64-linux-gnu/libm.so.6
csqrtf32@@GLIBC_2.27                              /lib/x86_64-linux-gnu/libm.so.6
csqrtf32@GLIBC_2.27                               /lib/x86_64-linux-gnu/libm.so.6
csqrtf32x                                         /lib/x86_64-linux-gnu/libm.so.6
csqrtf32x@@GLIBC_2.27                             /lib/x86_64-linux-gnu/libm.so.6
csqrtf32x@GLIBC_2.27                              /lib/x86_64-linux-gnu/libm.so.6
csqrtf64                                          /lib/x86_64-linux-gnu/libm.so.6
csqrtf64@@GLIBC_2.27                              /lib/x86_64-linux-gnu/libm.so.6
csqrtf64@GLIBC_2.27                               /lib/x86_64-linux-gnu/libm.so.6
csqrtf64x                                         /lib/x86_64-linux-gnu/libm.so.6
csqrtf64x@@GLIBC_2.27                             /lib/x86_64-linux-gnu/libm.so.6
csqrtf64x@GLIBC_2.27                              /lib/x86_64-linux-gnu/libm.so.6
csqrtf@@GLIBC_2.2.5                               /lib/x86_64-linux-gnu/libm.so.6
csqrtf@GLIBC_2.2.5                                /lib/x86_64-linux-gnu/libm.so.6
csqrtl                                            /lib/x86_64-linux-gnu/libm.so.6
csqrtl@@GLIBC_2.2.5                               /lib/x86_64-linux-gnu/libm.so.6
csqrtl@GLIBC_2.2.5                                /lib/x86_64-linux-gnu/libm.so.6
csvto_vn                                          ../../lib/libbtsystem.a(btmath.o)
ctan                                              /lib/x86_64-linux-gnu/libm.so.6
ctan@@GLIBC_2.2.5                                 /lib/x86_64-linux-gnu/libm.so.6
ctan@GLIBC_2.2.5                                  /lib/x86_64-linux-gnu/libm.so.6
ctanf                                             /lib/x86_64-linux-gnu/libm.so.6
ctanf128                                          /lib/x86_64-linux-gnu/libm.so.6
ctanf128@@GLIBC_2.26                              /lib/x86_64-linux-gnu/libm.so.6
ctanf128@GLIBC_2.26                               /lib/x86_64-linux-gnu/libm.so.6
ctanf32                                           /lib/x86_64-linux-gnu/libm.so.6
ctanf32@@GLIBC_2.27                               /lib/x86_64-linux-gnu/libm.so.6
ctanf32@GLIBC_2.27                                /lib/x86_64-linux-gnu/libm.so.6
ctanf32x                                          /lib/x86_64-linux-gnu/libm.so.6
ctanf32x@@GLIBC_2.27                              /lib/x86_64-linux-gnu/libm.so.6
ctanf32x@GLIBC_2.27                               /lib/x86_64-linux-gnu/libm.so.6
ctanf64                                           /lib/x86_64-linux-gnu/libm.so.6
ctanf64@@GLIBC_2.27                               /lib/x86_64-linux-gnu/libm.so.6
ctanf64@GLIBC_2.27                                /lib/x86_64-linux-gnu/libm.so.6
ctanf64x                                          /lib/x86_64-linux-gnu/libm.so.6
ctanf64x@@GLIBC_2.27                              /lib/x86_64-linux-gnu/libm.so.6
ctanf64x@GLIBC_2.27                               /lib/x86_64-linux-gnu/libm.so.6
ctanf@@GLIBC_2.2.5                                /lib/x86_64-linux-gnu/libm.so.6
ctanf@GLIBC_2.2.5                                 /lib/x86_64-linux-gnu/libm.so.6
ctanh                                             /lib/x86_64-linux-gnu/libm.so.6
ctanh@@GLIBC_2.2.5                                /lib/x86_64-linux-gnu/libm.so.6
ctanh@GLIBC_2.2.5                                 /lib/x86_64-linux-gnu/libm.so.6
ctanhf                                            /lib/x86_64-linux-gnu/libm.so.6
ctanhf128                                         /lib/x86_64-linux-gnu/libm.so.6
ctanhf128@@GLIBC_2.26                             /lib/x86_64-linux-gnu/libm.so.6
ctanhf128@GLIBC_2.26                              /lib/x86_64-linux-gnu/libm.so.6
ctanhf32                                          /lib/x86_64-linux-gnu/libm.so.6
ctanhf32@@GLIBC_2.27                              /lib/x86_64-linux-gnu/libm.so.6
ctanhf32@GLIBC_2.27                               /lib/x86_64-linux-gnu/libm.so.6
ctanhf32x                                         /lib/x86_64-linux-gnu/libm.so.6
ctanhf32x@@GLIBC_2.27                             /lib/x86_64-linux-gnu/libm.so.6
ctanhf32x@GLIBC_2.27                              /lib/x86_64-linux-gnu/libm.so.6
ctanhf64                                          /lib/x86_64-linux-gnu/libm.so.6
ctanhf64@@GLIBC_2.27                              /lib/x86_64-linux-gnu/libm.so.6
ctanhf64@GLIBC_2.27                               /lib/x86_64-linux-gnu/libm.so.6
ctanhf64x                                         /lib/x86_64-linux-gnu/libm.so.6
ctanhf64x@@GLIBC_2.27                             /lib/x86_64-linux-gnu/libm.so.6
ctanhf64x@GLIBC_2.27                              /lib/x86_64-linux-gnu/libm.so.6
ctanhf@@GLIBC_2.2.5                               /lib/x86_64-linux-gnu/libm.so.6
ctanhf@GLIBC_2.2.5                                /lib/x86_64-linux-gnu/libm.so.6
ctanhl                                            /lib/x86_64-linux-gnu/libm.so.6
ctanhl@@GLIBC_2.2.5                               /lib/x86_64-linux-gnu/libm.so.6
ctanhl@GLIBC_2.2.5                                /lib/x86_64-linux-gnu/libm.so.6
ctanl                                             /lib/x86_64-linux-gnu/libm.so.6
ctanl@@GLIBC_2.2.5                                /lib/x86_64-linux-gnu/libm.so.6
ctanl@GLIBC_2.2.5                                 /lib/x86_64-linux-gnu/libm.so.6
dataType                                          ../../lib/libbtsystem.a(btcan_peakesd.o)
data_start                                        /usr/lib/gcc/x86_64-linux-gnu/7/../../../x86_64-linux-gnu/Scrt1.o
daylight                                          /lib/x86_64-linux-gnu/libc.so.6
daylight@@GLIBC_2.2.5                             /lib/x86_64-linux-gnu/libc.so.6
daylight@GLIBC_2.2.5                              /lib/x86_64-linux-gnu/libc.so.6
dcgettext                                         /lib/x86_64-linux-gnu/libc.so.6
dcgettext@@GLIBC_2.2.5                            /lib/x86_64-linux-gnu/libc.so.6
dcgettext@GLIBC_2.2.5                             /lib/x86_64-linux-gnu/libc.so.6
dcngettext                                        /lib/x86_64-linux-gnu/libc.so.6
dcngettext@@GLIBC_2.2.5                           /lib/x86_64-linux-gnu/libc.so.6
dcngettext@GLIBC_2.2.5                            /lib/x86_64-linux-gnu/libc.so.6
del_point_vta                                     ../../lib/libbtsystem.a(btcontrol.o)
delete_vr                                         ../../lib/libbtsystem.a(btmath.o)
                                                  ../../lib/libbtsystem.a(btcontrol.o)
destroy_mn                                        ../../lib/libbtsystem.a(btmath.o)
                                                  main.o
destroy_pa                                        ../../lib/libbtsystem.a(btseg.o)
destroy_pavn                                      ../../lib/libbtsystem.a(btseg.o)
                                                  ../../lib/libbtsystem.a(btcontrol.o)
destroy_vn                                        ../../lib/libbtsystem.a(btmath.o)
                                                  ../../lib/libbtsystem.a(btseg.o)
                                                  ../../lib/libbtwam.a(btwam.o)
                                                  main.o
destroy_vr                                        ../../lib/libbtsystem.a(btmath.o)
                                                  ../../lib/libbtsystem.a(btpath.o)
                                                  ../../lib/libbtsystem.a(btcontrol.o)
destroy_vta                                       ../../lib/libbtsystem.a(btcontrol.o)
det_mn                                            ../../lib/libbtsystem.a(btmath.o)
dgettext                                          /lib/x86_64-linux-gnu/libc.so.6
dgettext@@GLIBC_2.2.5                             /lib/x86_64-linux-gnu/libc.so.6
dgettext@GLIBC_2.2.5                              /lib/x86_64-linux-gnu/libc.so.6
dirfd                                             /lib/x86_64-linux-gnu/libc.so.6
dirfd@@GLIBC_2.2.5                                /lib/x86_64-linux-gnu/libc.so.6
dirfd@GLIBC_2.2.5                                 /lib/x86_64-linux-gnu/libc.so.6
dist_adjust_vta                                   ../../lib/libbtsystem.a(btcontrol.o)
dl_iterate_phdr                                   /lib/x86_64-linux-gnu/libc.so.6
dl_iterate_phdr@@GLIBC_2.2.5                      /lib/x86_64-linux-gnu/libc.so.6
dl_iterate_phdr@GLIBC_2.2.5                       /lib/x86_64-linux-gnu/libc.so.6
dngettext                                         /lib/x86_64-linux-gnu/libc.so.6
dngettext@@GLIBC_2.2.5                            /lib/x86_64-linux-gnu/libc.so.6
dngettext@GLIBC_2.2.5                             /lib/x86_64-linux-gnu/libc.so.6
done_ct                                           ../../lib/libbtsystem.a(btcontrol.o)
dot_q                                             ../../lib/libbtsystem.a(btmath.o)
dot_v3                                            ../../lib/libbtsystem.a(btmath.o)
                                                  ../../lib/libbtsystem.a(btrobot.o)
dot_vn                                            ../../lib/libbtsystem.a(btmath.o)
drem                                              /lib/x86_64-linux-gnu/libm.so.6
drem@@GLIBC_2.2.5                                 /lib/x86_64-linux-gnu/libm.so.6
drem@GLIBC_2.2.5                                  /lib/x86_64-linux-gnu/libm.so.6
dremf                                             /lib/x86_64-linux-gnu/libm.so.6
dremf@@GLIBC_2.2.5                                /lib/x86_64-linux-gnu/libm.so.6
dremf@GLIBC_2.2.5                                 /lib/x86_64-linux-gnu/libm.so.6
dreml                                             /lib/x86_64-linux-gnu/libm.so.6
dreml@@GLIBC_2.2.5                                /lib/x86_64-linux-gnu/libm.so.6
dreml@GLIBC_2.2.5                                 /lib/x86_64-linux-gnu/libm.so.6
ds_pwl                                            ../../lib/libbtsystem.a(btpath.o)
                                                  ../../lib/libbtsystem.a(btcontrol.o)
dsinit_pwl                                        ../../lib/libbtsystem.a(btpath.o)
                                                  ../../lib/libbtsystem.a(btcontrol.o)
dump_pb                                           ../../lib/libbtsystem.a(btseg.o)
dumptofile_bot                                    ../../lib/libbtsystem.a(btrobot.o)
dup                                               /lib/x86_64-linux-gnu/libc.so.6
dup2                                              /lib/x86_64-linux-gnu/libc.so.6
dup2@@GLIBC_2.2.5                                 /lib/x86_64-linux-gnu/libc.so.6
dup2@GLIBC_2.2.5                                  /lib/x86_64-linux-gnu/libc.so.6
dup3                                              /lib/x86_64-linux-gnu/libc.so.6
dup3@@GLIBC_2.9                                   /lib/x86_64-linux-gnu/libc.so.6
dup3@GLIBC_2.9                                    /lib/x86_64-linux-gnu/libc.so.6
dup@@GLIBC_2.2.5                                  /lib/x86_64-linux-gnu/libc.so.6
dup@GLIBC_2.2.5                                   /lib/x86_64-linux-gnu/libc.so.6
dup_pb                                            ../../lib/libbtsystem.a(btseg.o)
duplocale                                         /lib/x86_64-linux-gnu/libc.so.6
duplocale@@GLIBC_2.3                              /lib/x86_64-linux-gnu/libc.so.6
duplocale@GLIBC_2.3                               /lib/x86_64-linux-gnu/libc.so.6
e_div_vn                                          ../../lib/libbtsystem.a(btmath.o)
                                                  ../../lib/libbtwam.a(btwam.o)
e_mul_vn                                          ../../lib/libbtsystem.a(btmath.o)
                                                  ../../lib/libbtwam.a(btwam.o)
e_pow_vn                                          ../../lib/libbtsystem.a(btmath.o)
e_sqr_vn                                          ../../lib/libbtsystem.a(btmath.o)
e_sqrt_vn                                         ../../lib/libbtsystem.a(btmath.o)
eaccess                                           /lib/x86_64-linux-gnu/libc.so.6
eaccess@@GLIBC_2.4                                /lib/x86_64-linux-gnu/libc.so.6
eaccess@GLIBC_2.4                                 /lib/x86_64-linux-gnu/libc.so.6
ecvt_r                                            /lib/x86_64-linux-gnu/libc.so.6
ecvt_r@@GLIBC_2.2.5                               /lib/x86_64-linux-gnu/libc.so.6
ecvt_r@GLIBC_2.2.5                                /lib/x86_64-linux-gnu/libc.so.6
edit_at_vr                                        ../../lib/libbtsystem.a(btmath.o)
                                                  ../../lib/libbtsystem.a(btcontrol.o)
edit_point_vr                                     ../../lib/libbtsystem.a(btmath.o)
                                                  ../../lib/libbtsystem.a(btcontrol.o)
edit_vr                                           ../../lib/libbtsystem.a(btmath.o)
                                                  ../../lib/libbtsystem.a(btcontrol.o)
einit_vn                                          ../../lib/libbtsystem.a(btmath.o)
end_vr                                            ../../lib/libbtsystem.a(btmath.o)
                                                  ../../lib/libbtsystem.a(btcontrol.o)
endmntent                                         /lib/x86_64-linux-gnu/libc.so.6
endmntent@@GLIBC_2.2.5                            /lib/x86_64-linux-gnu/libc.so.6
endmntent@GLIBC_2.2.5                             /lib/x86_64-linux-gnu/libc.so.6
endttyent                                         /lib/x86_64-linux-gnu/libc.so.6
endttyent@@GLIBC_2.2.5                            /lib/x86_64-linux-gnu/libc.so.6
endttyent@GLIBC_2.2.5                             /lib/x86_64-linux-gnu/libc.so.6
endutent                                          /lib/x86_64-linux-gnu/libc.so.6
endutent@@GLIBC_2.2.5                             /lib/x86_64-linux-gnu/libc.so.6
endutent@GLIBC_2.2.5                              /lib/x86_64-linux-gnu/libc.so.6
environ                                           /lib/x86_64-linux-gnu/libc.so.6
environ@@GLIBC_2.2.5                              /lib/x86_64-linux-gnu/libc.so.6
environ@GLIBC_2.2.5                               /lib/x86_64-linux-gnu/libc.so.6
eqaxis_m3                                         ../../lib/libbtsystem.a(btmath.o)
erand48_r                                         /lib/x86_64-linux-gnu/libc.so.6
erand48_r@@GLIBC_2.2.5                            /lib/x86_64-linux-gnu/libc.so.6
erand48_r@GLIBC_2.2.5                             /lib/x86_64-linux-gnu/libc.so.6
erf                                               /lib/x86_64-linux-gnu/libm.so.6
erf@@GLIBC_2.2.5                                  /lib/x86_64-linux-gnu/libm.so.6
erf@GLIBC_2.2.5                                   /lib/x86_64-linux-gnu/libm.so.6
erfc                                              /lib/x86_64-linux-gnu/libm.so.6
erfc@@GLIBC_2.2.5                                 /lib/x86_64-linux-gnu/libm.so.6
erfc@GLIBC_2.2.5                                  /lib/x86_64-linux-gnu/libm.so.6
erfcf                                             /lib/x86_64-linux-gnu/libm.so.6
erfcf128                                          /lib/x86_64-linux-gnu/libm.so.6
erfcf128@@GLIBC_2.26                              /lib/x86_64-linux-gnu/libm.so.6
erfcf128@GLIBC_2.26                               /lib/x86_64-linux-gnu/libm.so.6
erfcf32                                           /lib/x86_64-linux-gnu/libm.so.6
erfcf32@@GLIBC_2.27                               /lib/x86_64-linux-gnu/libm.so.6
erfcf32@GLIBC_2.27                                /lib/x86_64-linux-gnu/libm.so.6
erfcf32x                                          /lib/x86_64-linux-gnu/libm.so.6
erfcf32x@@GLIBC_2.27                              /lib/x86_64-linux-gnu/libm.so.6
erfcf32x@GLIBC_2.27                               /lib/x86_64-linux-gnu/libm.so.6
erfcf64                                           /lib/x86_64-linux-gnu/libm.so.6
erfcf64@@GLIBC_2.27                               /lib/x86_64-linux-gnu/libm.so.6
erfcf64@GLIBC_2.27                                /lib/x86_64-linux-gnu/libm.so.6
erfcf64x                                          /lib/x86_64-linux-gnu/libm.so.6
erfcf64x@@GLIBC_2.27                              /lib/x86_64-linux-gnu/libm.so.6
erfcf64x@GLIBC_2.27                               /lib/x86_64-linux-gnu/libm.so.6
erfcf@@GLIBC_2.2.5                                /lib/x86_64-linux-gnu/libm.so.6
erfcf@GLIBC_2.2.5                                 /lib/x86_64-linux-gnu/libm.so.6
erfcl                                             /lib/x86_64-linux-gnu/libm.so.6
erfcl@@GLIBC_2.2.5                                /lib/x86_64-linux-gnu/libm.so.6
erfcl@GLIBC_2.2.5                                 /lib/x86_64-linux-gnu/libm.so.6
erff                                              /lib/x86_64-linux-gnu/libm.so.6
erff128                                           /lib/x86_64-linux-gnu/libm.so.6
erff128@@GLIBC_2.26                               /lib/x86_64-linux-gnu/libm.so.6
erff128@GLIBC_2.26                                /lib/x86_64-linux-gnu/libm.so.6
erff32                                            /lib/x86_64-linux-gnu/libm.so.6
erff32@@GLIBC_2.27                                /lib/x86_64-linux-gnu/libm.so.6
erff32@GLIBC_2.27                                 /lib/x86_64-linux-gnu/libm.so.6
erff32x                                           /lib/x86_64-linux-gnu/libm.so.6
erff32x@@GLIBC_2.27                               /lib/x86_64-linux-gnu/libm.so.6
erff32x@GLIBC_2.27                                /lib/x86_64-linux-gnu/libm.so.6
erff64                                            /lib/x86_64-linux-gnu/libm.so.6
erff64@@GLIBC_2.27                                /lib/x86_64-linux-gnu/libm.so.6
erff64@GLIBC_2.27                                 /lib/x86_64-linux-gnu/libm.so.6
erff64x                                           /lib/x86_64-linux-gnu/libm.so.6
erff64x@@GLIBC_2.27                               /lib/x86_64-linux-gnu/libm.so.6
erff64x@GLIBC_2.27                                /lib/x86_64-linux-gnu/libm.so.6
erff@@GLIBC_2.2.5                                 /lib/x86_64-linux-gnu/libm.so.6
erff@GLIBC_2.2.5                                  /lib/x86_64-linux-gnu/libm.so.6
erfl                                              /lib/x86_64-linux-gnu/libm.so.6
erfl@@GLIBC_2.2.5                                 /lib/x86_64-linux-gnu/libm.so.6
erfl@GLIBC_2.2.5                                  /lib/x86_64-linux-gnu/libm.so.6
error                                             /lib/x86_64-linux-gnu/libc.so.6
error@@GLIBC_2.2.5                                /lib/x86_64-linux-gnu/libc.so.6
error@GLIBC_2.2.5                                 /lib/x86_64-linux-gnu/libc.so.6
error_at_line                                     /lib/x86_64-linux-gnu/libc.so.6
error_at_line@@GLIBC_2.2.5                        /lib/x86_64-linux-gnu/libc.so.6
error_at_line@GLIBC_2.2.5                         /lib/x86_64-linux-gnu/libc.so.6
error_hook                                        /usr/lib/libcobalt.so
euidaccess                                        /lib/x86_64-linux-gnu/libc.so.6
euidaccess@@GLIBC_2.2.5                           /lib/x86_64-linux-gnu/libc.so.6
euidaccess@GLIBC_2.2.5                            /lib/x86_64-linux-gnu/libc.so.6
evalDL                                            ../../lib/libbtsystem.a(btlogger.o)
                                                  ../../lib/libbtwam.a(btwam.o)
eval_bd_bot                                       ../../lib/libbtsystem.a(btrobot.o)
                                                  ../../lib/libbtwam.a(btwam.o)
eval_btPID                                        ../../lib/libbtsystem.a(btcontrol.o)
eval_btfilter                                     ../../lib/libbtsystem.a(btmath.o)
eval_btfilter_vn                                  ../../lib/libbtsystem.a(btmath.o)
eval_btramp                                       ../../lib/libbtsystem.a(btstatecontrol.o)
eval_bts                                          ../../lib/libbtsystem.a(btstatecontrol.o)
                                                  ../../lib/libbtwam.a(btwam.o)
eval_ct                                           ../../lib/libbtsystem.a(btcontrol.o)
eval_err_btPID                                    ../../lib/libbtsystem.a(btcontrol.o)
eval_fd_bot                                       ../../lib/libbtsystem.a(btrobot.o)
                                                  ../../lib/libbtwam.a(btwam.o)
eval_fj_bot                                       ../../lib/libbtsystem.a(btrobot.o)
eval_fk_bot                                       ../../lib/libbtsystem.a(btrobot.o)
                                                  ../../lib/libbtwam.a(btwam.o)
eval_pa                                           ../../lib/libbtsystem.a(btseg.o)
eval_pavn                                         ../../lib/libbtsystem.a(btseg.o)
                                                  ../../lib/libbtsystem.a(btcontrol.o)
eval_trj_bts                                      ../../lib/libbtsystem.a(btstatecontrol.o)
eval_via_trj                                      ../../lib/libbtsystem.a(btcontrol.o)
eval_vta                                          ../../lib/libbtsystem.a(btcontrol.o)
evaluate_traptrj                                  ../../lib/libbtsystem.a(btstatecontrol.o)
execve                                            /lib/x86_64-linux-gnu/libc.so.6
execve@@GLIBC_2.2.5                               /lib/x86_64-linux-gnu/libc.so.6
execve@GLIBC_2.2.5                                /lib/x86_64-linux-gnu/libc.so.6
execvpe                                           /lib/x86_64-linux-gnu/libc.so.6
execvpe@@GLIBC_2.11                               /lib/x86_64-linux-gnu/libc.so.6
execvpe@GLIBC_2.11                                /lib/x86_64-linux-gnu/libc.so.6
exp                                               /lib/x86_64-linux-gnu/libm.so.6
exp10                                             /lib/x86_64-linux-gnu/libm.so.6
exp10@@GLIBC_2.2.5                                /lib/x86_64-linux-gnu/libm.so.6
exp10@GLIBC_2.2.5                                 /lib/x86_64-linux-gnu/libm.so.6
exp10f                                            /lib/x86_64-linux-gnu/libm.so.6
exp10f128                                         /lib/x86_64-linux-gnu/libm.so.6
exp10f128@@GLIBC_2.26                             /lib/x86_64-linux-gnu/libm.so.6
exp10f128@GLIBC_2.26                              /lib/x86_64-linux-gnu/libm.so.6
exp10f32                                          /lib/x86_64-linux-gnu/libm.so.6
exp10f32@@GLIBC_2.27                              /lib/x86_64-linux-gnu/libm.so.6
exp10f32@GLIBC_2.27                               /lib/x86_64-linux-gnu/libm.so.6
exp10f32x                                         /lib/x86_64-linux-gnu/libm.so.6
exp10f32x@@GLIBC_2.27                             /lib/x86_64-linux-gnu/libm.so.6
exp10f32x@GLIBC_2.27                              /lib/x86_64-linux-gnu/libm.so.6
exp10f64                                          /lib/x86_64-linux-gnu/libm.so.6
exp10f64@@GLIBC_2.27                              /lib/x86_64-linux-gnu/libm.so.6
exp10f64@GLIBC_2.27                               /lib/x86_64-linux-gnu/libm.so.6
exp10f64x                                         /lib/x86_64-linux-gnu/libm.so.6
exp10f64x@@GLIBC_2.27                             /lib/x86_64-linux-gnu/libm.so.6
exp10f64x@GLIBC_2.27                              /lib/x86_64-linux-gnu/libm.so.6
exp10f@@GLIBC_2.2.5                               /lib/x86_64-linux-gnu/libm.so.6
exp10f@GLIBC_2.2.5                                /lib/x86_64-linux-gnu/libm.so.6
exp10l                                            /lib/x86_64-linux-gnu/libm.so.6
exp10l@@GLIBC_2.2.5                               /lib/x86_64-linux-gnu/libm.so.6
exp10l@GLIBC_2.2.5                                /lib/x86_64-linux-gnu/libm.so.6
exp2                                              /lib/x86_64-linux-gnu/libm.so.6
exp2@@GLIBC_2.2.5                                 /lib/x86_64-linux-gnu/libm.so.6
exp2@GLIBC_2.2.5                                  /lib/x86_64-linux-gnu/libm.so.6
exp2f128                                          /lib/x86_64-linux-gnu/libm.so.6
exp2f128@@GLIBC_2.26                              /lib/x86_64-linux-gnu/libm.so.6
exp2f128@GLIBC_2.26                               /lib/x86_64-linux-gnu/libm.so.6
exp2f32                                           /lib/x86_64-linux-gnu/libm.so.6
exp2f32@@GLIBC_2.27                               /lib/x86_64-linux-gnu/libm.so.6
exp2f32@GLIBC_2.27                                /lib/x86_64-linux-gnu/libm.so.6
exp2f32x                                          /lib/x86_64-linux-gnu/libm.so.6
exp2f32x@@GLIBC_2.27                              /lib/x86_64-linux-gnu/libm.so.6
exp2f32x@GLIBC_2.27                               /lib/x86_64-linux-gnu/libm.so.6
exp2f64                                           /lib/x86_64-linux-gnu/libm.so.6
exp2f64@@GLIBC_2.27                               /lib/x86_64-linux-gnu/libm.so.6
exp2f64@GLIBC_2.27                                /lib/x86_64-linux-gnu/libm.so.6
exp2f64x                                          /lib/x86_64-linux-gnu/libm.so.6
exp2f64x@@GLIBC_2.27                              /lib/x86_64-linux-gnu/libm.so.6
exp2f64x@GLIBC_2.27                               /lib/x86_64-linux-gnu/libm.so.6
exp2l                                             /lib/x86_64-linux-gnu/libm.so.6
exp2l@@GLIBC_2.2.5                                /lib/x86_64-linux-gnu/libm.so.6
exp2l@GLIBC_2.2.5                                 /lib/x86_64-linux-gnu/libm.so.6
exp@@GLIBC_2.2.5                                  /lib/x86_64-linux-gnu/libm.so.6
exp@GLIBC_2.2.5                                   /lib/x86_64-linux-gnu/libm.so.6
exp_q                                             ../../lib/libbtsystem.a(btmath.o)
expf128                                           /lib/x86_64-linux-gnu/libm.so.6
expf128@@GLIBC_2.26                               /lib/x86_64-linux-gnu/libm.so.6
expf128@GLIBC_2.26                                /lib/x86_64-linux-gnu/libm.so.6
expf32                                            /lib/x86_64-linux-gnu/libm.so.6
expf32@@GLIBC_2.27                                /lib/x86_64-linux-gnu/libm.so.6
expf32@GLIBC_2.27                                 /lib/x86_64-linux-gnu/libm.so.6
expf32x                                           /lib/x86_64-linux-gnu/libm.so.6
expf32x@@GLIBC_2.27                               /lib/x86_64-linux-gnu/libm.so.6
expf32x@GLIBC_2.27                                /lib/x86_64-linux-gnu/libm.so.6
expf64                                            /lib/x86_64-linux-gnu/libm.so.6
expf64@@GLIBC_2.27                                /lib/x86_64-linux-gnu/libm.so.6
expf64@GLIBC_2.27                                 /lib/x86_64-linux-gnu/libm.so.6
expf64x                                           /lib/x86_64-linux-gnu/libm.so.6
expf64x@@GLIBC_2.27                               /lib/x86_64-linux-gnu/libm.so.6
expf64x@GLIBC_2.27                                /lib/x86_64-linux-gnu/libm.so.6
expl                                              /lib/x86_64-linux-gnu/libm.so.6
expl@@GLIBC_2.2.5                                 /lib/x86_64-linux-gnu/libm.so.6
expl@GLIBC_2.2.5                                  /lib/x86_64-linux-gnu/libm.so.6
expm1                                             /lib/x86_64-linux-gnu/libm.so.6
expm1@@GLIBC_2.2.5                                /lib/x86_64-linux-gnu/libm.so.6
expm1@GLIBC_2.2.5                                 /lib/x86_64-linux-gnu/libm.so.6
expm1f                                            /lib/x86_64-linux-gnu/libm.so.6
expm1f128                                         /lib/x86_64-linux-gnu/libm.so.6
expm1f128@@GLIBC_2.26                             /lib/x86_64-linux-gnu/libm.so.6
expm1f128@GLIBC_2.26                              /lib/x86_64-linux-gnu/libm.so.6
expm1f32                                          /lib/x86_64-linux-gnu/libm.so.6
expm1f32@@GLIBC_2.27                              /lib/x86_64-linux-gnu/libm.so.6
expm1f32@GLIBC_2.27                               /lib/x86_64-linux-gnu/libm.so.6
expm1f32x                                         /lib/x86_64-linux-gnu/libm.so.6
expm1f32x@@GLIBC_2.27                             /lib/x86_64-linux-gnu/libm.so.6
expm1f32x@GLIBC_2.27                              /lib/x86_64-linux-gnu/libm.so.6
expm1f64                                          /lib/x86_64-linux-gnu/libm.so.6
expm1f64@@GLIBC_2.27                              /lib/x86_64-linux-gnu/libm.so.6
expm1f64@GLIBC_2.27                               /lib/x86_64-linux-gnu/libm.so.6
expm1f64x                                         /lib/x86_64-linux-gnu/libm.so.6
expm1f64x@@GLIBC_2.27                             /lib/x86_64-linux-gnu/libm.so.6
expm1f64x@GLIBC_2.27                              /lib/x86_64-linux-gnu/libm.so.6
expm1f@@GLIBC_2.2.5                               /lib/x86_64-linux-gnu/libm.so.6
expm1f@GLIBC_2.2.5                                /lib/x86_64-linux-gnu/libm.so.6
expm1l                                            /lib/x86_64-linux-gnu/libm.so.6
expm1l@@GLIBC_2.2.5                               /lib/x86_64-linux-gnu/libm.so.6
expm1l@GLIBC_2.2.5                                /lib/x86_64-linux-gnu/libm.so.6
extra_pucks                                       ../../lib/libbtsystem.a(btsystem.o)
extract_q                                         ../../lib/libbtsystem.a(btmath.o)
extract_vn                                        ../../lib/libbtsystem.a(btmath.o)
fabs                                              /lib/x86_64-linux-gnu/libm.so.6
fabs@@GLIBC_2.2.5                                 /lib/x86_64-linux-gnu/libm.so.6
fabs@GLIBC_2.2.5                                  /lib/x86_64-linux-gnu/libm.so.6
fabsf                                             /lib/x86_64-linux-gnu/libm.so.6
fabsf128                                          /lib/x86_64-linux-gnu/libm.so.6
fabsf128@@GLIBC_2.26                              /lib/x86_64-linux-gnu/libm.so.6
fabsf128@GLIBC_2.26                               /lib/x86_64-linux-gnu/libm.so.6
fabsf32                                           /lib/x86_64-linux-gnu/libm.so.6
fabsf32@@GLIBC_2.27                               /lib/x86_64-linux-gnu/libm.so.6
fabsf32@GLIBC_2.27                                /lib/x86_64-linux-gnu/libm.so.6
fabsf32x                                          /lib/x86_64-linux-gnu/libm.so.6
fabsf32x@@GLIBC_2.27                              /lib/x86_64-linux-gnu/libm.so.6
fabsf32x@GLIBC_2.27                               /lib/x86_64-linux-gnu/libm.so.6
fabsf64                                           /lib/x86_64-linux-gnu/libm.so.6
fabsf64@@GLIBC_2.27                               /lib/x86_64-linux-gnu/libm.so.6
fabsf64@GLIBC_2.27                                /lib/x86_64-linux-gnu/libm.so.6
fabsf64x                                          /lib/x86_64-linux-gnu/libm.so.6
fabsf64x@@GLIBC_2.27                              /lib/x86_64-linux-gnu/libm.so.6
fabsf64x@GLIBC_2.27                               /lib/x86_64-linux-gnu/libm.so.6
fabsf@@GLIBC_2.2.5                                /lib/x86_64-linux-gnu/libm.so.6
fabsf@GLIBC_2.2.5                                 /lib/x86_64-linux-gnu/libm.so.6
fabsl                                             /lib/x86_64-linux-gnu/libm.so.6
fabsl@@GLIBC_2.2.5                                /lib/x86_64-linux-gnu/libm.so.6
fabsl@GLIBC_2.2.5                                 /lib/x86_64-linux-gnu/libm.so.6
fallocate                                         /lib/x86_64-linux-gnu/libc.so.6
fallocate@@GLIBC_2.10                             /lib/x86_64-linux-gnu/libc.so.6
fallocate@GLIBC_2.10                              /lib/x86_64-linux-gnu/libc.so.6
fchdir                                            /lib/x86_64-linux-gnu/libc.so.6
fchdir@@GLIBC_2.2.5                               /lib/x86_64-linux-gnu/libc.so.6
fchdir@GLIBC_2.2.5                                /lib/x86_64-linux-gnu/libc.so.6
fchmod                                            /lib/x86_64-linux-gnu/libc.so.6
fchmod@@GLIBC_2.2.5                               /lib/x86_64-linux-gnu/libc.so.6
fchmod@GLIBC_2.2.5                                /lib/x86_64-linux-gnu/libc.so.6
fchown                                            /lib/x86_64-linux-gnu/libc.so.6
fchown@@GLIBC_2.2.5                               /lib/x86_64-linux-gnu/libc.so.6
fchown@GLIBC_2.2.5                                /lib/x86_64-linux-gnu/libc.so.6
fcloseall                                         /lib/x86_64-linux-gnu/libc.so.6
fcloseall@@GLIBC_2.2.5                            /lib/x86_64-linux-gnu/libc.so.6
fcloseall@GLIBC_2.2.5                             /lib/x86_64-linux-gnu/libc.so.6
fcntl                                             /lib/x86_64-linux-gnu/libpthread.so.0
fcntl@@GLIBC_2.2.5                                /lib/x86_64-linux-gnu/libpthread.so.0
                                                  /lib/x86_64-linux-gnu/libc.so.6
fcntl@GLIBC_2.2.5                                 /lib/x86_64-linux-gnu/libpthread.so.0
                                                  /usr/lib/gcc/x86_64-linux-gnu/7/../../../x86_64-linux-gnu/librt.so
                                                  /usr/lib/libcobalt.so
fcvt_r                                            /lib/x86_64-linux-gnu/libc.so.6
fcvt_r@@GLIBC_2.2.5                               /lib/x86_64-linux-gnu/libc.so.6
fcvt_r@GLIBC_2.2.5                                /lib/x86_64-linux-gnu/libc.so.6
fdim                                              /lib/x86_64-linux-gnu/libm.so.6
fdim@@GLIBC_2.2.5                                 /lib/x86_64-linux-gnu/libm.so.6
fdim@GLIBC_2.2.5                                  /lib/x86_64-linux-gnu/libm.so.6
fdimf                                             /lib/x86_64-linux-gnu/libm.so.6
fdimf128                                          /lib/x86_64-linux-gnu/libm.so.6
fdimf128@@GLIBC_2.26                              /lib/x86_64-linux-gnu/libm.so.6
fdimf128@GLIBC_2.26                               /lib/x86_64-linux-gnu/libm.so.6
fdimf32                                           /lib/x86_64-linux-gnu/libm.so.6
fdimf32@@GLIBC_2.27                               /lib/x86_64-linux-gnu/libm.so.6
fdimf32@GLIBC_2.27                                /lib/x86_64-linux-gnu/libm.so.6
fdimf32x                                          /lib/x86_64-linux-gnu/libm.so.6
fdimf32x@@GLIBC_2.27                              /lib/x86_64-linux-gnu/libm.so.6
fdimf32x@GLIBC_2.27                               /lib/x86_64-linux-gnu/libm.so.6
fdimf64                                           /lib/x86_64-linux-gnu/libm.so.6
fdimf64@@GLIBC_2.27                               /lib/x86_64-linux-gnu/libm.so.6
fdimf64@GLIBC_2.27                                /lib/x86_64-linux-gnu/libm.so.6
fdimf64x                                          /lib/x86_64-linux-gnu/libm.so.6
fdimf64x@@GLIBC_2.27                              /lib/x86_64-linux-gnu/libm.so.6
fdimf64x@GLIBC_2.27                               /lib/x86_64-linux-gnu/libm.so.6
fdimf@@GLIBC_2.2.5                                /lib/x86_64-linux-gnu/libm.so.6
fdimf@GLIBC_2.2.5                                 /lib/x86_64-linux-gnu/libm.so.6
fdiml                                             /lib/x86_64-linux-gnu/libm.so.6
fdiml@@GLIBC_2.2.5                                /lib/x86_64-linux-gnu/libm.so.6
fdiml@GLIBC_2.2.5                                 /lib/x86_64-linux-gnu/libm.so.6
fdopendir                                         /lib/x86_64-linux-gnu/libc.so.6
fdopendir@@GLIBC_2.4                              /lib/x86_64-linux-gnu/libc.so.6
fdopendir@GLIBC_2.4                               /lib/x86_64-linux-gnu/libc.so.6
fegetenv                                          /lib/x86_64-linux-gnu/libm.so.6
fegetenv@@GLIBC_2.2.5                             /lib/x86_64-linux-gnu/libm.so.6
fegetenv@GLIBC_2.2.5                              /lib/x86_64-linux-gnu/libm.so.6
fegetround                                        /lib/x86_64-linux-gnu/libm.so.6
fegetround@@GLIBC_2.2.5                           /lib/x86_64-linux-gnu/libm.so.6
fegetround@GLIBC_2.2.5                            /lib/x86_64-linux-gnu/libm.so.6
feholdexcept                                      /lib/x86_64-linux-gnu/libm.so.6
feholdexcept@@GLIBC_2.2.5                         /lib/x86_64-linux-gnu/libm.so.6
feholdexcept@GLIBC_2.2.5                          /lib/x86_64-linux-gnu/libm.so.6
feof                                              /lib/x86_64-linux-gnu/libc.so.6
                                                  ../../lib/libbtsystem.a(btlogger.o)
feof@@GLIBC_2.2.5                                 /lib/x86_64-linux-gnu/libc.so.6
feof@GLIBC_2.2.5                                  /lib/x86_64-linux-gnu/libc.so.6
feraiseexcept                                     /lib/x86_64-linux-gnu/libm.so.6
feraiseexcept@@GLIBC_2.2.5                        /lib/x86_64-linux-gnu/libm.so.6
feraiseexcept@GLIBC_2.2.5                         /lib/x86_64-linux-gnu/libm.so.6
ferror                                            /lib/x86_64-linux-gnu/libc.so.6
ferror@@GLIBC_2.2.5                               /lib/x86_64-linux-gnu/libc.so.6
ferror@GLIBC_2.2.5                                /lib/x86_64-linux-gnu/libc.so.6
fesetenv                                          /lib/x86_64-linux-gnu/libm.so.6
fesetenv@@GLIBC_2.2.5                             /lib/x86_64-linux-gnu/libm.so.6
fesetenv@GLIBC_2.2.5                              /lib/x86_64-linux-gnu/libm.so.6
fesetround                                        /lib/x86_64-linux-gnu/libm.so.6
fesetround@@GLIBC_2.2.5                           /lib/x86_64-linux-gnu/libm.so.6
fesetround@GLIBC_2.2.5                            /lib/x86_64-linux-gnu/libm.so.6
fflush                                            /lib/x86_64-linux-gnu/libc.so.6
fflush@@GLIBC_2.2.5                               /lib/x86_64-linux-gnu/libc.so.6
fflush@GLIBC_2.2.5                                /lib/x86_64-linux-gnu/libc.so.6
                                                  /usr/lib/libcobalt.so
                                                  /usr/lib/libcopperplate.so
fflush_unlocked                                   /lib/x86_64-linux-gnu/libc.so.6
fflush_unlocked@@GLIBC_2.2.5                      /lib/x86_64-linux-gnu/libc.so.6
fflush_unlocked@GLIBC_2.2.5                       /lib/x86_64-linux-gnu/libc.so.6
ffsl                                              /lib/x86_64-linux-gnu/libc.so.6
ffsl@@GLIBC_2.2.5                                 /lib/x86_64-linux-gnu/libc.so.6
ffsl@GLIBC_2.2.5                                  /lib/x86_64-linux-gnu/libc.so.6
fgetc                                             /lib/x86_64-linux-gnu/libc.so.6
fgetc@@GLIBC_2.2.5                                /lib/x86_64-linux-gnu/libc.so.6
fgetc@GLIBC_2.2.5                                 /lib/x86_64-linux-gnu/libc.so.6
fgetc_unlocked                                    /lib/x86_64-linux-gnu/libc.so.6
fgetc_unlocked@@GLIBC_2.2.5                       /lib/x86_64-linux-gnu/libc.so.6
fgetc_unlocked@GLIBC_2.2.5                        /lib/x86_64-linux-gnu/libc.so.6
fgetgrent_r                                       /lib/x86_64-linux-gnu/libc.so.6
fgetgrent_r@@GLIBC_2.2.5                          /lib/x86_64-linux-gnu/libc.so.6
fgetgrent_r@GLIBC_2.2.5                           /lib/x86_64-linux-gnu/libc.so.6
fgetpwent_r                                       /lib/x86_64-linux-gnu/libc.so.6
fgetpwent_r@@GLIBC_2.2.5                          /lib/x86_64-linux-gnu/libc.so.6
fgetpwent_r@GLIBC_2.2.5                           /lib/x86_64-linux-gnu/libc.so.6
fgets                                             /lib/x86_64-linux-gnu/libc.so.6
                                                  ../../lib/libbtsystem.a(btparser.o)
                                                  ../../lib/libbtsystem.a(btmath.o)
fgets@@GLIBC_2.2.5                                /lib/x86_64-linux-gnu/libc.so.6
fgets@GLIBC_2.2.5                                 /lib/x86_64-linux-gnu/libc.so.6
                                                  /usr/lib/libcobalt.so
fgets_unlocked                                    /lib/x86_64-linux-gnu/libc.so.6
fgets_unlocked@@GLIBC_2.2.5                       /lib/x86_64-linux-gnu/libc.so.6
fgets_unlocked@GLIBC_2.2.5                        /lib/x86_64-linux-gnu/libc.so.6
fgetsgent_r                                       /lib/x86_64-linux-gnu/libc.so.6
fgetsgent_r@@GLIBC_2.10                           /lib/x86_64-linux-gnu/libc.so.6
fgetsgent_r@GLIBC_2.10                            /lib/x86_64-linux-gnu/libc.so.6
fgetspent_r                                       /lib/x86_64-linux-gnu/libc.so.6
fgetspent_r@@GLIBC_2.2.5                          /lib/x86_64-linux-gnu/libc.so.6
fgetspent_r@GLIBC_2.2.5                           /lib/x86_64-linux-gnu/libc.so.6
fgetwc                                            /lib/x86_64-linux-gnu/libc.so.6
fgetwc@@GLIBC_2.2.5                               /lib/x86_64-linux-gnu/libc.so.6
fgetwc@GLIBC_2.2.5                                /lib/x86_64-linux-gnu/libc.so.6
fgetwc_unlocked                                   /lib/x86_64-linux-gnu/libc.so.6
fgetwc_unlocked@@GLIBC_2.2.5                      /lib/x86_64-linux-gnu/libc.so.6
fgetwc_unlocked@GLIBC_2.2.5                       /lib/x86_64-linux-gnu/libc.so.6
fileno                                            /lib/x86_64-linux-gnu/libc.so.6
fileno@@GLIBC_2.2.5                               /lib/x86_64-linux-gnu/libc.so.6
fileno@GLIBC_2.2.5                                /lib/x86_64-linux-gnu/libc.so.6
fileno_unlocked                                   /lib/x86_64-linux-gnu/libc.so.6
fileno_unlocked@@GLIBC_2.2.5                      /lib/x86_64-linux-gnu/libc.so.6
fileno_unlocked@GLIBC_2.2.5                       /lib/x86_64-linux-gnu/libc.so.6
fill_q                                            ../../lib/libbtsystem.a(btmath.o)
fill_v3                                           ../../lib/libbtsystem.a(btmath.o)
                                                  ../../lib/libbtwam.a(btwam.o)
fill_vn                                           ../../lib/libbtsystem.a(btmath.o)
                                                  ../../lib/libbtsystem.a(btstatecontrol.o)
                                                  ../../lib/libbtwam.a(btwam.o)
finite                                            /lib/x86_64-linux-gnu/libm.so.6
finite@@GLIBC_2.2.5                               /lib/x86_64-linux-gnu/libm.so.6
                                                  /lib/x86_64-linux-gnu/libc.so.6
finite@GLIBC_2.2.5                                /lib/x86_64-linux-gnu/libm.so.6
finitef                                           /lib/x86_64-linux-gnu/libm.so.6
finitef@@GLIBC_2.2.5                              /lib/x86_64-linux-gnu/libm.so.6
                                                  /lib/x86_64-linux-gnu/libc.so.6
finitef@GLIBC_2.2.5                               /lib/x86_64-linux-gnu/libm.so.6
finitel                                           /lib/x86_64-linux-gnu/libm.so.6
finitel@@GLIBC_2.2.5                              /lib/x86_64-linux-gnu/libm.so.6
                                                  /lib/x86_64-linux-gnu/libc.so.6
finitel@GLIBC_2.2.5                               /lib/x86_64-linux-gnu/libm.so.6
firstPos                                          ../../lib/libbtsystem.a(btsystem.o)
first_point_vta                                   ../../lib/libbtsystem.a(btcontrol.o)
flock                                             /lib/x86_64-linux-gnu/libc.so.6
flock@@GLIBC_2.2.5                                /lib/x86_64-linux-gnu/libc.so.6
flock@GLIBC_2.2.5                                 /lib/x86_64-linux-gnu/libc.so.6
flockfile                                         /lib/x86_64-linux-gnu/libpthread.so.0
flockfile@@GLIBC_2.2.5                            /lib/x86_64-linux-gnu/libpthread.so.0
                                                  /lib/x86_64-linux-gnu/libc.so.6
flockfile@GLIBC_2.2.5                             /lib/x86_64-linux-gnu/libpthread.so.0
floor                                             /lib/x86_64-linux-gnu/libm.so.6
                                                  ../../lib/libbtsystem.a(btsystem.o)
                                                  ../../lib/libbtwam.a(btwam.o)
floor@@GLIBC_2.2.5                                /lib/x86_64-linux-gnu/libm.so.6
floor@GLIBC_2.2.5                                 /lib/x86_64-linux-gnu/libm.so.6
floorf                                            /lib/x86_64-linux-gnu/libm.so.6
floorf128                                         /lib/x86_64-linux-gnu/libm.so.6
floorf128@@GLIBC_2.26                             /lib/x86_64-linux-gnu/libm.so.6
floorf128@GLIBC_2.26                              /lib/x86_64-linux-gnu/libm.so.6
floorf32                                          /lib/x86_64-linux-gnu/libm.so.6
floorf32@@GLIBC_2.27                              /lib/x86_64-linux-gnu/libm.so.6
floorf32@GLIBC_2.27                               /lib/x86_64-linux-gnu/libm.so.6
floorf32x                                         /lib/x86_64-linux-gnu/libm.so.6
floorf32x@@GLIBC_2.27                             /lib/x86_64-linux-gnu/libm.so.6
floorf32x@GLIBC_2.27                              /lib/x86_64-linux-gnu/libm.so.6
floorf64                                          /lib/x86_64-linux-gnu/libm.so.6
floorf64@@GLIBC_2.27                              /lib/x86_64-linux-gnu/libm.so.6
floorf64@GLIBC_2.27                               /lib/x86_64-linux-gnu/libm.so.6
floorf64x                                         /lib/x86_64-linux-gnu/libm.so.6
floorf64x@@GLIBC_2.27                             /lib/x86_64-linux-gnu/libm.so.6
floorf64x@GLIBC_2.27                              /lib/x86_64-linux-gnu/libm.so.6
floorf@@GLIBC_2.2.5                               /lib/x86_64-linux-gnu/libm.so.6
floorf@GLIBC_2.2.5                                /lib/x86_64-linux-gnu/libm.so.6
floorl                                            /lib/x86_64-linux-gnu/libm.so.6
floorl@@GLIBC_2.2.5                               /lib/x86_64-linux-gnu/libm.so.6
floorl@GLIBC_2.2.5                                /lib/x86_64-linux-gnu/libm.so.6
flushDL                                           ../../lib/libbtsystem.a(btlogger.o)
fma                                               /lib/x86_64-linux-gnu/libm.so.6
fma@@GLIBC_2.2.5                                  /lib/x86_64-linux-gnu/libm.so.6
fma@GLIBC_2.2.5                                   /lib/x86_64-linux-gnu/libm.so.6
fmaf                                              /lib/x86_64-linux-gnu/libm.so.6
fmaf128                                           /lib/x86_64-linux-gnu/libm.so.6
fmaf128@@GLIBC_2.26                               /lib/x86_64-linux-gnu/libm.so.6
fmaf128@GLIBC_2.26                                /lib/x86_64-linux-gnu/libm.so.6
fmaf32                                            /lib/x86_64-linux-gnu/libm.so.6
fmaf32@@GLIBC_2.27                                /lib/x86_64-linux-gnu/libm.so.6
fmaf32@GLIBC_2.27                                 /lib/x86_64-linux-gnu/libm.so.6
fmaf32x                                           /lib/x86_64-linux-gnu/libm.so.6
fmaf32x@@GLIBC_2.27                               /lib/x86_64-linux-gnu/libm.so.6
fmaf32x@GLIBC_2.27                                /lib/x86_64-linux-gnu/libm.so.6
fmaf64                                            /lib/x86_64-linux-gnu/libm.so.6
fmaf64@@GLIBC_2.27                                /lib/x86_64-linux-gnu/libm.so.6
fmaf64@GLIBC_2.27                                 /lib/x86_64-linux-gnu/libm.so.6
fmaf64x                                           /lib/x86_64-linux-gnu/libm.so.6
fmaf64x@@GLIBC_2.27                               /lib/x86_64-linux-gnu/libm.so.6
fmaf64x@GLIBC_2.27                                /lib/x86_64-linux-gnu/libm.so.6
fmaf@@GLIBC_2.2.5                                 /lib/x86_64-linux-gnu/libm.so.6
fmaf@GLIBC_2.2.5                                  /lib/x86_64-linux-gnu/libm.so.6
fmal                                              /lib/x86_64-linux-gnu/libm.so.6
fmal@@GLIBC_2.2.5                                 /lib/x86_64-linux-gnu/libm.so.6
fmal@GLIBC_2.2.5                                  /lib/x86_64-linux-gnu/libm.so.6
fmax                                              /lib/x86_64-linux-gnu/libm.so.6
fmax@@GLIBC_2.2.5                                 /lib/x86_64-linux-gnu/libm.so.6
fmax@GLIBC_2.2.5                                  /lib/x86_64-linux-gnu/libm.so.6
fmaxf                                             /lib/x86_64-linux-gnu/libm.so.6
fmaxf128                                          /lib/x86_64-linux-gnu/libm.so.6
fmaxf128@@GLIBC_2.26                              /lib/x86_64-linux-gnu/libm.so.6
fmaxf128@GLIBC_2.26                               /lib/x86_64-linux-gnu/libm.so.6
fmaxf32                                           /lib/x86_64-linux-gnu/libm.so.6
fmaxf32@@GLIBC_2.27                               /lib/x86_64-linux-gnu/libm.so.6
fmaxf32@GLIBC_2.27                                /lib/x86_64-linux-gnu/libm.so.6
fmaxf32x                                          /lib/x86_64-linux-gnu/libm.so.6
fmaxf32x@@GLIBC_2.27                              /lib/x86_64-linux-gnu/libm.so.6
fmaxf32x@GLIBC_2.27                               /lib/x86_64-linux-gnu/libm.so.6
fmaxf64                                           /lib/x86_64-linux-gnu/libm.so.6
fmaxf64@@GLIBC_2.27                               /lib/x86_64-linux-gnu/libm.so.6
fmaxf64@GLIBC_2.27                                /lib/x86_64-linux-gnu/libm.so.6
fmaxf64x                                          /lib/x86_64-linux-gnu/libm.so.6
fmaxf64x@@GLIBC_2.27                              /lib/x86_64-linux-gnu/libm.so.6
fmaxf64x@GLIBC_2.27                               /lib/x86_64-linux-gnu/libm.so.6
fmaxf@@GLIBC_2.2.5                                /lib/x86_64-linux-gnu/libm.so.6
fmaxf@GLIBC_2.2.5                                 /lib/x86_64-linux-gnu/libm.so.6
fmaxl                                             /lib/x86_64-linux-gnu/libm.so.6
fmaxl@@GLIBC_2.2.5                                /lib/x86_64-linux-gnu/libm.so.6
fmaxl@GLIBC_2.2.5                                 /lib/x86_64-linux-gnu/libm.so.6
fmaxmag                                           /lib/x86_64-linux-gnu/libm.so.6
fmaxmag@@GLIBC_2.25                               /lib/x86_64-linux-gnu/libm.so.6
fmaxmag@GLIBC_2.25                                /lib/x86_64-linux-gnu/libm.so.6
fmaxmagf                                          /lib/x86_64-linux-gnu/libm.so.6
fmaxmagf128                                       /lib/x86_64-linux-gnu/libm.so.6
fmaxmagf128@@GLIBC_2.26                           /lib/x86_64-linux-gnu/libm.so.6
fmaxmagf128@GLIBC_2.26                            /lib/x86_64-linux-gnu/libm.so.6
fmaxmagf32                                        /lib/x86_64-linux-gnu/libm.so.6
fmaxmagf32@@GLIBC_2.27                            /lib/x86_64-linux-gnu/libm.so.6
fmaxmagf32@GLIBC_2.27                             /lib/x86_64-linux-gnu/libm.so.6
fmaxmagf32x                                       /lib/x86_64-linux-gnu/libm.so.6
fmaxmagf32x@@GLIBC_2.27                           /lib/x86_64-linux-gnu/libm.so.6
fmaxmagf32x@GLIBC_2.27                            /lib/x86_64-linux-gnu/libm.so.6
fmaxmagf64                                        /lib/x86_64-linux-gnu/libm.so.6
fmaxmagf64@@GLIBC_2.27                            /lib/x86_64-linux-gnu/libm.so.6
fmaxmagf64@GLIBC_2.27                             /lib/x86_64-linux-gnu/libm.so.6
fmaxmagf64x                                       /lib/x86_64-linux-gnu/libm.so.6
fmaxmagf64x@@GLIBC_2.27                           /lib/x86_64-linux-gnu/libm.so.6
fmaxmagf64x@GLIBC_2.27                            /lib/x86_64-linux-gnu/libm.so.6
fmaxmagf@@GLIBC_2.25                              /lib/x86_64-linux-gnu/libm.so.6
fmaxmagf@GLIBC_2.25                               /lib/x86_64-linux-gnu/libm.so.6
fmaxmagl                                          /lib/x86_64-linux-gnu/libm.so.6
fmaxmagl@@GLIBC_2.25                              /lib/x86_64-linux-gnu/libm.so.6
fmaxmagl@GLIBC_2.25                               /lib/x86_64-linux-gnu/libm.so.6
fmin                                              /lib/x86_64-linux-gnu/libm.so.6
fmin@@GLIBC_2.2.5                                 /lib/x86_64-linux-gnu/libm.so.6
fmin@GLIBC_2.2.5                                  /lib/x86_64-linux-gnu/libm.so.6
fminf                                             /lib/x86_64-linux-gnu/libm.so.6
fminf128                                          /lib/x86_64-linux-gnu/libm.so.6
fminf128@@GLIBC_2.26                              /lib/x86_64-linux-gnu/libm.so.6
fminf128@GLIBC_2.26                               /lib/x86_64-linux-gnu/libm.so.6
fminf32                                           /lib/x86_64-linux-gnu/libm.so.6
fminf32@@GLIBC_2.27                               /lib/x86_64-linux-gnu/libm.so.6
fminf32@GLIBC_2.27                                /lib/x86_64-linux-gnu/libm.so.6
fminf32x                                          /lib/x86_64-linux-gnu/libm.so.6
fminf32x@@GLIBC_2.27                              /lib/x86_64-linux-gnu/libm.so.6
fminf32x@GLIBC_2.27                               /lib/x86_64-linux-gnu/libm.so.6
fminf64                                           /lib/x86_64-linux-gnu/libm.so.6
fminf64@@GLIBC_2.27                               /lib/x86_64-linux-gnu/libm.so.6
fminf64@GLIBC_2.27                                /lib/x86_64-linux-gnu/libm.so.6
fminf64x                                          /lib/x86_64-linux-gnu/libm.so.6
fminf64x@@GLIBC_2.27                              /lib/x86_64-linux-gnu/libm.so.6
fminf64x@GLIBC_2.27                               /lib/x86_64-linux-gnu/libm.so.6
fminf@@GLIBC_2.2.5                                /lib/x86_64-linux-gnu/libm.so.6
fminf@GLIBC_2.2.5                                 /lib/x86_64-linux-gnu/libm.so.6
fminl                                             /lib/x86_64-linux-gnu/libm.so.6
fminl@@GLIBC_2.2.5                                /lib/x86_64-linux-gnu/libm.so.6
fminl@GLIBC_2.2.5                                 /lib/x86_64-linux-gnu/libm.so.6
fminmag                                           /lib/x86_64-linux-gnu/libm.so.6
fminmag@@GLIBC_2.25                               /lib/x86_64-linux-gnu/libm.so.6
fminmag@GLIBC_2.25                                /lib/x86_64-linux-gnu/libm.so.6
fminmagf                                          /lib/x86_64-linux-gnu/libm.so.6
fminmagf128                                       /lib/x86_64-linux-gnu/libm.so.6
fminmagf128@@GLIBC_2.26                           /lib/x86_64-linux-gnu/libm.so.6
fminmagf128@GLIBC_2.26                            /lib/x86_64-linux-gnu/libm.so.6
fminmagf32                                        /lib/x86_64-linux-gnu/libm.so.6
fminmagf32@@GLIBC_2.27                            /lib/x86_64-linux-gnu/libm.so.6
fminmagf32@GLIBC_2.27                             /lib/x86_64-linux-gnu/libm.so.6
fminmagf32x                                       /lib/x86_64-linux-gnu/libm.so.6
fminmagf32x@@GLIBC_2.27                           /lib/x86_64-linux-gnu/libm.so.6
fminmagf32x@GLIBC_2.27                            /lib/x86_64-linux-gnu/libm.so.6
fminmagf64                                        /lib/x86_64-linux-gnu/libm.so.6
fminmagf64@@GLIBC_2.27                            /lib/x86_64-linux-gnu/libm.so.6
fminmagf64@GLIBC_2.27                             /lib/x86_64-linux-gnu/libm.so.6
fminmagf64x                                       /lib/x86_64-linux-gnu/libm.so.6
fminmagf64x@@GLIBC_2.27                           /lib/x86_64-linux-gnu/libm.so.6
fminmagf64x@GLIBC_2.27                            /lib/x86_64-linux-gnu/libm.so.6
fminmagf@@GLIBC_2.25                              /lib/x86_64-linux-gnu/libm.so.6
fminmagf@GLIBC_2.25                               /lib/x86_64-linux-gnu/libm.so.6
fminmagl                                          /lib/x86_64-linux-gnu/libm.so.6
fminmagl@@GLIBC_2.25                              /lib/x86_64-linux-gnu/libm.so.6
fminmagl@GLIBC_2.25                               /lib/x86_64-linux-gnu/libm.so.6
fmod                                              /lib/x86_64-linux-gnu/libm.so.6
fmod@@GLIBC_2.2.5                                 /lib/x86_64-linux-gnu/libm.so.6
fmod@GLIBC_2.2.5                                  /lib/x86_64-linux-gnu/libm.so.6
fmodf                                             /lib/x86_64-linux-gnu/libm.so.6
fmodf128                                          /lib/x86_64-linux-gnu/libm.so.6
fmodf128@@GLIBC_2.26                              /lib/x86_64-linux-gnu/libm.so.6
fmodf128@GLIBC_2.26                               /lib/x86_64-linux-gnu/libm.so.6
fmodf32                                           /lib/x86_64-linux-gnu/libm.so.6
fmodf32@@GLIBC_2.27                               /lib/x86_64-linux-gnu/libm.so.6
fmodf32@GLIBC_2.27                                /lib/x86_64-linux-gnu/libm.so.6
fmodf32x                                          /lib/x86_64-linux-gnu/libm.so.6
fmodf32x@@GLIBC_2.27                              /lib/x86_64-linux-gnu/libm.so.6
fmodf32x@GLIBC_2.27                               /lib/x86_64-linux-gnu/libm.so.6
fmodf64                                           /lib/x86_64-linux-gnu/libm.so.6
fmodf64@@GLIBC_2.27                               /lib/x86_64-linux-gnu/libm.so.6
fmodf64@GLIBC_2.27                                /lib/x86_64-linux-gnu/libm.so.6
fmodf64x                                          /lib/x86_64-linux-gnu/libm.so.6
fmodf64x@@GLIBC_2.27                              /lib/x86_64-linux-gnu/libm.so.6
fmodf64x@GLIBC_2.27                               /lib/x86_64-linux-gnu/libm.so.6
fmodf@@GLIBC_2.2.5                                /lib/x86_64-linux-gnu/libm.so.6
fmodf@GLIBC_2.2.5                                 /lib/x86_64-linux-gnu/libm.so.6
fmodl                                             /lib/x86_64-linux-gnu/libm.so.6
fmodl@@GLIBC_2.2.5                                /lib/x86_64-linux-gnu/libm.so.6
fmodl@GLIBC_2.2.5                                 /lib/x86_64-linux-gnu/libm.so.6
fopen64                                           /lib/x86_64-linux-gnu/libc.so.6
fopen64@@GLIBC_2.2.5                              /lib/x86_64-linux-gnu/libc.so.6
fopen64@GLIBC_2.2.5                               /lib/x86_64-linux-gnu/libc.so.6
force_closest_q                                   ../../lib/libbtsystem.a(btmath.o)
fork                                              /lib/x86_64-linux-gnu/libc.so.6
fork@@GLIBC_2.2.5                                 /lib/x86_64-linux-gnu/libc.so.6
fpathconf                                         /lib/x86_64-linux-gnu/libc.so.6
fpathconf@@GLIBC_2.2.5                            /lib/x86_64-linux-gnu/libc.so.6
fpathconf@GLIBC_2.2.5                             /lib/x86_64-linux-gnu/libc.so.6
fputs                                             /lib/x86_64-linux-gnu/libc.so.6
                                                  ../../lib/libbtsystem.a(btparser.o)
                                                  ../../lib/libbtsystem.a(btlogger.o)
fputs@@GLIBC_2.2.5                                /lib/x86_64-linux-gnu/libc.so.6
fputs@GLIBC_2.2.5                                 /lib/x86_64-linux-gnu/libc.so.6
                                                  /usr/lib/libcobalt.so
                                                  /lib/x86_64-linux-gnu/libm.so.6
fputs_unlocked                                    /lib/x86_64-linux-gnu/libc.so.6
fputs_unlocked@@GLIBC_2.2.5                       /lib/x86_64-linux-gnu/libc.so.6
fputs_unlocked@GLIBC_2.2.5                        /lib/x86_64-linux-gnu/libc.so.6
fread                                             /lib/x86_64-linux-gnu/libc.so.6
                                                  ../../lib/libbtsystem.a(btlogger.o)
fread@@GLIBC_2.2.5                                /lib/x86_64-linux-gnu/libc.so.6
fread@GLIBC_2.2.5                                 /lib/x86_64-linux-gnu/libc.so.6
fread_unlocked                                    /lib/x86_64-linux-gnu/libc.so.6
fread_unlocked@@GLIBC_2.2.5                       /lib/x86_64-linux-gnu/libc.so.6
fread_unlocked@GLIBC_2.2.5                        /lib/x86_64-linux-gnu/libc.so.6
freeCAN                                           ../../lib/libbtsystem.a(btcan_peakesd.o)
                                                  ../../lib/libbtsystem.a(btsystem.o)
free_btthread                                     ../../lib/libbtsystem.a(btos.o)
free_pwl                                          ../../lib/libbtsystem.a(btpath.o)
freebtptr                                         ../../lib/libbtsystem.a(btmath.o)
freeifaddrs                                       /lib/x86_64-linux-gnu/libc.so.6
freeifaddrs@@GLIBC_2.3                            /lib/x86_64-linux-gnu/libc.so.6
freeifaddrs@GLIBC_2.3                             /lib/x86_64-linux-gnu/libc.so.6
freelocale                                        /lib/x86_64-linux-gnu/libc.so.6
freelocale@@GLIBC_2.3                             /lib/x86_64-linux-gnu/libc.so.6
freelocale@GLIBC_2.3                              /lib/x86_64-linux-gnu/libc.so.6
frexp                                             /lib/x86_64-linux-gnu/libm.so.6
frexp@@GLIBC_2.2.5                                /lib/x86_64-linux-gnu/libm.so.6
                                                  /lib/x86_64-linux-gnu/libc.so.6
frexp@GLIBC_2.2.5                                 /lib/x86_64-linux-gnu/libm.so.6
frexpf                                            /lib/x86_64-linux-gnu/libm.so.6
frexpf128                                         /lib/x86_64-linux-gnu/libm.so.6
frexpf128@@GLIBC_2.26                             /lib/x86_64-linux-gnu/libm.so.6
frexpf128@GLIBC_2.26                              /lib/x86_64-linux-gnu/libm.so.6
frexpf32                                          /lib/x86_64-linux-gnu/libm.so.6
frexpf32@@GLIBC_2.27                              /lib/x86_64-linux-gnu/libm.so.6
frexpf32@GLIBC_2.27                               /lib/x86_64-linux-gnu/libm.so.6
frexpf32x                                         /lib/x86_64-linux-gnu/libm.so.6
frexpf32x@@GLIBC_2.27                             /lib/x86_64-linux-gnu/libm.so.6
frexpf32x@GLIBC_2.27                              /lib/x86_64-linux-gnu/libm.so.6
frexpf64                                          /lib/x86_64-linux-gnu/libm.so.6
frexpf64@@GLIBC_2.27                              /lib/x86_64-linux-gnu/libm.so.6
frexpf64@GLIBC_2.27                               /lib/x86_64-linux-gnu/libm.so.6
frexpf64x                                         /lib/x86_64-linux-gnu/libm.so.6
frexpf64x@@GLIBC_2.27                             /lib/x86_64-linux-gnu/libm.so.6
frexpf64x@GLIBC_2.27                              /lib/x86_64-linux-gnu/libm.so.6
frexpf@@GLIBC_2.2.5                               /lib/x86_64-linux-gnu/libm.so.6
                                                  /lib/x86_64-linux-gnu/libc.so.6
frexpf@GLIBC_2.2.5                                /lib/x86_64-linux-gnu/libm.so.6
frexpl                                            /lib/x86_64-linux-gnu/libm.so.6
frexpl@@GLIBC_2.2.5                               /lib/x86_64-linux-gnu/libm.so.6
                                                  /lib/x86_64-linux-gnu/libc.so.6
frexpl@GLIBC_2.2.5                                /lib/x86_64-linux-gnu/libm.so.6
fromfp                                            /lib/x86_64-linux-gnu/libm.so.6
fromfp@@GLIBC_2.25                                /lib/x86_64-linux-gnu/libm.so.6
fromfp@GLIBC_2.25                                 /lib/x86_64-linux-gnu/libm.so.6
fromfpf                                           /lib/x86_64-linux-gnu/libm.so.6
fromfpf128                                        /lib/x86_64-linux-gnu/libm.so.6
fromfpf128@@GLIBC_2.26                            /lib/x86_64-linux-gnu/libm.so.6
fromfpf128@GLIBC_2.26                             /lib/x86_64-linux-gnu/libm.so.6
fromfpf32                                         /lib/x86_64-linux-gnu/libm.so.6
fromfpf32@@GLIBC_2.27                             /lib/x86_64-linux-gnu/libm.so.6
fromfpf32@GLIBC_2.27                              /lib/x86_64-linux-gnu/libm.so.6
fromfpf32x                                        /lib/x86_64-linux-gnu/libm.so.6
fromfpf32x@@GLIBC_2.27                            /lib/x86_64-linux-gnu/libm.so.6
fromfpf32x@GLIBC_2.27                             /lib/x86_64-linux-gnu/libm.so.6
fromfpf64                                         /lib/x86_64-linux-gnu/libm.so.6
fromfpf64@@GLIBC_2.27                             /lib/x86_64-linux-gnu/libm.so.6
fromfpf64@GLIBC_2.27                              /lib/x86_64-linux-gnu/libm.so.6
fromfpf64x                                        /lib/x86_64-linux-gnu/libm.so.6
fromfpf64x@@GLIBC_2.27                            /lib/x86_64-linux-gnu/libm.so.6
fromfpf64x@GLIBC_2.27                             /lib/x86_64-linux-gnu/libm.so.6
fromfpf@@GLIBC_2.25                               /lib/x86_64-linux-gnu/libm.so.6
fromfpf@GLIBC_2.25                                /lib/x86_64-linux-gnu/libm.so.6
fromfpl                                           /lib/x86_64-linux-gnu/libm.so.6
fromfpl@@GLIBC_2.25                               /lib/x86_64-linux-gnu/libm.so.6
fromfpl@GLIBC_2.25                                /lib/x86_64-linux-gnu/libm.so.6
fromfpx                                           /lib/x86_64-linux-gnu/libm.so.6
fromfpx@@GLIBC_2.25                               /lib/x86_64-linux-gnu/libm.so.6
fromfpx@GLIBC_2.25                                /lib/x86_64-linux-gnu/libm.so.6
fromfpxf                                          /lib/x86_64-linux-gnu/libm.so.6
fromfpxf128                                       /lib/x86_64-linux-gnu/libm.so.6
fromfpxf128@@GLIBC_2.26                           /lib/x86_64-linux-gnu/libm.so.6
fromfpxf128@GLIBC_2.26                            /lib/x86_64-linux-gnu/libm.so.6
fromfpxf32                                        /lib/x86_64-linux-gnu/libm.so.6
fromfpxf32@@GLIBC_2.27                            /lib/x86_64-linux-gnu/libm.so.6
fromfpxf32@GLIBC_2.27                             /lib/x86_64-linux-gnu/libm.so.6
fromfpxf32x                                       /lib/x86_64-linux-gnu/libm.so.6
fromfpxf32x@@GLIBC_2.27                           /lib/x86_64-linux-gnu/libm.so.6
fromfpxf32x@GLIBC_2.27                            /lib/x86_64-linux-gnu/libm.so.6
fromfpxf64                                        /lib/x86_64-linux-gnu/libm.so.6
fromfpxf64@@GLIBC_2.27                            /lib/x86_64-linux-gnu/libm.so.6
fromfpxf64@GLIBC_2.27                             /lib/x86_64-linux-gnu/libm.so.6
fromfpxf64x                                       /lib/x86_64-linux-gnu/libm.so.6
fromfpxf64x@@GLIBC_2.27                           /lib/x86_64-linux-gnu/libm.so.6
fromfpxf64x@GLIBC_2.27                            /lib/x86_64-linux-gnu/libm.so.6
fromfpxf@@GLIBC_2.25                              /lib/x86_64-linux-gnu/libm.so.6
fromfpxf@GLIBC_2.25                               /lib/x86_64-linux-gnu/libm.so.6
fromfpxl                                          /lib/x86_64-linux-gnu/libm.so.6
fromfpxl@@GLIBC_2.25                              /lib/x86_64-linux-gnu/libm.so.6
fromfpxl@GLIBC_2.25                               /lib/x86_64-linux-gnu/libm.so.6
fseeko64                                          /lib/x86_64-linux-gnu/libc.so.6
fseeko64@@GLIBC_2.2.5                             /lib/x86_64-linux-gnu/libc.so.6
fseeko64@GLIBC_2.2.5                              /lib/x86_64-linux-gnu/libc.so.6
fstatfs                                           /lib/x86_64-linux-gnu/libc.so.6
fstatfs64                                         /lib/x86_64-linux-gnu/libc.so.6
fstatfs64@@GLIBC_2.2.5                            /lib/x86_64-linux-gnu/libc.so.6
fstatfs64@GLIBC_2.2.5                             /lib/x86_64-linux-gnu/libc.so.6
fstatfs@@GLIBC_2.2.5                              /lib/x86_64-linux-gnu/libc.so.6
fstatfs@GLIBC_2.2.5                               /lib/x86_64-linux-gnu/libc.so.6
fstatvfs                                          /lib/x86_64-linux-gnu/libc.so.6
fstatvfs64                                        /lib/x86_64-linux-gnu/libc.so.6
fstatvfs64@@GLIBC_2.2.5                           /lib/x86_64-linux-gnu/libc.so.6
fstatvfs64@GLIBC_2.2.5                            /lib/x86_64-linux-gnu/libc.so.6
fstatvfs@@GLIBC_2.2.5                             /lib/x86_64-linux-gnu/libc.so.6
fstatvfs@GLIBC_2.2.5                              /lib/x86_64-linux-gnu/libc.so.6
ftell                                             /lib/x86_64-linux-gnu/libc.so.6
                                                  ../../lib/libbtsystem.a(btparser.o)
ftell@@GLIBC_2.2.5                                /lib/x86_64-linux-gnu/libc.so.6
ftell@GLIBC_2.2.5                                 /lib/x86_64-linux-gnu/libc.so.6
ftello                                            /lib/x86_64-linux-gnu/libc.so.6
ftello64                                          /lib/x86_64-linux-gnu/libc.so.6
ftello64@@GLIBC_2.2.5                             /lib/x86_64-linux-gnu/libc.so.6
ftello64@GLIBC_2.2.5                              /lib/x86_64-linux-gnu/libc.so.6
ftello@@GLIBC_2.2.5                               /lib/x86_64-linux-gnu/libc.so.6
ftello@GLIBC_2.2.5                                /lib/x86_64-linux-gnu/libc.so.6
ftruncate                                         /lib/x86_64-linux-gnu/libc.so.6
ftruncate64                                       /lib/x86_64-linux-gnu/libc.so.6
ftruncate64@@GLIBC_2.2.5                          /lib/x86_64-linux-gnu/libc.so.6
ftruncate64@GLIBC_2.2.5                           /lib/x86_64-linux-gnu/libc.so.6
ftruncate@@GLIBC_2.2.5                            /lib/x86_64-linux-gnu/libc.so.6
ftruncate@GLIBC_2.2.5                             /lib/x86_64-linux-gnu/libc.so.6
ftrylockfile                                      /lib/x86_64-linux-gnu/libpthread.so.0
ftrylockfile@@GLIBC_2.2.5                         /lib/x86_64-linux-gnu/libpthread.so.0
                                                  /lib/x86_64-linux-gnu/libc.so.6
ftrylockfile@GLIBC_2.2.5                          /lib/x86_64-linux-gnu/libpthread.so.0
fts64_children                                    /lib/x86_64-linux-gnu/libc.so.6
fts64_children@@GLIBC_2.23                        /lib/x86_64-linux-gnu/libc.so.6
fts64_children@GLIBC_2.23                         /lib/x86_64-linux-gnu/libc.so.6
fts64_close                                       /lib/x86_64-linux-gnu/libc.so.6
fts64_close@@GLIBC_2.23                           /lib/x86_64-linux-gnu/libc.so.6
fts64_close@GLIBC_2.23                            /lib/x86_64-linux-gnu/libc.so.6
fts64_open                                        /lib/x86_64-linux-gnu/libc.so.6
fts64_open@@GLIBC_2.23                            /lib/x86_64-linux-gnu/libc.so.6
fts64_open@GLIBC_2.23                             /lib/x86_64-linux-gnu/libc.so.6
fts64_read                                        /lib/x86_64-linux-gnu/libc.so.6
fts64_read@@GLIBC_2.23                            /lib/x86_64-linux-gnu/libc.so.6
fts64_read@GLIBC_2.23                             /lib/x86_64-linux-gnu/libc.so.6
fts64_set                                         /lib/x86_64-linux-gnu/libc.so.6
fts64_set@@GLIBC_2.23                             /lib/x86_64-linux-gnu/libc.so.6
fts64_set@GLIBC_2.23                              /lib/x86_64-linux-gnu/libc.so.6
ftw64                                             /lib/x86_64-linux-gnu/libc.so.6
ftw64@@GLIBC_2.2.5                                /lib/x86_64-linux-gnu/libc.so.6
ftw64@GLIBC_2.2.5                                 /lib/x86_64-linux-gnu/libc.so.6
funlockfile                                       /lib/x86_64-linux-gnu/libpthread.so.0
funlockfile@@GLIBC_2.2.5                          /lib/x86_64-linux-gnu/libpthread.so.0
                                                  /lib/x86_64-linux-gnu/libc.so.6
funlockfile@GLIBC_2.2.5                           /lib/x86_64-linux-gnu/libpthread.so.0
futimes                                           /lib/x86_64-linux-gnu/libc.so.6
futimes@@GLIBC_2.3                                /lib/x86_64-linux-gnu/libc.so.6
futimes@GLIBC_2.3                                 /lib/x86_64-linux-gnu/libc.so.6
fwprintf                                          /lib/x86_64-linux-gnu/libc.so.6
fwprintf@@GLIBC_2.2.5                             /lib/x86_64-linux-gnu/libc.so.6
fwprintf@GLIBC_2.2.5                              /lib/x86_64-linux-gnu/libc.so.6
fwrite                                            /lib/x86_64-linux-gnu/libc.so.6
                                                  ../../lib/libbtsystem.a(btlogger.o)
fwrite@@GLIBC_2.2.5                               /lib/x86_64-linux-gnu/libc.so.6
fwrite@GLIBC_2.2.5                                /lib/x86_64-linux-gnu/libc.so.6
                                                  /usr/lib/libcobalt.so
                                                  /usr/lib/libcopperplate.so
                                                  /usr/lib/libalchemy.so
                                                  /lib/x86_64-linux-gnu/libm.so.6
gamma                                             /lib/x86_64-linux-gnu/libm.so.6
gamma@@GLIBC_2.2.5                                /lib/x86_64-linux-gnu/libm.so.6
gamma@GLIBC_2.2.5                                 /lib/x86_64-linux-gnu/libm.so.6
gammaf                                            /lib/x86_64-linux-gnu/libm.so.6
gammaf@@GLIBC_2.2.5                               /lib/x86_64-linux-gnu/libm.so.6
gammaf@GLIBC_2.2.5                                /lib/x86_64-linux-gnu/libm.so.6
gammal                                            /lib/x86_64-linux-gnu/libm.so.6
gammal@@GLIBC_2.2.5                               /lib/x86_64-linux-gnu/libm.so.6
gammal@GLIBC_2.2.5                                /lib/x86_64-linux-gnu/libm.so.6
getBusStatus                                      ../../lib/libbtsystem.a(btcan_peakesd.o)
                                                  ../../lib/libbtsystem.a(btsystem.o)
getGimbalsAngles                                  ../../lib/libbtwam.a(gimbals.o)
getKey                                            ../../lib/libbtsystem.a(btparser.o)
getLagrangian4                                    ../../lib/libbtwam.a(btwam.o)
getPositions                                      ../../lib/libbtsystem.a(btcan_peakesd.o)
                                                  ../../lib/libbtsystem.a(btsystem.o)
getProperty                                       ../../lib/libbtsystem.a(btcan_peakesd.o)
                                                  ../../lib/libbtsystem.a(btsystem.o)
                                                  ../../lib/libbtwam.a(btwam.o)
get_avphys_pages                                  /lib/x86_64-linux-gnu/libc.so.6
get_avphys_pages@@GLIBC_2.2.5                     /lib/x86_64-linux-gnu/libc.so.6
get_avphys_pages@GLIBC_2.2.5                      /lib/x86_64-linux-gnu/libc.so.6
get_btramp                                        ../../lib/libbtsystem.a(btstatecontrol.o)
get_current_idx_vta                               ../../lib/libbtsystem.a(btcontrol.o)
get_current_point_vta                             ../../lib/libbtsystem.a(btcontrol.o)
get_gravity_bot                                   ../../lib/libbtsystem.a(btrobot.o)
                                                  ../../lib/libbtwam.a(btwam.o)
get_gravity_bot_calibrated                        ../../lib/libbtsystem.a(btrobot.o)
                                                  ../../lib/libbtwam.a(btwam.o)
get_gravity_bot_is_calibrated                     ../../lib/libbtsystem.a(btrobot.o)
                                                  ../../lib/libbtwam.a(btwam.o)
get_gravity_torques                               ../../lib/libbtsystem.a(btrobot.o)
                                                  ../../lib/libbtwam.a(btwam.o)
get_nprocs                                        /lib/x86_64-linux-gnu/libc.so.6
get_nprocs@@GLIBC_2.2.5                           /lib/x86_64-linux-gnu/libc.so.6
get_nprocs@GLIBC_2.2.5                            /lib/x86_64-linux-gnu/libc.so.6
get_nprocs_conf                                   /lib/x86_64-linux-gnu/libc.so.6
get_nprocs_conf@@GLIBC_2.2.5                      /lib/x86_64-linux-gnu/libc.so.6
get_nprocs_conf@GLIBC_2.2.5                       /lib/x86_64-linux-gnu/libc.so.6
get_phys_pages                                    /lib/x86_64-linux-gnu/libc.so.6
get_phys_pages@@GLIBC_2.2.5                       /lib/x86_64-linux-gnu/libc.so.6
get_phys_pages@GLIBC_2.2.5                        /lib/x86_64-linux-gnu/libc.so.6
get_segment_pwl                                   ../../lib/libbtsystem.a(btpath.o)
get_t_bot                                         ../../lib/libbtsystem.a(btrobot.o)
                                                  ../../lib/libbtwam.a(btwam.o)
get_trjstate_bts                                  ../../lib/libbtsystem.a(btstatecontrol.o)
                                                  ../../lib/libbtwam.a(btwam.o)
get_vr_vta                                        ../../lib/libbtsystem.a(btcontrol.o)
getauxval                                         /lib/x86_64-linux-gnu/libc.so.6
getauxval@@GLIBC_2.16                             /lib/x86_64-linux-gnu/libc.so.6
getauxval@GLIBC_2.16                              /lib/x86_64-linux-gnu/libc.so.6
getc                                              /lib/x86_64-linux-gnu/libc.so.6
getc@@GLIBC_2.2.5                                 /lib/x86_64-linux-gnu/libc.so.6
getc@GLIBC_2.2.5                                  /lib/x86_64-linux-gnu/libc.so.6
getc_unlocked                                     /lib/x86_64-linux-gnu/libc.so.6
getc_unlocked@@GLIBC_2.2.5                        /lib/x86_64-linux-gnu/libc.so.6
getc_unlocked@GLIBC_2.2.5                         /lib/x86_64-linux-gnu/libc.so.6
getcol_m3                                         ../../lib/libbtsystem.a(btmath.o)
                                                  ../../lib/libbtwam.a(btwam.o)
getcol_mh                                         ../../lib/libbtsystem.a(btmath.o)
                                                  ../../lib/libbtsystem.a(btrobot.o)
getcol_mn                                         ../../lib/libbtsystem.a(btmath.o)
getcontext                                        /lib/x86_64-linux-gnu/libc.so.6
getcontext@@GLIBC_2.2.5                           /lib/x86_64-linux-gnu/libc.so.6
getcontext@GLIBC_2.2.5                            /lib/x86_64-linux-gnu/libc.so.6
getcwd                                            /lib/x86_64-linux-gnu/libc.so.6
getcwd@@GLIBC_2.2.5                               /lib/x86_64-linux-gnu/libc.so.6
getcwd@GLIBC_2.2.5                                /lib/x86_64-linux-gnu/libc.so.6
getdate_r                                         /lib/x86_64-linux-gnu/libc.so.6
getdate_r@@GLIBC_2.2.5                            /lib/x86_64-linux-gnu/libc.so.6
getdate_r@GLIBC_2.2.5                             /lib/x86_64-linux-gnu/libc.so.6
getdelim                                          /lib/x86_64-linux-gnu/libc.so.6
getdelim@@GLIBC_2.2.5                             /lib/x86_64-linux-gnu/libc.so.6
getdelim@GLIBC_2.2.5                              /lib/x86_64-linux-gnu/libc.so.6
getdirentries64                                   /lib/x86_64-linux-gnu/libc.so.6
getdirentries64@@GLIBC_2.2.5                      /lib/x86_64-linux-gnu/libc.so.6
getdirentries64@GLIBC_2.2.5                       /lib/x86_64-linux-gnu/libc.so.6
getdtablesize                                     /lib/x86_64-linux-gnu/libc.so.6
getdtablesize@@GLIBC_2.2.5                        /lib/x86_64-linux-gnu/libc.so.6
getdtablesize@GLIBC_2.2.5                         /lib/x86_64-linux-gnu/libc.so.6
getegid                                           /lib/x86_64-linux-gnu/libc.so.6
getegid@@GLIBC_2.2.5                              /lib/x86_64-linux-gnu/libc.so.6
getegid@GLIBC_2.2.5                               /lib/x86_64-linux-gnu/libc.so.6
geteuid                                           /lib/x86_64-linux-gnu/libc.so.6
geteuid@@GLIBC_2.2.5                              /lib/x86_64-linux-gnu/libc.so.6
geteuid@GLIBC_2.2.5                               /lib/x86_64-linux-gnu/libc.so.6
                                                  /usr/lib/libcobalt.so
                                                  /usr/lib/libcopperplate.so
getgains_btPID                                    ../../lib/libbtsystem.a(btcontrol.o)
getgid                                            /lib/x86_64-linux-gnu/libc.so.6
getgid@@GLIBC_2.2.5                               /lib/x86_64-linux-gnu/libc.so.6
getgid@GLIBC_2.2.5                                /lib/x86_64-linux-gnu/libc.so.6
getgroups                                         /lib/x86_64-linux-gnu/libc.so.6
getgroups@@GLIBC_2.2.5                            /lib/x86_64-linux-gnu/libc.so.6
getgroups@GLIBC_2.2.5                             /lib/x86_64-linux-gnu/libc.so.6
gethostname                                       /lib/x86_64-linux-gnu/libc.so.6
gethostname@@GLIBC_2.2.5                          /lib/x86_64-linux-gnu/libc.so.6
gethostname@GLIBC_2.2.5                           /lib/x86_64-linux-gnu/libc.so.6
getifaddrs                                        /lib/x86_64-linux-gnu/libc.so.6
getifaddrs@@GLIBC_2.3                             /lib/x86_64-linux-gnu/libc.so.6
getifaddrs@GLIBC_2.3                              /lib/x86_64-linux-gnu/libc.so.6
getinputs_btPID                                   ../../lib/libbtsystem.a(btcontrol.o)
getitimer                                         /lib/x86_64-linux-gnu/libc.so.6
getitimer@@GLIBC_2.2.5                            /lib/x86_64-linux-gnu/libc.so.6
getitimer@GLIBC_2.2.5                             /lib/x86_64-linux-gnu/libc.so.6
getline                                           /lib/x86_64-linux-gnu/libc.so.6
getline@@GLIBC_2.2.5                              /lib/x86_64-linux-gnu/libc.so.6
getline@GLIBC_2.2.5                               /lib/x86_64-linux-gnu/libc.so.6
getlogin_r                                        /lib/x86_64-linux-gnu/libc.so.6
getlogin_r@@GLIBC_2.2.5                           /lib/x86_64-linux-gnu/libc.so.6
getlogin_r@GLIBC_2.2.5                            /lib/x86_64-linux-gnu/libc.so.6
getmntent_r                                       /lib/x86_64-linux-gnu/libc.so.6
getmntent_r@@GLIBC_2.2.5                          /lib/x86_64-linux-gnu/libc.so.6
getmntent_r@GLIBC_2.2.5                           /lib/x86_64-linux-gnu/libc.so.6
getmode_bts                                       ../../lib/libbtsystem.a(btstatecontrol.o)
                                                  ../../lib/libbtwam.a(btwam.o)
getnetgrent_r                                     /lib/x86_64-linux-gnu/libc.so.6
getnetgrent_r@@GLIBC_2.2.5                        /lib/x86_64-linux-gnu/libc.so.6
getnetgrent_r@GLIBC_2.2.5                         /lib/x86_64-linux-gnu/libc.so.6
getnodes_pwl                                      ../../lib/libbtsystem.a(btpath.o)
getpagesize                                       /lib/x86_64-linux-gnu/libc.so.6
getpagesize@@GLIBC_2.2.5                          /lib/x86_64-linux-gnu/libc.so.6
getpagesize@GLIBC_2.2.5                           /lib/x86_64-linux-gnu/libc.so.6
                                                  /usr/lib/libcobalt.so
getpayload                                        /lib/x86_64-linux-gnu/libm.so.6
getpayload@@GLIBC_2.25                            /lib/x86_64-linux-gnu/libm.so.6
getpayload@GLIBC_2.25                             /lib/x86_64-linux-gnu/libm.so.6
getpayloadf                                       /lib/x86_64-linux-gnu/libm.so.6
getpayloadf128                                    /lib/x86_64-linux-gnu/libm.so.6
getpayloadf128@@GLIBC_2.26                        /lib/x86_64-linux-gnu/libm.so.6
getpayloadf128@GLIBC_2.26                         /lib/x86_64-linux-gnu/libm.so.6
getpayloadf32                                     /lib/x86_64-linux-gnu/libm.so.6
getpayloadf32@@GLIBC_2.27                         /lib/x86_64-linux-gnu/libm.so.6
getpayloadf32@GLIBC_2.27                          /lib/x86_64-linux-gnu/libm.so.6
getpayloadf32x                                    /lib/x86_64-linux-gnu/libm.so.6
getpayloadf32x@@GLIBC_2.27                        /lib/x86_64-linux-gnu/libm.so.6
getpayloadf32x@GLIBC_2.27                         /lib/x86_64-linux-gnu/libm.so.6
getpayloadf64                                     /lib/x86_64-linux-gnu/libm.so.6
getpayloadf64@@GLIBC_2.27                         /lib/x86_64-linux-gnu/libm.so.6
getpayloadf64@GLIBC_2.27                          /lib/x86_64-linux-gnu/libm.so.6
getpayloadf64x                                    /lib/x86_64-linux-gnu/libm.so.6
getpayloadf64x@@GLIBC_2.27                        /lib/x86_64-linux-gnu/libm.so.6
getpayloadf64x@GLIBC_2.27                         /lib/x86_64-linux-gnu/libm.so.6
getpayloadf@@GLIBC_2.25                           /lib/x86_64-linux-gnu/libm.so.6
getpayloadf@GLIBC_2.25                            /lib/x86_64-linux-gnu/libm.so.6
getpayloadl                                       /lib/x86_64-linux-gnu/libm.so.6
getpayloadl@@GLIBC_2.25                           /lib/x86_64-linux-gnu/libm.so.6
getpayloadl@GLIBC_2.25                            /lib/x86_64-linux-gnu/libm.so.6
getpeername                                       /lib/x86_64-linux-gnu/libc.so.6
getpeername@@GLIBC_2.2.5                          /lib/x86_64-linux-gnu/libc.so.6
getpeername@GLIBC_2.2.5                           /lib/x86_64-linux-gnu/libc.so.6
                                                  /usr/lib/libcobalt.so
getpgid                                           /lib/x86_64-linux-gnu/libc.so.6
getpgid@@GLIBC_2.2.5                              /lib/x86_64-linux-gnu/libc.so.6
getpgid@GLIBC_2.2.5                               /lib/x86_64-linux-gnu/libc.so.6
getpid                                            /lib/x86_64-linux-gnu/libc.so.6
getpid@@GLIBC_2.2.5                               /lib/x86_64-linux-gnu/libc.so.6
getpid@GLIBC_2.2.5                                /lib/x86_64-linux-gnu/libc.so.6
                                                  /usr/lib/gcc/x86_64-linux-gnu/7/../../../x86_64-linux-gnu/librt.so
                                                  /lib/x86_64-linux-gnu/libpthread.so.0
getppid                                           /lib/x86_64-linux-gnu/libc.so.6
getppid@@GLIBC_2.2.5                              /lib/x86_64-linux-gnu/libc.so.6
getppid@GLIBC_2.2.5                               /lib/x86_64-linux-gnu/libc.so.6
getpriority                                       /lib/x86_64-linux-gnu/libc.so.6
getpriority@@GLIBC_2.2.5                          /lib/x86_64-linux-gnu/libc.so.6
getpriority@GLIBC_2.2.5                           /lib/x86_64-linux-gnu/libc.so.6
getpt                                             /lib/x86_64-linux-gnu/libc.so.6
getpt@@GLIBC_2.2.5                                /lib/x86_64-linux-gnu/libc.so.6
getpt@GLIBC_2.2.5                                 /lib/x86_64-linux-gnu/libc.so.6
getpw                                             /lib/x86_64-linux-gnu/libc.so.6
getpw@@GLIBC_2.2.5                                /lib/x86_64-linux-gnu/libc.so.6
getpw@GLIBC_2.2.5                                 /lib/x86_64-linux-gnu/libc.so.6
getrlimit                                         /lib/x86_64-linux-gnu/libc.so.6
getrlimit64                                       /lib/x86_64-linux-gnu/libc.so.6
getrlimit64@@GLIBC_2.2.5                          /lib/x86_64-linux-gnu/libc.so.6
getrlimit64@GLIBC_2.2.5                           /lib/x86_64-linux-gnu/libc.so.6
getrlimit@@GLIBC_2.2.5                            /lib/x86_64-linux-gnu/libc.so.6
getrlimit@GLIBC_2.2.5                             /lib/x86_64-linux-gnu/libc.so.6
                                                  /lib/x86_64-linux-gnu/libpthread.so.0
getrusage                                         /lib/x86_64-linux-gnu/libc.so.6
getrusage@@GLIBC_2.2.5                            /lib/x86_64-linux-gnu/libc.so.6
getrusage@GLIBC_2.2.5                             /lib/x86_64-linux-gnu/libc.so.6
gets                                              /lib/x86_64-linux-gnu/libc.so.6
gets@@GLIBC_2.2.5                                 /lib/x86_64-linux-gnu/libc.so.6
gets@GLIBC_2.2.5                                  /lib/x86_64-linux-gnu/libc.so.6
getsaturation_btPID                               ../../lib/libbtsystem.a(btcontrol.o)
getsockname                                       /lib/x86_64-linux-gnu/libc.so.6
getsockname@@GLIBC_2.2.5                          /lib/x86_64-linux-gnu/libc.so.6
getsockname@GLIBC_2.2.5                           /lib/x86_64-linux-gnu/libc.so.6
                                                  /usr/lib/libcobalt.so
getsockopt                                        /lib/x86_64-linux-gnu/libc.so.6
getsockopt@@GLIBC_2.2.5                           /lib/x86_64-linux-gnu/libc.so.6
getsockopt@GLIBC_2.2.5                            /lib/x86_64-linux-gnu/libc.so.6
                                                  /usr/lib/libcobalt.so
getstate_btramp                                   ../../lib/libbtsystem.a(btstatecontrol.o)
getstate_pavn                                     ../../lib/libbtsystem.a(btseg.o)
                                                  ../../lib/libbtsystem.a(btcontrol.o)
gettext                                           /lib/x86_64-linux-gnu/libc.so.6
gettext@@GLIBC_2.2.5                              /lib/x86_64-linux-gnu/libc.so.6
gettext@GLIBC_2.2.5                               /lib/x86_64-linux-gnu/libc.so.6
gettimeofday                                      /lib/x86_64-linux-gnu/libc.so.6
gettimeofday@@GLIBC_2.2.5                         /lib/x86_64-linux-gnu/libc.so.6
gettimeofday@GLIBC_2.2.5                          /lib/x86_64-linux-gnu/libc.so.6
                                                  /usr/lib/libcobalt.so
getttyent                                         /lib/x86_64-linux-gnu/libc.so.6
getttyent@@GLIBC_2.2.5                            /lib/x86_64-linux-gnu/libc.so.6
getttyent@GLIBC_2.2.5                             /lib/x86_64-linux-gnu/libc.so.6
getttynam                                         /lib/x86_64-linux-gnu/libc.so.6
getttynam@@GLIBC_2.2.5                            /lib/x86_64-linux-gnu/libc.so.6
getttynam@GLIBC_2.2.5                             /lib/x86_64-linux-gnu/libc.so.6
getuid                                            /lib/x86_64-linux-gnu/libc.so.6
getuid@@GLIBC_2.2.5                               /lib/x86_64-linux-gnu/libc.so.6
getuid@GLIBC_2.2.5                                /lib/x86_64-linux-gnu/libc.so.6
                                                  /usr/lib/gcc/x86_64-linux-gnu/7/../../../x86_64-linux-gnu/librt.so
                                                  /lib/x86_64-linux-gnu/libpthread.so.0
getutent                                          /lib/x86_64-linux-gnu/libc.so.6
getutent@@GLIBC_2.2.5                             /lib/x86_64-linux-gnu/libc.so.6
getutent@GLIBC_2.2.5                              /lib/x86_64-linux-gnu/libc.so.6
getutent_r                                        /lib/x86_64-linux-gnu/libc.so.6
getutent_r@@GLIBC_2.2.5                           /lib/x86_64-linux-gnu/libc.so.6
getutent_r@GLIBC_2.2.5                            /lib/x86_64-linux-gnu/libc.so.6
getutid                                           /lib/x86_64-linux-gnu/libc.so.6
getutid@@GLIBC_2.2.5                              /lib/x86_64-linux-gnu/libc.so.6
getutid@GLIBC_2.2.5                               /lib/x86_64-linux-gnu/libc.so.6
getutid_r                                         /lib/x86_64-linux-gnu/libc.so.6
getutid_r@@GLIBC_2.2.5                            /lib/x86_64-linux-gnu/libc.so.6
getutid_r@GLIBC_2.2.5                             /lib/x86_64-linux-gnu/libc.so.6
getutline                                         /lib/x86_64-linux-gnu/libc.so.6
getutline@@GLIBC_2.2.5                            /lib/x86_64-linux-gnu/libc.so.6
getutline@GLIBC_2.2.5                             /lib/x86_64-linux-gnu/libc.so.6
getutline_r                                       /lib/x86_64-linux-gnu/libc.so.6
getutline_r@@GLIBC_2.2.5                          /lib/x86_64-linux-gnu/libc.so.6
getutline_r@GLIBC_2.2.5                           /lib/x86_64-linux-gnu/libc.so.6
getval_m3                                         ../../lib/libbtsystem.a(btmath.o)
getval_mh                                         ../../lib/libbtsystem.a(btmath.o)
getval_mn                                         ../../lib/libbtsystem.a(btmath.o)
getval_pwl                                        ../../lib/libbtsystem.a(btpath.o)
                                                  ../../lib/libbtsystem.a(btstatecontrol.o)
getval_q                                          ../../lib/libbtsystem.a(btmath.o)
getval_v3                                         ../../lib/libbtsystem.a(btmath.o)
                                                  ../../lib/libbtsystem.a(btrobot.o)
getval_vn                                         ../../lib/libbtsystem.a(btmath.o)
                                                  ../../lib/libbtsystem.a(btpath.o)
                                                  ../../lib/libbtsystem.a(btseg.o)
                                                  ../../lib/libbtsystem.a(btcontrol.o)
                                                  ../../lib/libbtsystem.a(btrobot.o)
                                                  ../../lib/libbtwam.a(btwam.o)
getvn_vr                                          ../../lib/libbtsystem.a(btmath.o)
                                                  ../../lib/libbtsystem.a(btpath.o)
getwc                                             /lib/x86_64-linux-gnu/libc.so.6
getwc@@GLIBC_2.2.5                                /lib/x86_64-linux-gnu/libc.so.6
getwc@GLIBC_2.2.5                                 /lib/x86_64-linux-gnu/libc.so.6
getwc_unlocked                                    /lib/x86_64-linux-gnu/libc.so.6
getwc_unlocked@@GLIBC_2.2.5                       /lib/x86_64-linux-gnu/libc.so.6
getwc_unlocked@GLIBC_2.2.5                        /lib/x86_64-linux-gnu/libc.so.6
gimbalsGain                                       ../../lib/libbtwam.a(gimbals.o)
gimbalsInit                                       ../../lib/libbtwam.a(gimbals.o)
                                                  ../../lib/libbtwam.a(btwam.o)
gimbalsOffset                                     ../../lib/libbtwam.a(gimbals.o)
glob_pattern_p                                    /lib/x86_64-linux-gnu/libc.so.6
glob_pattern_p@@GLIBC_2.2.5                       /lib/x86_64-linux-gnu/libc.so.6
glob_pattern_p@GLIBC_2.2.5                        /lib/x86_64-linux-gnu/libc.so.6
globfree64                                        /lib/x86_64-linux-gnu/libc.so.6
globfree64@@GLIBC_2.2.5                           /lib/x86_64-linux-gnu/libc.so.6
globfree64@GLIBC_2.2.5                            /lib/x86_64-linux-gnu/libc.so.6
gmtime_r                                          /lib/x86_64-linux-gnu/libc.so.6
gmtime_r@@GLIBC_2.2.5                             /lib/x86_64-linux-gnu/libc.so.6
gmtime_r@GLIBC_2.2.5                              /lib/x86_64-linux-gnu/libc.so.6
gnu_get_libc_release                              /lib/x86_64-linux-gnu/libc.so.6
gnu_get_libc_release@@GLIBC_2.2.5                 /lib/x86_64-linux-gnu/libc.so.6
gnu_get_libc_release@GLIBC_2.2.5                  /lib/x86_64-linux-gnu/libc.so.6
gnu_get_libc_version                              /lib/x86_64-linux-gnu/libc.so.6
gnu_get_libc_version@@GLIBC_2.2.5                 /lib/x86_64-linux-gnu/libc.so.6
gnu_get_libc_version@GLIBC_2.2.5                  /lib/x86_64-linux-gnu/libc.so.6
group_member                                      /lib/x86_64-linux-gnu/libc.so.6
group_member@@GLIBC_2.2.5                         /lib/x86_64-linux-gnu/libc.so.6
group_member@GLIBC_2.2.5                          /lib/x86_64-linux-gnu/libc.so.6
gsignal                                           /lib/x86_64-linux-gnu/libc.so.6
gsignal@@GLIBC_2.2.5                              /lib/x86_64-linux-gnu/libc.so.6
gsignal@GLIBC_2.2.5                               /lib/x86_64-linux-gnu/libc.so.6
hasmntopt                                         /lib/x86_64-linux-gnu/libc.so.6
hasmntopt@@GLIBC_2.2.5                            /lib/x86_64-linux-gnu/libc.so.6
hasmntopt@GLIBC_2.2.5                             /lib/x86_64-linux-gnu/libc.so.6
hcreate_r                                         /lib/x86_64-linux-gnu/libc.so.6
hcreate_r@@GLIBC_2.2.5                            /lib/x86_64-linux-gnu/libc.so.6
hcreate_r@GLIBC_2.2.5                             /lib/x86_64-linux-gnu/libc.so.6
hdestroy                                          /lib/x86_64-linux-gnu/libc.so.6
hdestroy@@GLIBC_2.2.5                             /lib/x86_64-linux-gnu/libc.so.6
hdestroy@GLIBC_2.2.5                              /lib/x86_64-linux-gnu/libc.so.6
hdestroy_r                                        /lib/x86_64-linux-gnu/libc.so.6
hdestroy_r@@GLIBC_2.2.5                           /lib/x86_64-linux-gnu/libc.so.6
hdestroy_r@GLIBC_2.2.5                            /lib/x86_64-linux-gnu/libc.so.6
hdr                                               ../../lib/libbtsystem.a(btparser.o)
hsearch_r                                         /lib/x86_64-linux-gnu/libc.so.6
hsearch_r@@GLIBC_2.2.5                            /lib/x86_64-linux-gnu/libc.so.6
hsearch_r@GLIBC_2.2.5                             /lib/x86_64-linux-gnu/libc.so.6
hypot                                             /lib/x86_64-linux-gnu/libm.so.6
hypot@@GLIBC_2.2.5                                /lib/x86_64-linux-gnu/libm.so.6
hypot@GLIBC_2.2.5                                 /lib/x86_64-linux-gnu/libm.so.6
hypotf                                            /lib/x86_64-linux-gnu/libm.so.6
hypotf128                                         /lib/x86_64-linux-gnu/libm.so.6
hypotf128@@GLIBC_2.26                             /lib/x86_64-linux-gnu/libm.so.6
hypotf128@GLIBC_2.26                              /lib/x86_64-linux-gnu/libm.so.6
hypotf32                                          /lib/x86_64-linux-gnu/libm.so.6
hypotf32@@GLIBC_2.27                              /lib/x86_64-linux-gnu/libm.so.6
hypotf32@GLIBC_2.27                               /lib/x86_64-linux-gnu/libm.so.6
hypotf32x                                         /lib/x86_64-linux-gnu/libm.so.6
hypotf32x@@GLIBC_2.27                             /lib/x86_64-linux-gnu/libm.so.6
hypotf32x@GLIBC_2.27                              /lib/x86_64-linux-gnu/libm.so.6
hypotf64                                          /lib/x86_64-linux-gnu/libm.so.6
hypotf64@@GLIBC_2.27                              /lib/x86_64-linux-gnu/libm.so.6
hypotf64@GLIBC_2.27                               /lib/x86_64-linux-gnu/libm.so.6
hypotf64x                                         /lib/x86_64-linux-gnu/libm.so.6
hypotf64x@@GLIBC_2.27                             /lib/x86_64-linux-gnu/libm.so.6
hypotf64x@GLIBC_2.27                              /lib/x86_64-linux-gnu/libm.so.6
hypotf@@GLIBC_2.2.5                               /lib/x86_64-linux-gnu/libm.so.6
hypotf@GLIBC_2.2.5                                /lib/x86_64-linux-gnu/libm.so.6
hypotl                                            /lib/x86_64-linux-gnu/libm.so.6
hypotl@@GLIBC_2.2.5                               /lib/x86_64-linux-gnu/libm.so.6
hypotl@GLIBC_2.2.5                                /lib/x86_64-linux-gnu/libm.so.6
ident_m3                                          ../../lib/libbtsystem.a(btmath.o)
ident_mh                                          ../../lib/libbtsystem.a(btmath.o)
ident_mn                                          ../../lib/libbtsystem.a(btmath.o)
idx_bounds_ok                                     ../../lib/libbtsystem.a(btos.o)
idx_vr                                            ../../lib/libbtsystem.a(btmath.o)
                                                  ../../lib/libbtsystem.a(btpath.o)
                                                  ../../lib/libbtsystem.a(btseg.o)
                                                  ../../lib/libbtsystem.a(btcontrol.o)
idxa_pwl                                          ../../lib/libbtsystem.a(btpath.o)
idxb_pwl                                          ../../lib/libbtsystem.a(btpath.o)
if_freenameindex                                  /lib/x86_64-linux-gnu/libc.so.6
if_freenameindex@@GLIBC_2.2.5                     /lib/x86_64-linux-gnu/libc.so.6
if_freenameindex@GLIBC_2.2.5                      /lib/x86_64-linux-gnu/libc.so.6
if_indextoname                                    /lib/x86_64-linux-gnu/libc.so.6
if_indextoname@@GLIBC_2.2.5                       /lib/x86_64-linux-gnu/libc.so.6
if_indextoname@GLIBC_2.2.5                        /lib/x86_64-linux-gnu/libc.so.6
if_nameindex                                      /lib/x86_64-linux-gnu/libc.so.6
if_nameindex@@GLIBC_2.2.5                         /lib/x86_64-linux-gnu/libc.so.6
if_nameindex@GLIBC_2.2.5                          /lib/x86_64-linux-gnu/libc.so.6
if_nametoindex                                    /lib/x86_64-linux-gnu/libc.so.6
if_nametoindex@@GLIBC_2.2.5                       /lib/x86_64-linux-gnu/libc.so.6
if_nametoindex@GLIBC_2.2.5                        /lib/x86_64-linux-gnu/libc.so.6
ilogb                                             /lib/x86_64-linux-gnu/libm.so.6
ilogb@@GLIBC_2.2.5                                /lib/x86_64-linux-gnu/libm.so.6
ilogb@GLIBC_2.2.5                                 /lib/x86_64-linux-gnu/libm.so.6
ilogbf                                            /lib/x86_64-linux-gnu/libm.so.6
ilogbf128                                         /lib/x86_64-linux-gnu/libm.so.6
ilogbf128@@GLIBC_2.26                             /lib/x86_64-linux-gnu/libm.so.6
ilogbf128@GLIBC_2.26                              /lib/x86_64-linux-gnu/libm.so.6
ilogbf32                                          /lib/x86_64-linux-gnu/libm.so.6
ilogbf32@@GLIBC_2.27                              /lib/x86_64-linux-gnu/libm.so.6
ilogbf32@GLIBC_2.27                               /lib/x86_64-linux-gnu/libm.so.6
ilogbf32x                                         /lib/x86_64-linux-gnu/libm.so.6
ilogbf32x@@GLIBC_2.27                             /lib/x86_64-linux-gnu/libm.so.6
ilogbf32x@GLIBC_2.27                              /lib/x86_64-linux-gnu/libm.so.6
ilogbf64                                          /lib/x86_64-linux-gnu/libm.so.6
ilogbf64@@GLIBC_2.27                              /lib/x86_64-linux-gnu/libm.so.6
ilogbf64@GLIBC_2.27                               /lib/x86_64-linux-gnu/libm.so.6
ilogbf64x                                         /lib/x86_64-linux-gnu/libm.so.6
ilogbf64x@@GLIBC_2.27                             /lib/x86_64-linux-gnu/libm.so.6
ilogbf64x@GLIBC_2.27                              /lib/x86_64-linux-gnu/libm.so.6
ilogbf@@GLIBC_2.2.5                               /lib/x86_64-linux-gnu/libm.so.6
ilogbf@GLIBC_2.2.5                                /lib/x86_64-linux-gnu/libm.so.6
ilogbl                                            /lib/x86_64-linux-gnu/libm.so.6
ilogbl@@GLIBC_2.2.5                               /lib/x86_64-linux-gnu/libm.so.6
ilogbl@GLIBC_2.2.5                                /lib/x86_64-linux-gnu/libm.so.6
imaxabs                                           /lib/x86_64-linux-gnu/libc.so.6
imaxabs@@GLIBC_2.2.5                              /lib/x86_64-linux-gnu/libc.so.6
imaxabs@GLIBC_2.2.5                               /lib/x86_64-linux-gnu/libc.so.6
imaxdiv                                           /lib/x86_64-linux-gnu/libc.so.6
imaxdiv@@GLIBC_2.2.5                              /lib/x86_64-linux-gnu/libc.so.6
imaxdiv@GLIBC_2.2.5                               /lib/x86_64-linux-gnu/libc.so.6
in6addr_any                                       /lib/x86_64-linux-gnu/libc.so.6
in6addr_any@@GLIBC_2.2.5                          /lib/x86_64-linux-gnu/libc.so.6
in6addr_any@GLIBC_2.2.5                           /lib/x86_64-linux-gnu/libc.so.6
in6addr_loopback                                  /lib/x86_64-linux-gnu/libc.so.6
in6addr_loopback@@GLIBC_2.2.5                     /lib/x86_64-linux-gnu/libc.so.6
in6addr_loopback@GLIBC_2.2.5                      /lib/x86_64-linux-gnu/libc.so.6
index                                             /lib/x86_64-linux-gnu/libc.so.6
index@@GLIBC_2.2.5                                /lib/x86_64-linux-gnu/libc.so.6
index@GLIBC_2.2.5                                 /lib/x86_64-linux-gnu/libc.so.6
inet_addr                                         /lib/x86_64-linux-gnu/libc.so.6
inet_addr@@GLIBC_2.2.5                            /lib/x86_64-linux-gnu/libc.so.6
inet_addr@GLIBC_2.2.5                             /lib/x86_64-linux-gnu/libc.so.6
inet_aton                                         /lib/x86_64-linux-gnu/libc.so.6
inet_aton@@GLIBC_2.2.5                            /lib/x86_64-linux-gnu/libc.so.6
inet_aton@GLIBC_2.2.5                             /lib/x86_64-linux-gnu/libc.so.6
inet_makeaddr                                     /lib/x86_64-linux-gnu/libc.so.6
inet_makeaddr@@GLIBC_2.2.5                        /lib/x86_64-linux-gnu/libc.so.6
inet_makeaddr@GLIBC_2.2.5                         /lib/x86_64-linux-gnu/libc.so.6
inet_pton                                         /lib/x86_64-linux-gnu/libc.so.6
inet_pton@@GLIBC_2.2.5                            /lib/x86_64-linux-gnu/libc.so.6
inet_pton@GLIBC_2.2.5                             /lib/x86_64-linux-gnu/libc.so.6
initCAN                                           ../../lib/libbtsystem.a(btcan_peakesd.o)
                                                  ../../lib/libbtsystem.a(btsystem.o)
initGimbals                                       ../../lib/libbtwam.a(gimbals.o)
initPropertyDefs                                  ../../lib/libbtsystem.a(btcan_peakesd.o)
init_btPID                                        ../../lib/libbtsystem.a(btcontrol.o)
                                                  ../../lib/libbtwam.a(btwam.o)
init_btfilter_butterworth_diff                    ../../lib/libbtsystem.a(btmath.o)
init_btfilter_diff                                ../../lib/libbtsystem.a(btmath.o)
init_btfilter_lowpass                             ../../lib/libbtsystem.a(btmath.o)
init_btfilter_vn_butterworth_diff                 ../../lib/libbtsystem.a(btmath.o)
init_btfilter_vn_diff                             ../../lib/libbtsystem.a(btmath.o)
init_btramp                                       ../../lib/libbtsystem.a(btstatecontrol.o)
init_bts                                          ../../lib/libbtsystem.a(btstatecontrol.o)
                                                  ../../lib/libbtwam.a(btwam.o)
init_ct                                           ../../lib/libbtsystem.a(btcontrol.o)
init_err_btPID                                    ../../lib/libbtsystem.a(btcontrol.o)
init_local_vn                                     ../../lib/libbtsystem.a(btmath.o)
                                                  ../../lib/libbtwam.a(btwam.o)
init_pwl                                          ../../lib/libbtsystem.a(btpath.o)
                                                  ../../lib/libbtsystem.a(btstatecontrol.o)
init_pwl_from_vectray                             ../../lib/libbtsystem.a(btpath.o)
                                                  ../../lib/libbtsystem.a(btcontrol.o)
init_staticv3                                     ../../lib/libbtsystem.a(btmath.o)
init_vn                                           ../../lib/libbtsystem.a(btmath.o)
                                                  ../../lib/libbtsystem.a(btcontrol.o)
initstate                                         /lib/x86_64-linux-gnu/libc.so.6
initstate@@GLIBC_2.2.5                            /lib/x86_64-linux-gnu/libc.so.6
initstate@GLIBC_2.2.5                             /lib/x86_64-linux-gnu/libc.so.6
initstate_r                                       /lib/x86_64-linux-gnu/libc.so.6
initstate_r@@GLIBC_2.2.5                          /lib/x86_64-linux-gnu/libc.so.6
initstate_r@GLIBC_2.2.5                           /lib/x86_64-linux-gnu/libc.so.6
inject_q                                          ../../lib/libbtsystem.a(btmath.o)
inject_vn                                         ../../lib/libbtsystem.a(btmath.o)
ins_point_vta                                     ../../lib/libbtsystem.a(btcontrol.o)
insanePos                                         ../../lib/libbtsystem.a(btsystem.o)
insert_vr                                         ../../lib/libbtsystem.a(btmath.o)
                                                  ../../lib/libbtsystem.a(btcontrol.o)
interp_bt                                         ../../lib/libbtsystem.a(btmath.o)
interp_vn                                         ../../lib/libbtsystem.a(btmath.o)
                                                  ../../lib/libbtsystem.a(btpath.o)
interpolate_bt                                    ../../lib/libbtsystem.a(btmath.o)
inv_mn                                            ../../lib/libbtsystem.a(btmath.o)
inv_q                                             ../../lib/libbtsystem.a(btmath.o)
invalidPos                                        ../../lib/libbtsystem.a(btsystem.o)
ioctl                                             /lib/x86_64-linux-gnu/libc.so.6
ioctl@@GLIBC_2.2.5                                /lib/x86_64-linux-gnu/libc.so.6
ioctl@GLIBC_2.2.5                                 /lib/x86_64-linux-gnu/libc.so.6
                                                  /usr/lib/libcobalt.so
isalnum_l                                         /lib/x86_64-linux-gnu/libc.so.6
isalnum_l@@GLIBC_2.3                              /lib/x86_64-linux-gnu/libc.so.6
isalnum_l@GLIBC_2.3                               /lib/x86_64-linux-gnu/libc.so.6
isalpha_l                                         /lib/x86_64-linux-gnu/libc.so.6
isalpha_l@@GLIBC_2.3                              /lib/x86_64-linux-gnu/libc.so.6
isalpha_l@GLIBC_2.3                               /lib/x86_64-linux-gnu/libc.so.6
isatty                                            /lib/x86_64-linux-gnu/libc.so.6
isatty@@GLIBC_2.2.5                               /lib/x86_64-linux-gnu/libc.so.6
isatty@GLIBC_2.2.5                                /lib/x86_64-linux-gnu/libc.so.6
isblank_l                                         /lib/x86_64-linux-gnu/libc.so.6
isblank_l@@GLIBC_2.3                              /lib/x86_64-linux-gnu/libc.so.6
isblank_l@GLIBC_2.3                               /lib/x86_64-linux-gnu/libc.so.6
iscntrl_l                                         /lib/x86_64-linux-gnu/libc.so.6
iscntrl_l@@GLIBC_2.3                              /lib/x86_64-linux-gnu/libc.so.6
iscntrl_l@GLIBC_2.3                               /lib/x86_64-linux-gnu/libc.so.6
isctype                                           /lib/x86_64-linux-gnu/libc.so.6
isctype@@GLIBC_2.3                                /lib/x86_64-linux-gnu/libc.so.6
isctype@GLIBC_2.3                                 /lib/x86_64-linux-gnu/libc.so.6
isdigit_l                                         /lib/x86_64-linux-gnu/libc.so.6
isdigit_l@@GLIBC_2.3                              /lib/x86_64-linux-gnu/libc.so.6
isdigit_l@GLIBC_2.3                               /lib/x86_64-linux-gnu/libc.so.6
isgraph_l                                         /lib/x86_64-linux-gnu/libc.so.6
isgraph_l@@GLIBC_2.3                              /lib/x86_64-linux-gnu/libc.so.6
isgraph_l@GLIBC_2.3                               /lib/x86_64-linux-gnu/libc.so.6
isinf                                             /lib/x86_64-linux-gnu/libc.so.6
isinf@@GLIBC_2.2.5                                /lib/x86_64-linux-gnu/libc.so.6
isinf@GLIBC_2.2.5                                 /lib/x86_64-linux-gnu/libc.so.6
isinff                                            /lib/x86_64-linux-gnu/libc.so.6
isinff@@GLIBC_2.2.5                               /lib/x86_64-linux-gnu/libc.so.6
isinff@GLIBC_2.2.5                                /lib/x86_64-linux-gnu/libc.so.6
isinfl                                            /lib/x86_64-linux-gnu/libc.so.6
isinfl@@GLIBC_2.2.5                               /lib/x86_64-linux-gnu/libc.so.6
isinfl@GLIBC_2.2.5                                /lib/x86_64-linux-gnu/libc.so.6
islower_l                                         /lib/x86_64-linux-gnu/libc.so.6
islower_l@@GLIBC_2.3                              /lib/x86_64-linux-gnu/libc.so.6
islower_l@GLIBC_2.3                               /lib/x86_64-linux-gnu/libc.so.6
isnan                                             /lib/x86_64-linux-gnu/libc.so.6
isnan@@GLIBC_2.2.5                                /lib/x86_64-linux-gnu/libc.so.6
isnan@GLIBC_2.2.5                                 /lib/x86_64-linux-gnu/libc.so.6
isnanf                                            /lib/x86_64-linux-gnu/libc.so.6
isnanf@@GLIBC_2.2.5                               /lib/x86_64-linux-gnu/libc.so.6
isnanf@GLIBC_2.2.5                                /lib/x86_64-linux-gnu/libc.so.6
isnanl                                            /lib/x86_64-linux-gnu/libc.so.6
isnanl@@GLIBC_2.2.5                               /lib/x86_64-linux-gnu/libc.so.6
isnanl@GLIBC_2.2.5                                /lib/x86_64-linux-gnu/libc.so.6
isprint_l                                         /lib/x86_64-linux-gnu/libc.so.6
isprint_l@@GLIBC_2.3                              /lib/x86_64-linux-gnu/libc.so.6
isprint_l@GLIBC_2.3                               /lib/x86_64-linux-gnu/libc.so.6
ispunct_l                                         /lib/x86_64-linux-gnu/libc.so.6
ispunct_l@@GLIBC_2.3                              /lib/x86_64-linux-gnu/libc.so.6
ispunct_l@GLIBC_2.3                               /lib/x86_64-linux-gnu/libc.so.6
isspace_l                                         /lib/x86_64-linux-gnu/libc.so.6
isspace_l@@GLIBC_2.3                              /lib/x86_64-linux-gnu/libc.so.6
isspace_l@GLIBC_2.3                               /lib/x86_64-linux-gnu/libc.so.6
isupper_l                                         /lib/x86_64-linux-gnu/libc.so.6
isupper_l@@GLIBC_2.3                              /lib/x86_64-linux-gnu/libc.so.6
isupper_l@GLIBC_2.3                               /lib/x86_64-linux-gnu/libc.so.6
iswalnum                                          /lib/x86_64-linux-gnu/libc.so.6
iswalnum@@GLIBC_2.2.5                             /lib/x86_64-linux-gnu/libc.so.6
iswalnum@GLIBC_2.2.5                              /lib/x86_64-linux-gnu/libc.so.6
iswalnum_l                                        /lib/x86_64-linux-gnu/libc.so.6
iswalnum_l@@GLIBC_2.3                             /lib/x86_64-linux-gnu/libc.so.6
iswalnum_l@GLIBC_2.3                              /lib/x86_64-linux-gnu/libc.so.6
iswalpha                                          /lib/x86_64-linux-gnu/libc.so.6
iswalpha@@GLIBC_2.2.5                             /lib/x86_64-linux-gnu/libc.so.6
iswalpha@GLIBC_2.2.5                              /lib/x86_64-linux-gnu/libc.so.6
iswalpha_l                                        /lib/x86_64-linux-gnu/libc.so.6
iswalpha_l@@GLIBC_2.3                             /lib/x86_64-linux-gnu/libc.so.6
iswalpha_l@GLIBC_2.3                              /lib/x86_64-linux-gnu/libc.so.6
iswblank                                          /lib/x86_64-linux-gnu/libc.so.6
iswblank@@GLIBC_2.2.5                             /lib/x86_64-linux-gnu/libc.so.6
iswblank@GLIBC_2.2.5                              /lib/x86_64-linux-gnu/libc.so.6
iswblank_l                                        /lib/x86_64-linux-gnu/libc.so.6
iswblank_l@@GLIBC_2.3                             /lib/x86_64-linux-gnu/libc.so.6
iswblank_l@GLIBC_2.3                              /lib/x86_64-linux-gnu/libc.so.6
iswcntrl                                          /lib/x86_64-linux-gnu/libc.so.6
iswcntrl@@GLIBC_2.2.5                             /lib/x86_64-linux-gnu/libc.so.6
iswcntrl@GLIBC_2.2.5                              /lib/x86_64-linux-gnu/libc.so.6
iswcntrl_l                                        /lib/x86_64-linux-gnu/libc.so.6
iswcntrl_l@@GLIBC_2.3                             /lib/x86_64-linux-gnu/libc.so.6
iswcntrl_l@GLIBC_2.3                              /lib/x86_64-linux-gnu/libc.so.6
iswctype                                          /lib/x86_64-linux-gnu/libc.so.6
iswctype@@GLIBC_2.2.5                             /lib/x86_64-linux-gnu/libc.so.6
iswctype@GLIBC_2.2.5                              /lib/x86_64-linux-gnu/libc.so.6
iswctype_l                                        /lib/x86_64-linux-gnu/libc.so.6
iswctype_l@@GLIBC_2.3                             /lib/x86_64-linux-gnu/libc.so.6
iswctype_l@GLIBC_2.3                              /lib/x86_64-linux-gnu/libc.so.6
iswdigit                                          /lib/x86_64-linux-gnu/libc.so.6
iswdigit@@GLIBC_2.2.5                             /lib/x86_64-linux-gnu/libc.so.6
iswdigit@GLIBC_2.2.5                              /lib/x86_64-linux-gnu/libc.so.6
iswdigit_l                                        /lib/x86_64-linux-gnu/libc.so.6
iswdigit_l@@GLIBC_2.3                             /lib/x86_64-linux-gnu/libc.so.6
iswdigit_l@GLIBC_2.3                              /lib/x86_64-linux-gnu/libc.so.6
iswgraph                                          /lib/x86_64-linux-gnu/libc.so.6
iswgraph@@GLIBC_2.2.5                             /lib/x86_64-linux-gnu/libc.so.6
iswgraph@GLIBC_2.2.5                              /lib/x86_64-linux-gnu/libc.so.6
iswgraph_l                                        /lib/x86_64-linux-gnu/libc.so.6
iswgraph_l@@GLIBC_2.3                             /lib/x86_64-linux-gnu/libc.so.6
iswgraph_l@GLIBC_2.3                              /lib/x86_64-linux-gnu/libc.so.6
iswlower                                          /lib/x86_64-linux-gnu/libc.so.6
iswlower@@GLIBC_2.2.5                             /lib/x86_64-linux-gnu/libc.so.6
iswlower@GLIBC_2.2.5                              /lib/x86_64-linux-gnu/libc.so.6
iswlower_l                                        /lib/x86_64-linux-gnu/libc.so.6
iswlower_l@@GLIBC_2.3                             /lib/x86_64-linux-gnu/libc.so.6
iswlower_l@GLIBC_2.3                              /lib/x86_64-linux-gnu/libc.so.6
iswprint                                          /lib/x86_64-linux-gnu/libc.so.6
iswprint@@GLIBC_2.2.5                             /lib/x86_64-linux-gnu/libc.so.6
iswprint@GLIBC_2.2.5                              /lib/x86_64-linux-gnu/libc.so.6
iswprint_l                                        /lib/x86_64-linux-gnu/libc.so.6
iswprint_l@@GLIBC_2.3                             /lib/x86_64-linux-gnu/libc.so.6
iswprint_l@GLIBC_2.3                              /lib/x86_64-linux-gnu/libc.so.6
iswpunct                                          /lib/x86_64-linux-gnu/libc.so.6
iswpunct@@GLIBC_2.2.5                             /lib/x86_64-linux-gnu/libc.so.6
iswpunct@GLIBC_2.2.5                              /lib/x86_64-linux-gnu/libc.so.6
iswpunct_l                                        /lib/x86_64-linux-gnu/libc.so.6
iswpunct_l@@GLIBC_2.3                             /lib/x86_64-linux-gnu/libc.so.6
iswpunct_l@GLIBC_2.3                              /lib/x86_64-linux-gnu/libc.so.6
iswspace                                          /lib/x86_64-linux-gnu/libc.so.6
iswspace@@GLIBC_2.2.5                             /lib/x86_64-linux-gnu/libc.so.6
iswspace@GLIBC_2.2.5                              /lib/x86_64-linux-gnu/libc.so.6
iswspace_l                                        /lib/x86_64-linux-gnu/libc.so.6
iswspace_l@@GLIBC_2.3                             /lib/x86_64-linux-gnu/libc.so.6
iswspace_l@GLIBC_2.3                              /lib/x86_64-linux-gnu/libc.so.6
iswupper                                          /lib/x86_64-linux-gnu/libc.so.6
iswupper@@GLIBC_2.2.5                             /lib/x86_64-linux-gnu/libc.so.6
iswupper@GLIBC_2.2.5                              /lib/x86_64-linux-gnu/libc.so.6
iswupper_l                                        /lib/x86_64-linux-gnu/libc.so.6
iswupper_l@@GLIBC_2.3                             /lib/x86_64-linux-gnu/libc.so.6
iswupper_l@GLIBC_2.3                              /lib/x86_64-linux-gnu/libc.so.6
iswxdigit                                         /lib/x86_64-linux-gnu/libc.so.6
iswxdigit@@GLIBC_2.2.5                            /lib/x86_64-linux-gnu/libc.so.6
iswxdigit@GLIBC_2.2.5                             /lib/x86_64-linux-gnu/libc.so.6
iswxdigit_l                                       /lib/x86_64-linux-gnu/libc.so.6
iswxdigit_l@@GLIBC_2.3                            /lib/x86_64-linux-gnu/libc.so.6
iswxdigit_l@GLIBC_2.3                             /lib/x86_64-linux-gnu/libc.so.6
isxdigit_l                                        /lib/x86_64-linux-gnu/libc.so.6
isxdigit_l@@GLIBC_2.3                             /lib/x86_64-linux-gnu/libc.so.6
isxdigit_l@GLIBC_2.3                              /lib/x86_64-linux-gnu/libc.so.6
j0                                                /lib/x86_64-linux-gnu/libm.so.6
j0@@GLIBC_2.2.5                                   /lib/x86_64-linux-gnu/libm.so.6
j0@GLIBC_2.2.5                                    /lib/x86_64-linux-gnu/libm.so.6
j0f                                               /lib/x86_64-linux-gnu/libm.so.6
j0f128                                            /lib/x86_64-linux-gnu/libm.so.6
j0f128@@GLIBC_2.26                                /lib/x86_64-linux-gnu/libm.so.6
j0f128@GLIBC_2.26                                 /lib/x86_64-linux-gnu/libm.so.6
j0f32                                             /lib/x86_64-linux-gnu/libm.so.6
j0f32@@GLIBC_2.27                                 /lib/x86_64-linux-gnu/libm.so.6
j0f32@GLIBC_2.27                                  /lib/x86_64-linux-gnu/libm.so.6
j0f32x                                            /lib/x86_64-linux-gnu/libm.so.6
j0f32x@@GLIBC_2.27                                /lib/x86_64-linux-gnu/libm.so.6
j0f32x@GLIBC_2.27                                 /lib/x86_64-linux-gnu/libm.so.6
j0f64                                             /lib/x86_64-linux-gnu/libm.so.6
j0f64@@GLIBC_2.27                                 /lib/x86_64-linux-gnu/libm.so.6
j0f64@GLIBC_2.27                                  /lib/x86_64-linux-gnu/libm.so.6
j0f64x                                            /lib/x86_64-linux-gnu/libm.so.6
j0f64x@@GLIBC_2.27                                /lib/x86_64-linux-gnu/libm.so.6
j0f64x@GLIBC_2.27                                 /lib/x86_64-linux-gnu/libm.so.6
j0f@@GLIBC_2.2.5                                  /lib/x86_64-linux-gnu/libm.so.6
j0f@GLIBC_2.2.5                                   /lib/x86_64-linux-gnu/libm.so.6
j0l                                               /lib/x86_64-linux-gnu/libm.so.6
j0l@@GLIBC_2.2.5                                  /lib/x86_64-linux-gnu/libm.so.6
j0l@GLIBC_2.2.5                                   /lib/x86_64-linux-gnu/libm.so.6
j1                                                /lib/x86_64-linux-gnu/libm.so.6
j1@@GLIBC_2.2.5                                   /lib/x86_64-linux-gnu/libm.so.6
j1@GLIBC_2.2.5                                    /lib/x86_64-linux-gnu/libm.so.6
j1f                                               /lib/x86_64-linux-gnu/libm.so.6
j1f128                                            /lib/x86_64-linux-gnu/libm.so.6
j1f128@@GLIBC_2.26                                /lib/x86_64-linux-gnu/libm.so.6
j1f128@GLIBC_2.26                                 /lib/x86_64-linux-gnu/libm.so.6
j1f32                                             /lib/x86_64-linux-gnu/libm.so.6
j1f32@@GLIBC_2.27                                 /lib/x86_64-linux-gnu/libm.so.6
j1f32@GLIBC_2.27                                  /lib/x86_64-linux-gnu/libm.so.6
j1f32x                                            /lib/x86_64-linux-gnu/libm.so.6
j1f32x@@GLIBC_2.27                                /lib/x86_64-linux-gnu/libm.so.6
j1f32x@GLIBC_2.27                                 /lib/x86_64-linux-gnu/libm.so.6
j1f64                                             /lib/x86_64-linux-gnu/libm.so.6
j1f64@@GLIBC_2.27                                 /lib/x86_64-linux-gnu/libm.so.6
j1f64@GLIBC_2.27                                  /lib/x86_64-linux-gnu/libm.so.6
j1f64x                                            /lib/x86_64-linux-gnu/libm.so.6
j1f64x@@GLIBC_2.27                                /lib/x86_64-linux-gnu/libm.so.6
j1f64x@GLIBC_2.27                                 /lib/x86_64-linux-gnu/libm.so.6
j1f@@GLIBC_2.2.5                                  /lib/x86_64-linux-gnu/libm.so.6
j1f@GLIBC_2.2.5                                   /lib/x86_64-linux-gnu/libm.so.6
j1l                                               /lib/x86_64-linux-gnu/libm.so.6
j1l@@GLIBC_2.2.5                                  /lib/x86_64-linux-gnu/libm.so.6
j1l@GLIBC_2.2.5                                   /lib/x86_64-linux-gnu/libm.so.6
jn                                                /lib/x86_64-linux-gnu/libm.so.6
jn@@GLIBC_2.2.5                                   /lib/x86_64-linux-gnu/libm.so.6
jn@GLIBC_2.2.5                                    /lib/x86_64-linux-gnu/libm.so.6
jnf                                               /lib/x86_64-linux-gnu/libm.so.6
jnf128                                            /lib/x86_64-linux-gnu/libm.so.6
jnf128@@GLIBC_2.26                                /lib/x86_64-linux-gnu/libm.so.6
jnf128@GLIBC_2.26                                 /lib/x86_64-linux-gnu/libm.so.6
jnf32                                             /lib/x86_64-linux-gnu/libm.so.6
jnf32@@GLIBC_2.27                                 /lib/x86_64-linux-gnu/libm.so.6
jnf32@GLIBC_2.27                                  /lib/x86_64-linux-gnu/libm.so.6
jnf32x                                            /lib/x86_64-linux-gnu/libm.so.6
jnf32x@@GLIBC_2.27                                /lib/x86_64-linux-gnu/libm.so.6
jnf32x@GLIBC_2.27                                 /lib/x86_64-linux-gnu/libm.so.6
jnf64                                             /lib/x86_64-linux-gnu/libm.so.6
jnf64@@GLIBC_2.27                                 /lib/x86_64-linux-gnu/libm.so.6
jnf64@GLIBC_2.27                                  /lib/x86_64-linux-gnu/libm.so.6
jnf64x                                            /lib/x86_64-linux-gnu/libm.so.6
jnf64x@@GLIBC_2.27                                /lib/x86_64-linux-gnu/libm.so.6
jnf64x@GLIBC_2.27                                 /lib/x86_64-linux-gnu/libm.so.6
jnf@@GLIBC_2.2.5                                  /lib/x86_64-linux-gnu/libm.so.6
jnf@GLIBC_2.2.5                                   /lib/x86_64-linux-gnu/libm.so.6
jnl                                               /lib/x86_64-linux-gnu/libm.so.6
jnl@@GLIBC_2.2.5                                  /lib/x86_64-linux-gnu/libm.so.6
jnl@GLIBC_2.2.5                                   /lib/x86_64-linux-gnu/libm.so.6
jointPosition                                     ../../lib/libbtsystem.a(btcan_peakesd.o)
jrand48_r                                         /lib/x86_64-linux-gnu/libc.so.6
jrand48_r@@GLIBC_2.2.5                            /lib/x86_64-linux-gnu/libc.so.6
jrand48_r@GLIBC_2.2.5                             /lib/x86_64-linux-gnu/libc.so.6
kill                                              /lib/x86_64-linux-gnu/libc.so.6
kill@@GLIBC_2.2.5                                 /lib/x86_64-linux-gnu/libc.so.6
kill@GLIBC_2.2.5                                  /lib/x86_64-linux-gnu/libc.so.6
                                                  /usr/lib/libcobalt.so
killLine                                          ../../lib/libbtsystem.a(btparser.o)
last_point_vta                                    ../../lib/libbtsystem.a(btcontrol.o)
lastresult_btPID                                  ../../lib/libbtsystem.a(btcontrol.o)
lchown                                            /lib/x86_64-linux-gnu/libc.so.6
lchown@@GLIBC_2.2.5                               /lib/x86_64-linux-gnu/libc.so.6
lchown@GLIBC_2.2.5                                /lib/x86_64-linux-gnu/libc.so.6
lckpwdf                                           /lib/x86_64-linux-gnu/libc.so.6
lckpwdf@@GLIBC_2.2.5                              /lib/x86_64-linux-gnu/libc.so.6
lckpwdf@GLIBC_2.2.5                               /lib/x86_64-linux-gnu/libc.so.6
lcong48_r                                         /lib/x86_64-linux-gnu/libc.so.6
lcong48_r@@GLIBC_2.2.5                            /lib/x86_64-linux-gnu/libc.so.6
lcong48_r@GLIBC_2.2.5                             /lib/x86_64-linux-gnu/libc.so.6
ldexp                                             /lib/x86_64-linux-gnu/libm.so.6
ldexp@@GLIBC_2.2.5                                /lib/x86_64-linux-gnu/libm.so.6
                                                  /lib/x86_64-linux-gnu/libc.so.6
ldexp@GLIBC_2.2.5                                 /lib/x86_64-linux-gnu/libm.so.6
ldexpf                                            /lib/x86_64-linux-gnu/libm.so.6
ldexpf128                                         /lib/x86_64-linux-gnu/libm.so.6
ldexpf128@@GLIBC_2.26                             /lib/x86_64-linux-gnu/libm.so.6
ldexpf128@GLIBC_2.26                              /lib/x86_64-linux-gnu/libm.so.6
ldexpf32                                          /lib/x86_64-linux-gnu/libm.so.6
ldexpf32@@GLIBC_2.27                              /lib/x86_64-linux-gnu/libm.so.6
ldexpf32@GLIBC_2.27                               /lib/x86_64-linux-gnu/libm.so.6
ldexpf32x                                         /lib/x86_64-linux-gnu/libm.so.6
ldexpf32x@@GLIBC_2.27                             /lib/x86_64-linux-gnu/libm.so.6
ldexpf32x@GLIBC_2.27                              /lib/x86_64-linux-gnu/libm.so.6
ldexpf64                                          /lib/x86_64-linux-gnu/libm.so.6
ldexpf64@@GLIBC_2.27                              /lib/x86_64-linux-gnu/libm.so.6
ldexpf64@GLIBC_2.27                               /lib/x86_64-linux-gnu/libm.so.6
ldexpf64x                                         /lib/x86_64-linux-gnu/libm.so.6
ldexpf64x@@GLIBC_2.27                             /lib/x86_64-linux-gnu/libm.so.6
ldexpf64x@GLIBC_2.27                              /lib/x86_64-linux-gnu/libm.so.6
ldexpf@@GLIBC_2.2.5                               /lib/x86_64-linux-gnu/libm.so.6
                                                  /lib/x86_64-linux-gnu/libc.so.6
ldexpf@GLIBC_2.2.5                                /lib/x86_64-linux-gnu/libm.so.6
ldexpl                                            /lib/x86_64-linux-gnu/libm.so.6
ldexpl@@GLIBC_2.2.5                               /lib/x86_64-linux-gnu/libm.so.6
                                                  /lib/x86_64-linux-gnu/libc.so.6
ldexpl@GLIBC_2.2.5                                /lib/x86_64-linux-gnu/libm.so.6
len_vn                                            ../../lib/libbtsystem.a(btmath.o)
                                                  ../../lib/libbtsystem.a(btstatecontrol.o)
                                                  ../../lib/libbtsystem.a(btcontrol.o)
lgamma_r                                          /lib/x86_64-linux-gnu/libm.so.6
lgamma_r@@GLIBC_2.2.5                             /lib/x86_64-linux-gnu/libm.so.6
lgamma_r@GLIBC_2.2.5                              /lib/x86_64-linux-gnu/libm.so.6
lgammaf128                                        /lib/x86_64-linux-gnu/libm.so.6
lgammaf128@@GLIBC_2.26                            /lib/x86_64-linux-gnu/libm.so.6
lgammaf128@GLIBC_2.26                             /lib/x86_64-linux-gnu/libm.so.6
lgammaf128_r                                      /lib/x86_64-linux-gnu/libm.so.6
lgammaf128_r@@GLIBC_2.26                          /lib/x86_64-linux-gnu/libm.so.6
lgammaf128_r@GLIBC_2.26                           /lib/x86_64-linux-gnu/libm.so.6
lgammaf32                                         /lib/x86_64-linux-gnu/libm.so.6
lgammaf32@@GLIBC_2.27                             /lib/x86_64-linux-gnu/libm.so.6
lgammaf32@GLIBC_2.27                              /lib/x86_64-linux-gnu/libm.so.6
lgammaf32_r                                       /lib/x86_64-linux-gnu/libm.so.6
lgammaf32_r@@GLIBC_2.27                           /lib/x86_64-linux-gnu/libm.so.6
lgammaf32_r@GLIBC_2.27                            /lib/x86_64-linux-gnu/libm.so.6
lgammaf32x                                        /lib/x86_64-linux-gnu/libm.so.6
lgammaf32x@@GLIBC_2.27                            /lib/x86_64-linux-gnu/libm.so.6
lgammaf32x@GLIBC_2.27                             /lib/x86_64-linux-gnu/libm.so.6
lgammaf32x_r                                      /lib/x86_64-linux-gnu/libm.so.6
lgammaf32x_r@@GLIBC_2.27                          /lib/x86_64-linux-gnu/libm.so.6
lgammaf32x_r@GLIBC_2.27                           /lib/x86_64-linux-gnu/libm.so.6
lgammaf64                                         /lib/x86_64-linux-gnu/libm.so.6
lgammaf64@@GLIBC_2.27                             /lib/x86_64-linux-gnu/libm.so.6
lgammaf64@GLIBC_2.27                              /lib/x86_64-linux-gnu/libm.so.6
lgammaf64_r                                       /lib/x86_64-linux-gnu/libm.so.6
lgammaf64_r@@GLIBC_2.27                           /lib/x86_64-linux-gnu/libm.so.6
lgammaf64_r@GLIBC_2.27                            /lib/x86_64-linux-gnu/libm.so.6
lgammaf64x                                        /lib/x86_64-linux-gnu/libm.so.6
lgammaf64x@@GLIBC_2.27                            /lib/x86_64-linux-gnu/libm.so.6
lgammaf64x@GLIBC_2.27                             /lib/x86_64-linux-gnu/libm.so.6
lgammaf64x_r                                      /lib/x86_64-linux-gnu/libm.so.6
lgammaf64x_r@@GLIBC_2.27                          /lib/x86_64-linux-gnu/libm.so.6
lgammaf64x_r@GLIBC_2.27                           /lib/x86_64-linux-gnu/libm.so.6
lgammaf_r                                         /lib/x86_64-linux-gnu/libm.so.6
lgammaf_r@@GLIBC_2.2.5                            /lib/x86_64-linux-gnu/libm.so.6
lgammaf_r@GLIBC_2.2.5                             /lib/x86_64-linux-gnu/libm.so.6
lgammal_r                                         /lib/x86_64-linux-gnu/libm.so.6
lgammal_r@@GLIBC_2.2.5                            /lib/x86_64-linux-gnu/libm.so.6
lgammal_r@GLIBC_2.2.5                             /lib/x86_64-linux-gnu/libm.so.6
link                                              /lib/x86_64-linux-gnu/libc.so.6
link@@GLIBC_2.2.5                                 /lib/x86_64-linux-gnu/libc.so.6
link@GLIBC_2.2.5                                  /lib/x86_64-linux-gnu/libc.so.6
                                                  /lib/x86_64-linux-gnu/libpthread.so.0
link_geom_bot                                     ../../lib/libbtsystem.a(btrobot.o)
                                                  ../../lib/libbtwam.a(btwam.o)
link_mass_bot                                     ../../lib/libbtsystem.a(btrobot.o)
                                                  ../../lib/libbtwam.a(btwam.o)
listen                                            /lib/x86_64-linux-gnu/libc.so.6
listen@@GLIBC_2.2.5                               /lib/x86_64-linux-gnu/libc.so.6
listen@GLIBC_2.2.5                                /lib/x86_64-linux-gnu/libc.so.6
                                                  /usr/lib/libcobalt.so
llogb                                             /lib/x86_64-linux-gnu/libm.so.6
llogb@@GLIBC_2.25                                 /lib/x86_64-linux-gnu/libm.so.6
llogb@GLIBC_2.25                                  /lib/x86_64-linux-gnu/libm.so.6
llogbf                                            /lib/x86_64-linux-gnu/libm.so.6
llogbf128                                         /lib/x86_64-linux-gnu/libm.so.6
llogbf128@@GLIBC_2.26                             /lib/x86_64-linux-gnu/libm.so.6
llogbf128@GLIBC_2.26                              /lib/x86_64-linux-gnu/libm.so.6
llogbf32                                          /lib/x86_64-linux-gnu/libm.so.6
llogbf32@@GLIBC_2.27                              /lib/x86_64-linux-gnu/libm.so.6
llogbf32@GLIBC_2.27                               /lib/x86_64-linux-gnu/libm.so.6
llogbf32x                                         /lib/x86_64-linux-gnu/libm.so.6
llogbf32x@@GLIBC_2.27                             /lib/x86_64-linux-gnu/libm.so.6
llogbf32x@GLIBC_2.27                              /lib/x86_64-linux-gnu/libm.so.6
llogbf64                                          /lib/x86_64-linux-gnu/libm.so.6
llogbf64@@GLIBC_2.27                              /lib/x86_64-linux-gnu/libm.so.6
llogbf64@GLIBC_2.27                               /lib/x86_64-linux-gnu/libm.so.6
llogbf64x                                         /lib/x86_64-linux-gnu/libm.so.6
llogbf64x@@GLIBC_2.27                             /lib/x86_64-linux-gnu/libm.so.6
llogbf64x@GLIBC_2.27                              /lib/x86_64-linux-gnu/libm.so.6
llogbf@@GLIBC_2.25                                /lib/x86_64-linux-gnu/libm.so.6
llogbf@GLIBC_2.25                                 /lib/x86_64-linux-gnu/libm.so.6
llogbl                                            /lib/x86_64-linux-gnu/libm.so.6
llogbl@@GLIBC_2.25                                /lib/x86_64-linux-gnu/libm.so.6
llogbl@GLIBC_2.25                                 /lib/x86_64-linux-gnu/libm.so.6
llrint                                            /lib/x86_64-linux-gnu/libm.so.6
llrint@@GLIBC_2.2.5                               /lib/x86_64-linux-gnu/libm.so.6
llrint@GLIBC_2.2.5                                /lib/x86_64-linux-gnu/libm.so.6
llrintf                                           /lib/x86_64-linux-gnu/libm.so.6
llrintf128                                        /lib/x86_64-linux-gnu/libm.so.6
llrintf128@@GLIBC_2.26                            /lib/x86_64-linux-gnu/libm.so.6
llrintf128@GLIBC_2.26                             /lib/x86_64-linux-gnu/libm.so.6
llrintf32                                         /lib/x86_64-linux-gnu/libm.so.6
llrintf32@@GLIBC_2.27                             /lib/x86_64-linux-gnu/libm.so.6
llrintf32@GLIBC_2.27                              /lib/x86_64-linux-gnu/libm.so.6
llrintf32x                                        /lib/x86_64-linux-gnu/libm.so.6
llrintf32x@@GLIBC_2.27                            /lib/x86_64-linux-gnu/libm.so.6
llrintf32x@GLIBC_2.27                             /lib/x86_64-linux-gnu/libm.so.6
llrintf64                                         /lib/x86_64-linux-gnu/libm.so.6
llrintf64@@GLIBC_2.27                             /lib/x86_64-linux-gnu/libm.so.6
llrintf64@GLIBC_2.27                              /lib/x86_64-linux-gnu/libm.so.6
llrintf64x                                        /lib/x86_64-linux-gnu/libm.so.6
llrintf64x@@GLIBC_2.27                            /lib/x86_64-linux-gnu/libm.so.6
llrintf64x@GLIBC_2.27                             /lib/x86_64-linux-gnu/libm.so.6
llrintf@@GLIBC_2.2.5                              /lib/x86_64-linux-gnu/libm.so.6
llrintf@GLIBC_2.2.5                               /lib/x86_64-linux-gnu/libm.so.6
llrintl                                           /lib/x86_64-linux-gnu/libm.so.6
llrintl@@GLIBC_2.2.5                              /lib/x86_64-linux-gnu/libm.so.6
llrintl@GLIBC_2.2.5                               /lib/x86_64-linux-gnu/libm.so.6
llround                                           /lib/x86_64-linux-gnu/libm.so.6
llround@@GLIBC_2.2.5                              /lib/x86_64-linux-gnu/libm.so.6
llround@GLIBC_2.2.5                               /lib/x86_64-linux-gnu/libm.so.6
llroundf                                          /lib/x86_64-linux-gnu/libm.so.6
llroundf128                                       /lib/x86_64-linux-gnu/libm.so.6
llroundf128@@GLIBC_2.26                           /lib/x86_64-linux-gnu/libm.so.6
llroundf128@GLIBC_2.26                            /lib/x86_64-linux-gnu/libm.so.6
llroundf32                                        /lib/x86_64-linux-gnu/libm.so.6
llroundf32@@GLIBC_2.27                            /lib/x86_64-linux-gnu/libm.so.6
llroundf32@GLIBC_2.27                             /lib/x86_64-linux-gnu/libm.so.6
llroundf32x                                       /lib/x86_64-linux-gnu/libm.so.6
llroundf32x@@GLIBC_2.27                           /lib/x86_64-linux-gnu/libm.so.6
llroundf32x@GLIBC_2.27                            /lib/x86_64-linux-gnu/libm.so.6
llroundf64                                        /lib/x86_64-linux-gnu/libm.so.6
llroundf64@@GLIBC_2.27                            /lib/x86_64-linux-gnu/libm.so.6
llroundf64@GLIBC_2.27                             /lib/x86_64-linux-gnu/libm.so.6
llroundf64x                                       /lib/x86_64-linux-gnu/libm.so.6
llroundf64x@@GLIBC_2.27                           /lib/x86_64-linux-gnu/libm.so.6
llroundf64x@GLIBC_2.27                            /lib/x86_64-linux-gnu/libm.so.6
llroundf@@GLIBC_2.2.5                             /lib/x86_64-linux-gnu/libm.so.6
llroundf@GLIBC_2.2.5                              /lib/x86_64-linux-gnu/libm.so.6
llroundl                                          /lib/x86_64-linux-gnu/libm.so.6
llroundl@@GLIBC_2.2.5                             /lib/x86_64-linux-gnu/libm.so.6
llroundl@GLIBC_2.2.5                              /lib/x86_64-linux-gnu/libm.so.6
llseek                                            /lib/x86_64-linux-gnu/libc.so.6
                                                  /lib/x86_64-linux-gnu/libpthread.so.0
                                                  /lib/x86_64-linux-gnu/libpthread.so.0
llseek@@GLIBC_2.2.5                               /lib/x86_64-linux-gnu/libc.so.6
llseek@GLIBC_2.2.5                                /lib/x86_64-linux-gnu/libc.so.6
localtime_r                                       /lib/x86_64-linux-gnu/libc.so.6
localtime_r@@GLIBC_2.2.5                          /lib/x86_64-linux-gnu/libc.so.6
localtime_r@GLIBC_2.2.5                           /lib/x86_64-linux-gnu/libc.so.6
lockf64                                           /lib/x86_64-linux-gnu/libc.so.6
lockf64@@GLIBC_2.2.5                              /lib/x86_64-linux-gnu/libc.so.6
lockf64@GLIBC_2.2.5                               /lib/x86_64-linux-gnu/libc.so.6
log                                               /lib/x86_64-linux-gnu/libm.so.6
log10                                             /lib/x86_64-linux-gnu/libm.so.6
log10@@GLIBC_2.2.5                                /lib/x86_64-linux-gnu/libm.so.6
log10@GLIBC_2.2.5                                 /lib/x86_64-linux-gnu/libm.so.6
log10f                                            /lib/x86_64-linux-gnu/libm.so.6
log10f128                                         /lib/x86_64-linux-gnu/libm.so.6
log10f128@@GLIBC_2.26                             /lib/x86_64-linux-gnu/libm.so.6
log10f128@GLIBC_2.26                              /lib/x86_64-linux-gnu/libm.so.6
log10f32                                          /lib/x86_64-linux-gnu/libm.so.6
log10f32@@GLIBC_2.27                              /lib/x86_64-linux-gnu/libm.so.6
log10f32@GLIBC_2.27                               /lib/x86_64-linux-gnu/libm.so.6
log10f32x                                         /lib/x86_64-linux-gnu/libm.so.6
log10f32x@@GLIBC_2.27                             /lib/x86_64-linux-gnu/libm.so.6
log10f32x@GLIBC_2.27                              /lib/x86_64-linux-gnu/libm.so.6
log10f64                                          /lib/x86_64-linux-gnu/libm.so.6
log10f64@@GLIBC_2.27                              /lib/x86_64-linux-gnu/libm.so.6
log10f64@GLIBC_2.27                               /lib/x86_64-linux-gnu/libm.so.6
log10f64x                                         /lib/x86_64-linux-gnu/libm.so.6
log10f64x@@GLIBC_2.27                             /lib/x86_64-linux-gnu/libm.so.6
log10f64x@GLIBC_2.27                              /lib/x86_64-linux-gnu/libm.so.6
log10f@@GLIBC_2.2.5                               /lib/x86_64-linux-gnu/libm.so.6
log10f@GLIBC_2.2.5                                /lib/x86_64-linux-gnu/libm.so.6
log10l                                            /lib/x86_64-linux-gnu/libm.so.6
log10l@@GLIBC_2.2.5                               /lib/x86_64-linux-gnu/libm.so.6
log10l@GLIBC_2.2.5                                /lib/x86_64-linux-gnu/libm.so.6
log1p                                             /lib/x86_64-linux-gnu/libm.so.6
log1p@@GLIBC_2.2.5                                /lib/x86_64-linux-gnu/libm.so.6
log1p@GLIBC_2.2.5                                 /lib/x86_64-linux-gnu/libm.so.6
log1pf                                            /lib/x86_64-linux-gnu/libm.so.6
log1pf128                                         /lib/x86_64-linux-gnu/libm.so.6
log1pf128@@GLIBC_2.26                             /lib/x86_64-linux-gnu/libm.so.6
log1pf128@GLIBC_2.26                              /lib/x86_64-linux-gnu/libm.so.6
log1pf32                                          /lib/x86_64-linux-gnu/libm.so.6
log1pf32@@GLIBC_2.27                              /lib/x86_64-linux-gnu/libm.so.6
log1pf32@GLIBC_2.27                               /lib/x86_64-linux-gnu/libm.so.6
log1pf32x                                         /lib/x86_64-linux-gnu/libm.so.6
log1pf32x@@GLIBC_2.27                             /lib/x86_64-linux-gnu/libm.so.6
log1pf32x@GLIBC_2.27                              /lib/x86_64-linux-gnu/libm.so.6
log1pf64                                          /lib/x86_64-linux-gnu/libm.so.6
log1pf64@@GLIBC_2.27                              /lib/x86_64-linux-gnu/libm.so.6
log1pf64@GLIBC_2.27                               /lib/x86_64-linux-gnu/libm.so.6
log1pf64x                                         /lib/x86_64-linux-gnu/libm.so.6
log1pf64x@@GLIBC_2.27                             /lib/x86_64-linux-gnu/libm.so.6
log1pf64x@GLIBC_2.27                              /lib/x86_64-linux-gnu/libm.so.6
log1pf@@GLIBC_2.2.5                               /lib/x86_64-linux-gnu/libm.so.6
log1pf@GLIBC_2.2.5                                /lib/x86_64-linux-gnu/libm.so.6
log1pl                                            /lib/x86_64-linux-gnu/libm.so.6
log1pl@@GLIBC_2.2.5                               /lib/x86_64-linux-gnu/libm.so.6
log1pl@GLIBC_2.2.5                                /lib/x86_64-linux-gnu/libm.so.6
log2                                              /lib/x86_64-linux-gnu/libm.so.6
log2@@GLIBC_2.2.5                                 /lib/x86_64-linux-gnu/libm.so.6
log2@GLIBC_2.2.5                                  /lib/x86_64-linux-gnu/libm.so.6
log2f128                                          /lib/x86_64-linux-gnu/libm.so.6
log2f128@@GLIBC_2.26                              /lib/x86_64-linux-gnu/libm.so.6
log2f128@GLIBC_2.26                               /lib/x86_64-linux-gnu/libm.so.6
log2f32                                           /lib/x86_64-linux-gnu/libm.so.6
log2f32@@GLIBC_2.27                               /lib/x86_64-linux-gnu/libm.so.6
log2f32@GLIBC_2.27                                /lib/x86_64-linux-gnu/libm.so.6
log2f32x                                          /lib/x86_64-linux-gnu/libm.so.6
log2f32x@@GLIBC_2.27                              /lib/x86_64-linux-gnu/libm.so.6
log2f32x@GLIBC_2.27                               /lib/x86_64-linux-gnu/libm.so.6
log2f64                                           /lib/x86_64-linux-gnu/libm.so.6
log2f64@@GLIBC_2.27                               /lib/x86_64-linux-gnu/libm.so.6
log2f64@GLIBC_2.27                                /lib/x86_64-linux-gnu/libm.so.6
log2f64x                                          /lib/x86_64-linux-gnu/libm.so.6
log2f64x@@GLIBC_2.27                              /lib/x86_64-linux-gnu/libm.so.6
log2f64x@GLIBC_2.27                               /lib/x86_64-linux-gnu/libm.so.6
log2l                                             /lib/x86_64-linux-gnu/libm.so.6
log2l@@GLIBC_2.2.5                                /lib/x86_64-linux-gnu/libm.so.6
log2l@GLIBC_2.2.5                                 /lib/x86_64-linux-gnu/libm.so.6
log@@GLIBC_2.2.5                                  /lib/x86_64-linux-gnu/libm.so.6
log@GLIBC_2.2.5                                   /lib/x86_64-linux-gnu/libm.so.6
log_q                                             ../../lib/libbtsystem.a(btmath.o)
logb                                              /lib/x86_64-linux-gnu/libm.so.6
logb@@GLIBC_2.2.5                                 /lib/x86_64-linux-gnu/libm.so.6
logb@GLIBC_2.2.5                                  /lib/x86_64-linux-gnu/libm.so.6
logbf                                             /lib/x86_64-linux-gnu/libm.so.6
logbf128                                          /lib/x86_64-linux-gnu/libm.so.6
logbf128@@GLIBC_2.26                              /lib/x86_64-linux-gnu/libm.so.6
logbf128@GLIBC_2.26                               /lib/x86_64-linux-gnu/libm.so.6
logbf32                                           /lib/x86_64-linux-gnu/libm.so.6
logbf32@@GLIBC_2.27                               /lib/x86_64-linux-gnu/libm.so.6
logbf32@GLIBC_2.27                                /lib/x86_64-linux-gnu/libm.so.6
logbf32x                                          /lib/x86_64-linux-gnu/libm.so.6
logbf32x@@GLIBC_2.27                              /lib/x86_64-linux-gnu/libm.so.6
logbf32x@GLIBC_2.27                               /lib/x86_64-linux-gnu/libm.so.6
logbf64                                           /lib/x86_64-linux-gnu/libm.so.6
logbf64@@GLIBC_2.27                               /lib/x86_64-linux-gnu/libm.so.6
logbf64@GLIBC_2.27                                /lib/x86_64-linux-gnu/libm.so.6
logbf64x                                          /lib/x86_64-linux-gnu/libm.so.6
logbf64x@@GLIBC_2.27                              /lib/x86_64-linux-gnu/libm.so.6
logbf64x@GLIBC_2.27                               /lib/x86_64-linux-gnu/libm.so.6
logbf@@GLIBC_2.2.5                                /lib/x86_64-linux-gnu/libm.so.6
logbf@GLIBC_2.2.5                                 /lib/x86_64-linux-gnu/libm.so.6
logbl                                             /lib/x86_64-linux-gnu/libm.so.6
logbl@@GLIBC_2.2.5                                /lib/x86_64-linux-gnu/libm.so.6
logbl@GLIBC_2.2.5                                 /lib/x86_64-linux-gnu/libm.so.6
logf128                                           /lib/x86_64-linux-gnu/libm.so.6
logf128@@GLIBC_2.26                               /lib/x86_64-linux-gnu/libm.so.6
logf128@GLIBC_2.26                                /lib/x86_64-linux-gnu/libm.so.6
logf32                                            /lib/x86_64-linux-gnu/libm.so.6
logf32@@GLIBC_2.27                                /lib/x86_64-linux-gnu/libm.so.6
logf32@GLIBC_2.27                                 /lib/x86_64-linux-gnu/libm.so.6
logf32x                                           /lib/x86_64-linux-gnu/libm.so.6
logf32x@@GLIBC_2.27                               /lib/x86_64-linux-gnu/libm.so.6
logf32x@GLIBC_2.27                                /lib/x86_64-linux-gnu/libm.so.6
logf64                                            /lib/x86_64-linux-gnu/libm.so.6
logf64@@GLIBC_2.27                                /lib/x86_64-linux-gnu/libm.so.6
logf64@GLIBC_2.27                                 /lib/x86_64-linux-gnu/libm.so.6
logf64x                                           /lib/x86_64-linux-gnu/libm.so.6
logf64x@@GLIBC_2.27                               /lib/x86_64-linux-gnu/libm.so.6
logf64x@GLIBC_2.27                                /lib/x86_64-linux-gnu/libm.so.6
logl                                              /lib/x86_64-linux-gnu/libm.so.6
logl@@GLIBC_2.2.5                                 /lib/x86_64-linux-gnu/libm.so.6
logl@GLIBC_2.2.5                                  /lib/x86_64-linux-gnu/libm.so.6
longjmp                                           /lib/x86_64-linux-gnu/libc.so.6
longjmp@@GLIBC_2.2.5                              /lib/x86_64-linux-gnu/libc.so.6
lrint                                             /lib/x86_64-linux-gnu/libm.so.6
lrint@@GLIBC_2.2.5                                /lib/x86_64-linux-gnu/libm.so.6
lrint@GLIBC_2.2.5                                 /lib/x86_64-linux-gnu/libm.so.6
lrintf                                            /lib/x86_64-linux-gnu/libm.so.6
lrintf128                                         /lib/x86_64-linux-gnu/libm.so.6
lrintf128@@GLIBC_2.26                             /lib/x86_64-linux-gnu/libm.so.6
lrintf128@GLIBC_2.26                              /lib/x86_64-linux-gnu/libm.so.6
lrintf32                                          /lib/x86_64-linux-gnu/libm.so.6
lrintf32@@GLIBC_2.27                              /lib/x86_64-linux-gnu/libm.so.6
lrintf32@GLIBC_2.27                               /lib/x86_64-linux-gnu/libm.so.6
lrintf32x                                         /lib/x86_64-linux-gnu/libm.so.6
lrintf32x@@GLIBC_2.27                             /lib/x86_64-linux-gnu/libm.so.6
lrintf32x@GLIBC_2.27                              /lib/x86_64-linux-gnu/libm.so.6
lrintf64                                          /lib/x86_64-linux-gnu/libm.so.6
lrintf64@@GLIBC_2.27                              /lib/x86_64-linux-gnu/libm.so.6
lrintf64@GLIBC_2.27                               /lib/x86_64-linux-gnu/libm.so.6
lrintf64x                                         /lib/x86_64-linux-gnu/libm.so.6
lrintf64x@@GLIBC_2.27                             /lib/x86_64-linux-gnu/libm.so.6
lrintf64x@GLIBC_2.27                              /lib/x86_64-linux-gnu/libm.so.6
lrintf@@GLIBC_2.2.5                               /lib/x86_64-linux-gnu/libm.so.6
lrintf@GLIBC_2.2.5                                /lib/x86_64-linux-gnu/libm.so.6
lrintl                                            /lib/x86_64-linux-gnu/libm.so.6
lrintl@@GLIBC_2.2.5                               /lib/x86_64-linux-gnu/libm.so.6
lrintl@GLIBC_2.2.5                                /lib/x86_64-linux-gnu/libm.so.6
lround                                            /lib/x86_64-linux-gnu/libm.so.6
lround@@GLIBC_2.2.5                               /lib/x86_64-linux-gnu/libm.so.6
lround@GLIBC_2.2.5                                /lib/x86_64-linux-gnu/libm.so.6
lroundf                                           /lib/x86_64-linux-gnu/libm.so.6
lroundf128                                        /lib/x86_64-linux-gnu/libm.so.6
lroundf128@@GLIBC_2.26                            /lib/x86_64-linux-gnu/libm.so.6
lroundf128@GLIBC_2.26                             /lib/x86_64-linux-gnu/libm.so.6
lroundf32                                         /lib/x86_64-linux-gnu/libm.so.6
lroundf32@@GLIBC_2.27                             /lib/x86_64-linux-gnu/libm.so.6
lroundf32@GLIBC_2.27                              /lib/x86_64-linux-gnu/libm.so.6
lroundf32x                                        /lib/x86_64-linux-gnu/libm.so.6
lroundf32x@@GLIBC_2.27                            /lib/x86_64-linux-gnu/libm.so.6
lroundf32x@GLIBC_2.27                             /lib/x86_64-linux-gnu/libm.so.6
lroundf64                                         /lib/x86_64-linux-gnu/libm.so.6
lroundf64@@GLIBC_2.27                             /lib/x86_64-linux-gnu/libm.so.6
lroundf64@GLIBC_2.27                              /lib/x86_64-linux-gnu/libm.so.6
lroundf64x                                        /lib/x86_64-linux-gnu/libm.so.6
lroundf64x@@GLIBC_2.27                            /lib/x86_64-linux-gnu/libm.so.6
lroundf64x@GLIBC_2.27                             /lib/x86_64-linux-gnu/libm.so.6
lroundf@@GLIBC_2.2.5                              /lib/x86_64-linux-gnu/libm.so.6
lroundf@GLIBC_2.2.5                               /lib/x86_64-linux-gnu/libm.so.6
lroundl                                           /lib/x86_64-linux-gnu/libm.so.6
lroundl@@GLIBC_2.2.5                              /lib/x86_64-linux-gnu/libm.so.6
lroundl@GLIBC_2.2.5                               /lib/x86_64-linux-gnu/libm.so.6
lseek                                             /lib/x86_64-linux-gnu/libpthread.so.0
lseek64                                           /lib/x86_64-linux-gnu/libpthread.so.0
lseek64@@GLIBC_2.2.5                              /lib/x86_64-linux-gnu/libpthread.so.0
                                                  /lib/x86_64-linux-gnu/libc.so.6
lseek64@GLIBC_2.2.5                               /lib/x86_64-linux-gnu/libpthread.so.0
lseek@@GLIBC_2.2.5                                /lib/x86_64-linux-gnu/libpthread.so.0
                                                  /lib/x86_64-linux-gnu/libc.so.6
lseek@GLIBC_2.2.5                                 /lib/x86_64-linux-gnu/libpthread.so.0
lubksb                                            ../../lib/libbtsystem.a(btmath.o)
ludcmp                                            ../../lib/libbtsystem.a(btmath.o)
lval_vr                                           ../../lib/libbtsystem.a(btmath.o)
                                                  ../../lib/libbtsystem.a(btcontrol.o)
madvise                                           /lib/x86_64-linux-gnu/libc.so.6
madvise@@GLIBC_2.2.5                              /lib/x86_64-linux-gnu/libc.so.6
madvise@GLIBC_2.2.5                               /lib/x86_64-linux-gnu/libc.so.6
main                                              main.o
                                                  /usr/xenomai/lib/xenomai/bootstrap.o
make_transform_btlink                             ../../lib/libbtsystem.a(btrobot.o)
makecontext                                       /lib/x86_64-linux-gnu/libc.so.6
makecontext@@GLIBC_2.2.5                          /lib/x86_64-linux-gnu/libc.so.6
makecontext@GLIBC_2.2.5                           /lib/x86_64-linux-gnu/libc.so.6
mallinfo                                          /lib/x86_64-linux-gnu/libc.so.6
mallinfo@@GLIBC_2.2.5                             /lib/x86_64-linux-gnu/libc.so.6
mallinfo@GLIBC_2.2.5                              /lib/x86_64-linux-gnu/libc.so.6
malloc_info                                       /lib/x86_64-linux-gnu/libc.so.6
malloc_info@@GLIBC_2.10                           /lib/x86_64-linux-gnu/libc.so.6
malloc_info@GLIBC_2.10                            /lib/x86_64-linux-gnu/libc.so.6
malloc_stats                                      /lib/x86_64-linux-gnu/libc.so.6
malloc_stats@@GLIBC_2.2.5                         /lib/x86_64-linux-gnu/libc.so.6
malloc_stats@GLIBC_2.2.5                          /lib/x86_64-linux-gnu/libc.so.6
malloc_trim                                       /lib/x86_64-linux-gnu/libc.so.6
malloc_trim@@GLIBC_2.2.5                          /lib/x86_64-linux-gnu/libc.so.6
malloc_trim@GLIBC_2.2.5                           /lib/x86_64-linux-gnu/libc.so.6
malloc_usable_size                                /lib/x86_64-linux-gnu/libc.so.6
malloc_usable_size@@GLIBC_2.2.5                   /lib/x86_64-linux-gnu/libc.so.6
malloc_usable_size@GLIBC_2.2.5                    /lib/x86_64-linux-gnu/libc.so.6
malloc_vta                                        ../../lib/libbtsystem.a(btcontrol.o)
mallopt                                           /lib/x86_64-linux-gnu/libc.so.6
mallopt@@GLIBC_2.2.5                              /lib/x86_64-linux-gnu/libc.so.6
mallopt@GLIBC_2.2.5                               /lib/x86_64-linux-gnu/libc.so.6
map_btstatecontrol                                ../../lib/libbtsystem.a(btstatecontrol.o)
                                                  ../../lib/libbtwam.a(btwam.o)
mapdat_vr                                         ../../lib/libbtsystem.a(btmath.o)
mapdata_btpos                                     ../../lib/libbtsystem.a(btstatecontrol.o)
mapdata_bttrj                                     ../../lib/libbtsystem.a(btstatecontrol.o)
mapposition_bts                                   ../../lib/libbtsystem.a(btstatecontrol.o)
                                                  ../../lib/libbtsystem.a(btcontrol.o)
maptrajectory_bts                                 ../../lib/libbtsystem.a(btstatecontrol.o)
                                                  ../../lib/libbtsystem.a(btcontrol.o)
mask                                              ../../lib/libbtsystem.a(btcan_peakesd.o)
matTXvec_m3                                       ../../lib/libbtsystem.a(btmath.o)
                                                  ../../lib/libbtsystem.a(btrobot.o)
matXvec_m3                                        ../../lib/libbtsystem.a(btmath.o)
                                                  ../../lib/libbtsystem.a(btrobot.o)
                                                  ../../lib/libbtwam.a(btwam.o)
matXvec_mh                                        ../../lib/libbtsystem.a(btmath.o)
                                                  ../../lib/libbtsystem.a(btrobot.o)
matXvec_mn                                        ../../lib/libbtsystem.a(btmath.o)
                                                  ../../lib/libbtwam.a(btwam.o)
matherr@GLIBC_2.2.5                               /lib/x86_64-linux-gnu/libm.so.6
matr_mnXvect_3                                    ../../lib/libbtsystem.a(btmath.o)
                                                  ../../lib/libbtsystem.a(btrobot.o)
max_bt                                            ../../lib/libbtsystem.a(btmath.o)
maxrows_vr                                        ../../lib/libbtsystem.a(btmath.o)
                                                  ../../lib/libbtsystem.a(btpath.o)
                                                  ../../lib/libbtsystem.a(btcontrol.o)
mbrlen                                            /lib/x86_64-linux-gnu/libc.so.6
mbrlen@@GLIBC_2.2.5                               /lib/x86_64-linux-gnu/libc.so.6
mbrlen@GLIBC_2.2.5                                /lib/x86_64-linux-gnu/libc.so.6
mbrtoc32                                          /lib/x86_64-linux-gnu/libc.so.6
mbrtoc32@@GLIBC_2.16                              /lib/x86_64-linux-gnu/libc.so.6
mbrtoc32@GLIBC_2.16                               /lib/x86_64-linux-gnu/libc.so.6
mbrtowc                                           /lib/x86_64-linux-gnu/libc.so.6
mbrtowc@@GLIBC_2.2.5                              /lib/x86_64-linux-gnu/libc.so.6
mbrtowc@GLIBC_2.2.5                               /lib/x86_64-linux-gnu/libc.so.6
mbsinit                                           /lib/x86_64-linux-gnu/libc.so.6
mbsinit@@GLIBC_2.2.5                              /lib/x86_64-linux-gnu/libc.so.6
mbsinit@GLIBC_2.2.5                               /lib/x86_64-linux-gnu/libc.so.6
mbsnrtowcs                                        /lib/x86_64-linux-gnu/libc.so.6
mbsnrtowcs@@GLIBC_2.2.5                           /lib/x86_64-linux-gnu/libc.so.6
mbsnrtowcs@GLIBC_2.2.5                            /lib/x86_64-linux-gnu/libc.so.6
mbsrtowcs                                         /lib/x86_64-linux-gnu/libc.so.6
mbsrtowcs@@GLIBC_2.2.5                            /lib/x86_64-linux-gnu/libc.so.6
mbsrtowcs@GLIBC_2.2.5                             /lib/x86_64-linux-gnu/libc.so.6
mcount                                            /lib/x86_64-linux-gnu/libc.so.6
mcount@@GLIBC_2.2.5                               /lib/x86_64-linux-gnu/libc.so.6
mcount@GLIBC_2.2.5                                /lib/x86_64-linux-gnu/libc.so.6
memalign                                          /lib/x86_64-linux-gnu/libc.so.6
memalign@@GLIBC_2.2.5                             /lib/x86_64-linux-gnu/libc.so.6
memalign@GLIBC_2.2.5                              /lib/x86_64-linux-gnu/libc.so.6
memccpy                                           /lib/x86_64-linux-gnu/libc.so.6
memccpy@@GLIBC_2.2.5                              /lib/x86_64-linux-gnu/libc.so.6
memccpy@GLIBC_2.2.5                               /lib/x86_64-linux-gnu/libc.so.6
memmem                                            /lib/x86_64-linux-gnu/libc.so.6
memmem@@GLIBC_2.2.5                               /lib/x86_64-linux-gnu/libc.so.6
memmem@GLIBC_2.2.5                                /lib/x86_64-linux-gnu/libc.so.6
mempcpy                                           /lib/x86_64-linux-gnu/libc.so.6
mempcpy@@GLIBC_2.2.5                              /lib/x86_64-linux-gnu/libc.so.6
mempcpy@GLIBC_2.2.5                               /lib/x86_64-linux-gnu/libc.so.6
memrchr                                           /lib/x86_64-linux-gnu/libc.so.6
memrchr@@GLIBC_2.2.5                              /lib/x86_64-linux-gnu/libc.so.6
memrchr@GLIBC_2.2.5                               /lib/x86_64-linux-gnu/libc.so.6
min_bt                                            ../../lib/libbtsystem.a(btmath.o)
                                                  ../../lib/libbtsystem.a(btseg.o)
mkdir                                             /lib/x86_64-linux-gnu/libc.so.6
mkdir@@GLIBC_2.2.5                                /lib/x86_64-linux-gnu/libc.so.6
mkdir@GLIBC_2.2.5                                 /lib/x86_64-linux-gnu/libc.so.6
mkostemp64                                        /lib/x86_64-linux-gnu/libc.so.6
mkostemp64@@GLIBC_2.7                             /lib/x86_64-linux-gnu/libc.so.6
mkostemp64@GLIBC_2.7                              /lib/x86_64-linux-gnu/libc.so.6
mkostemps64                                       /lib/x86_64-linux-gnu/libc.so.6
mkostemps64@@GLIBC_2.11                           /lib/x86_64-linux-gnu/libc.so.6
mkostemps64@GLIBC_2.11                            /lib/x86_64-linux-gnu/libc.so.6
mkstemp64                                         /lib/x86_64-linux-gnu/libc.so.6
mkstemp64@@GLIBC_2.2.5                            /lib/x86_64-linux-gnu/libc.so.6
mkstemp64@GLIBC_2.2.5                             /lib/x86_64-linux-gnu/libc.so.6
mkstemps64                                        /lib/x86_64-linux-gnu/libc.so.6
mkstemps64@@GLIBC_2.11                            /lib/x86_64-linux-gnu/libc.so.6
mkstemps64@GLIBC_2.11                             /lib/x86_64-linux-gnu/libc.so.6
mktemp                                            /lib/x86_64-linux-gnu/libc.so.6
mktemp@@GLIBC_2.2.5                               /lib/x86_64-linux-gnu/libc.so.6
mktemp@GLIBC_2.2.5                                /lib/x86_64-linux-gnu/libc.so.6
mmap                                              /lib/x86_64-linux-gnu/libc.so.6
mmap64                                            /lib/x86_64-linux-gnu/libc.so.6
mmap64@@GLIBC_2.2.5                               /lib/x86_64-linux-gnu/libc.so.6
mmap64@GLIBC_2.2.5                                /lib/x86_64-linux-gnu/libc.so.6
mmap@@GLIBC_2.2.5                                 /lib/x86_64-linux-gnu/libc.so.6
mmap@GLIBC_2.2.5                                  /lib/x86_64-linux-gnu/libc.so.6
                                                  /lib/x86_64-linux-gnu/libpthread.so.0
                                                  /usr/lib/libcobalt.so
modf                                              /lib/x86_64-linux-gnu/libm.so.6
modf@@GLIBC_2.2.5                                 /lib/x86_64-linux-gnu/libm.so.6
                                                  /lib/x86_64-linux-gnu/libc.so.6
modf@GLIBC_2.2.5                                  /lib/x86_64-linux-gnu/libm.so.6
modff                                             /lib/x86_64-linux-gnu/libm.so.6
modff128                                          /lib/x86_64-linux-gnu/libm.so.6
modff128@@GLIBC_2.26                              /lib/x86_64-linux-gnu/libm.so.6
modff128@GLIBC_2.26                               /lib/x86_64-linux-gnu/libm.so.6
modff32                                           /lib/x86_64-linux-gnu/libm.so.6
modff32@@GLIBC_2.27                               /lib/x86_64-linux-gnu/libm.so.6
modff32@GLIBC_2.27                                /lib/x86_64-linux-gnu/libm.so.6
modff32x                                          /lib/x86_64-linux-gnu/libm.so.6
modff32x@@GLIBC_2.27                              /lib/x86_64-linux-gnu/libm.so.6
modff32x@GLIBC_2.27                               /lib/x86_64-linux-gnu/libm.so.6
modff64                                           /lib/x86_64-linux-gnu/libm.so.6
modff64@@GLIBC_2.27                               /lib/x86_64-linux-gnu/libm.so.6
modff64@GLIBC_2.27                                /lib/x86_64-linux-gnu/libm.so.6
modff64x                                          /lib/x86_64-linux-gnu/libm.so.6
modff64x@@GLIBC_2.27                              /lib/x86_64-linux-gnu/libm.so.6
modff64x@GLIBC_2.27                               /lib/x86_64-linux-gnu/libm.so.6
modff@@GLIBC_2.2.5                                /lib/x86_64-linux-gnu/libm.so.6
                                                  /lib/x86_64-linux-gnu/libc.so.6
modff@GLIBC_2.2.5                                 /lib/x86_64-linux-gnu/libm.so.6
modfl                                             /lib/x86_64-linux-gnu/libm.so.6
modfl@@GLIBC_2.2.5                                /lib/x86_64-linux-gnu/libm.so.6
                                                  /lib/x86_64-linux-gnu/libc.so.6
modfl@GLIBC_2.2.5                                 /lib/x86_64-linux-gnu/libm.so.6
modify_ldt                                        /lib/x86_64-linux-gnu/libc.so.6
modify_ldt@@GLIBC_2.2.5                           /lib/x86_64-linux-gnu/libc.so.6
modify_ldt@GLIBC_2.2.5                            /lib/x86_64-linux-gnu/libc.so.6
moncontrol                                        /lib/x86_64-linux-gnu/libc.so.6
moncontrol@@GLIBC_2.2.5                           /lib/x86_64-linux-gnu/libc.so.6
moncontrol@GLIBC_2.2.5                            /lib/x86_64-linux-gnu/libc.so.6
monstartup                                        /lib/x86_64-linux-gnu/libc.so.6
monstartup@@GLIBC_2.2.5                           /lib/x86_64-linux-gnu/libc.so.6
monstartup@GLIBC_2.2.5                            /lib/x86_64-linux-gnu/libc.so.6
mount                                             /lib/x86_64-linux-gnu/libc.so.6
mount@@GLIBC_2.2.5                                /lib/x86_64-linux-gnu/libc.so.6
mount@GLIBC_2.2.5                                 /lib/x86_64-linux-gnu/libc.so.6
moveparm_bts                                      ../../lib/libbtsystem.a(btstatecontrol.o)
                                                  ../../lib/libbtwam.a(btwam.o)
movestatus_bts                                    ../../lib/libbtsystem.a(btstatecontrol.o)
moveto_bts                                        ../../lib/libbtsystem.a(btstatecontrol.o)
                                                  ../../lib/libbtwam.a(btwam.o)
mprotect                                          /lib/x86_64-linux-gnu/libc.so.6
mprotect@@GLIBC_2.2.5                             /lib/x86_64-linux-gnu/libc.so.6
mprotect@GLIBC_2.2.5                              /lib/x86_64-linux-gnu/libc.so.6
mq_timedreceive                                   /usr/lib/gcc/x86_64-linux-gnu/7/../../../x86_64-linux-gnu/librt.so
mq_timedreceive@@GLIBC_2.3.4                      /usr/lib/gcc/x86_64-linux-gnu/7/../../../x86_64-linux-gnu/librt.so
mq_timedreceive@GLIBC_2.3.4                       /usr/lib/gcc/x86_64-linux-gnu/7/../../../x86_64-linux-gnu/librt.so
mq_timedsend                                      /usr/lib/gcc/x86_64-linux-gnu/7/../../../x86_64-linux-gnu/librt.so
mq_timedsend@@GLIBC_2.3.4                         /usr/lib/gcc/x86_64-linux-gnu/7/../../../x86_64-linux-gnu/librt.so
mq_timedsend@GLIBC_2.3.4                          /usr/lib/gcc/x86_64-linux-gnu/7/../../../x86_64-linux-gnu/librt.so
mremap                                            /lib/x86_64-linux-gnu/libc.so.6
mremap@@GLIBC_2.2.5                               /lib/x86_64-linux-gnu/libc.so.6
mremap@GLIBC_2.2.5                                /lib/x86_64-linux-gnu/libc.so.6
msgrcv                                            /lib/x86_64-linux-gnu/libc.so.6
msgrcv@@GLIBC_2.2.5                               /lib/x86_64-linux-gnu/libc.so.6
msgrcv@GLIBC_2.2.5                                /lib/x86_64-linux-gnu/libc.so.6
msgsnd                                            /lib/x86_64-linux-gnu/libc.so.6
msgsnd@@GLIBC_2.2.5                               /lib/x86_64-linux-gnu/libc.so.6
msgsnd@GLIBC_2.2.5                                /lib/x86_64-linux-gnu/libc.so.6
mul_m3                                            ../../lib/libbtsystem.a(btmath.o)
mul_mh                                            ../../lib/libbtsystem.a(btmath.o)
                                                  ../../lib/libbtsystem.a(btrobot.o)
mul_mn                                            ../../lib/libbtsystem.a(btmath.o)
                                                  ../../lib/libbtsystem.a(btrobot.o)
mul_q                                             ../../lib/libbtsystem.a(btmath.o)
multi                                             ../../lib/libbtsystem.a(btparser.o)
munmap                                            /lib/x86_64-linux-gnu/libc.so.6
munmap@@GLIBC_2.2.5                               /lib/x86_64-linux-gnu/libc.so.6
munmap@GLIBC_2.2.5                                /lib/x86_64-linux-gnu/libc.so.6
                                                  /lib/x86_64-linux-gnu/libpthread.so.0
                                                  /usr/lib/libcobalt.so
nan                                               /lib/x86_64-linux-gnu/libm.so.6
nan@@GLIBC_2.2.5                                  /lib/x86_64-linux-gnu/libm.so.6
nan@GLIBC_2.2.5                                   /lib/x86_64-linux-gnu/libm.so.6
nanf                                              /lib/x86_64-linux-gnu/libm.so.6
nanf128                                           /lib/x86_64-linux-gnu/libm.so.6
nanf128@@GLIBC_2.26                               /lib/x86_64-linux-gnu/libm.so.6
nanf128@GLIBC_2.26                                /lib/x86_64-linux-gnu/libm.so.6
nanf32                                            /lib/x86_64-linux-gnu/libm.so.6
nanf32@@GLIBC_2.27                                /lib/x86_64-linux-gnu/libm.so.6
nanf32@GLIBC_2.27                                 /lib/x86_64-linux-gnu/libm.so.6
nanf32x                                           /lib/x86_64-linux-gnu/libm.so.6
nanf32x@@GLIBC_2.27                               /lib/x86_64-linux-gnu/libm.so.6
nanf32x@GLIBC_2.27                                /lib/x86_64-linux-gnu/libm.so.6
nanf64                                            /lib/x86_64-linux-gnu/libm.so.6
nanf64@@GLIBC_2.27                                /lib/x86_64-linux-gnu/libm.so.6
nanf64@GLIBC_2.27                                 /lib/x86_64-linux-gnu/libm.so.6
nanf64x                                           /lib/x86_64-linux-gnu/libm.so.6
nanf64x@@GLIBC_2.27                               /lib/x86_64-linux-gnu/libm.so.6
nanf64x@GLIBC_2.27                                /lib/x86_64-linux-gnu/libm.so.6
nanf@@GLIBC_2.2.5                                 /lib/x86_64-linux-gnu/libm.so.6
nanf@GLIBC_2.2.5                                  /lib/x86_64-linux-gnu/libm.so.6
nanl                                              /lib/x86_64-linux-gnu/libm.so.6
nanl@@GLIBC_2.2.5                                 /lib/x86_64-linux-gnu/libm.so.6
nanl@GLIBC_2.2.5                                  /lib/x86_64-linux-gnu/libm.so.6
nanosleep                                         /lib/x86_64-linux-gnu/libpthread.so.0
nanosleep@@GLIBC_2.2.5                            /lib/x86_64-linux-gnu/libpthread.so.0
                                                  /lib/x86_64-linux-gnu/libc.so.6
nanosleep@GLIBC_2.2.5                             /lib/x86_64-linux-gnu/libpthread.so.0
                                                  /usr/lib/libcobalt.so
nearbyint                                         /lib/x86_64-linux-gnu/libm.so.6
nearbyint@@GLIBC_2.2.5                            /lib/x86_64-linux-gnu/libm.so.6
nearbyint@GLIBC_2.2.5                             /lib/x86_64-linux-gnu/libm.so.6
nearbyintf                                        /lib/x86_64-linux-gnu/libm.so.6
nearbyintf128                                     /lib/x86_64-linux-gnu/libm.so.6
nearbyintf128@@GLIBC_2.26                         /lib/x86_64-linux-gnu/libm.so.6
nearbyintf128@GLIBC_2.26                          /lib/x86_64-linux-gnu/libm.so.6
nearbyintf32                                      /lib/x86_64-linux-gnu/libm.so.6
nearbyintf32@@GLIBC_2.27                          /lib/x86_64-linux-gnu/libm.so.6
nearbyintf32@GLIBC_2.27                           /lib/x86_64-linux-gnu/libm.so.6
nearbyintf32x                                     /lib/x86_64-linux-gnu/libm.so.6
nearbyintf32x@@GLIBC_2.27                         /lib/x86_64-linux-gnu/libm.so.6
nearbyintf32x@GLIBC_2.27                          /lib/x86_64-linux-gnu/libm.so.6
nearbyintf64                                      /lib/x86_64-linux-gnu/libm.so.6
nearbyintf64@@GLIBC_2.27                          /lib/x86_64-linux-gnu/libm.so.6
nearbyintf64@GLIBC_2.27                           /lib/x86_64-linux-gnu/libm.so.6
nearbyintf64x                                     /lib/x86_64-linux-gnu/libm.so.6
nearbyintf64x@@GLIBC_2.27                         /lib/x86_64-linux-gnu/libm.so.6
nearbyintf64x@GLIBC_2.27                          /lib/x86_64-linux-gnu/libm.so.6
nearbyintf@@GLIBC_2.2.5                           /lib/x86_64-linux-gnu/libm.so.6
nearbyintf@GLIBC_2.2.5                            /lib/x86_64-linux-gnu/libm.so.6
nearbyintl                                        /lib/x86_64-linux-gnu/libm.so.6
nearbyintl@@GLIBC_2.2.5                           /lib/x86_64-linux-gnu/libm.so.6
nearbyintl@GLIBC_2.2.5                            /lib/x86_64-linux-gnu/libm.so.6
neg_v3                                            ../../lib/libbtsystem.a(btmath.o)
                                                  ../../lib/libbtsystem.a(btrobot.o)
neg_vn                                            ../../lib/libbtsystem.a(btmath.o)
nestLine                                          ../../lib/libbtsystem.a(btparser.o)
new_bot                                           ../../lib/libbtsystem.a(btrobot.o)
                                                  ../../lib/libbtwam.a(btwam.o)
new_btfilter                                      ../../lib/libbtsystem.a(btmath.o)
new_btfilter_vn                                   ../../lib/libbtsystem.a(btmath.o)
new_btlink                                        ../../lib/libbtsystem.a(btrobot.o)
new_btrt_thread                                   ../../lib/libbtsystem.a(btos.o)
new_btthread                                      ../../lib/libbtsystem.a(btos.o)
new_m3                                            ../../lib/libbtsystem.a(btmath.o)
                                                  ../../lib/libbtwam.a(btwam.o)
new_mh                                            ../../lib/libbtsystem.a(btmath.o)
                                                  ../../lib/libbtsystem.a(btrobot.o)
                                                  ../../lib/libbtwam.a(btwam.o)
                                                  main.o
new_mn                                            ../../lib/libbtsystem.a(btmath.o)
                                                  ../../lib/libbtsystem.a(btrobot.o)
                                                  ../../lib/libbtwam.a(btwam.o)
new_mn_ptr                                        ../../lib/libbtsystem.a(btmath.o)
                                                  ../../lib/libbtsystem.a(btrobot.o)
new_pa                                            ../../lib/libbtsystem.a(btseg.o)
new_param_by_arclen_pwl                           ../../lib/libbtsystem.a(btpath.o)
new_pavn                                          ../../lib/libbtsystem.a(btseg.o)
new_pwl                                           ../../lib/libbtsystem.a(btpath.o)
                                                  ../../lib/libbtsystem.a(btcontrol.o)
new_q                                             ../../lib/libbtsystem.a(btmath.o)
                                                  ../../lib/libbtwam.a(btwam.o)
new_v3                                            ../../lib/libbtsystem.a(btmath.o)
                                                  ../../lib/libbtsystem.a(btrobot.o)
                                                  ../../lib/libbtwam.a(btwam.o)
                                                  main.o
new_vn                                            ../../lib/libbtsystem.a(btmath.o)
                                                  ../../lib/libbtsystem.a(btpath.o)
                                                  ../../lib/libbtsystem.a(btseg.o)
                                                  ../../lib/libbtsystem.a(btrobot.o)
                                                  ../../lib/libbtwam.a(btwam.o)
                                                  main.o
new_vn_group                                      ../../lib/libbtsystem.a(btmath.o)
new_vr                                            ../../lib/libbtsystem.a(btmath.o)
                                                  ../../lib/libbtsystem.a(btpath.o)
                                                  ../../lib/libbtsystem.a(btcontrol.o)
new_vta                                           ../../lib/libbtsystem.a(btcontrol.o)
newlocale                                         /lib/x86_64-linux-gnu/libc.so.6
newlocale@@GLIBC_2.3                              /lib/x86_64-linux-gnu/libc.so.6
newlocale@GLIBC_2.3                               /lib/x86_64-linux-gnu/libc.so.6
next_point_vta                                    ../../lib/libbtsystem.a(btcontrol.o)
next_vr                                           ../../lib/libbtsystem.a(btmath.o)
                                                  ../../lib/libbtsystem.a(btcontrol.o)
nextafter                                         /lib/x86_64-linux-gnu/libm.so.6
nextafter@@GLIBC_2.2.5                            /lib/x86_64-linux-gnu/libm.so.6
nextafter@GLIBC_2.2.5                             /lib/x86_64-linux-gnu/libm.so.6
nextafterf                                        /lib/x86_64-linux-gnu/libm.so.6
nextafterf128                                     /lib/x86_64-linux-gnu/libm.so.6
nextafterf128@@GLIBC_2.26                         /lib/x86_64-linux-gnu/libm.so.6
nextafterf128@GLIBC_2.26                          /lib/x86_64-linux-gnu/libm.so.6
nextafterf32                                      /lib/x86_64-linux-gnu/libm.so.6
nextafterf32@@GLIBC_2.27                          /lib/x86_64-linux-gnu/libm.so.6
nextafterf32@GLIBC_2.27                           /lib/x86_64-linux-gnu/libm.so.6
nextafterf32x                                     /lib/x86_64-linux-gnu/libm.so.6
nextafterf32x@@GLIBC_2.27                         /lib/x86_64-linux-gnu/libm.so.6
nextafterf32x@GLIBC_2.27                          /lib/x86_64-linux-gnu/libm.so.6
nextafterf64                                      /lib/x86_64-linux-gnu/libm.so.6
nextafterf64@@GLIBC_2.27                          /lib/x86_64-linux-gnu/libm.so.6
nextafterf64@GLIBC_2.27                           /lib/x86_64-linux-gnu/libm.so.6
nextafterf64x                                     /lib/x86_64-linux-gnu/libm.so.6
nextafterf64x@@GLIBC_2.27                         /lib/x86_64-linux-gnu/libm.so.6
nextafterf64x@GLIBC_2.27                          /lib/x86_64-linux-gnu/libm.so.6
nextafterf@@GLIBC_2.2.5                           /lib/x86_64-linux-gnu/libm.so.6
nextafterf@GLIBC_2.2.5                            /lib/x86_64-linux-gnu/libm.so.6
nextafterl                                        /lib/x86_64-linux-gnu/libm.so.6
nextafterl@@GLIBC_2.2.5                           /lib/x86_64-linux-gnu/libm.so.6
nextafterl@GLIBC_2.2.5                            /lib/x86_64-linux-gnu/libm.so.6
nextdown                                          /lib/x86_64-linux-gnu/libm.so.6
nextdown@@GLIBC_2.24                              /lib/x86_64-linux-gnu/libm.so.6
nextdown@GLIBC_2.24                               /lib/x86_64-linux-gnu/libm.so.6
nextdownf                                         /lib/x86_64-linux-gnu/libm.so.6
nextdownf128                                      /lib/x86_64-linux-gnu/libm.so.6
nextdownf128@@GLIBC_2.26                          /lib/x86_64-linux-gnu/libm.so.6
nextdownf128@GLIBC_2.26                           /lib/x86_64-linux-gnu/libm.so.6
nextdownf32                                       /lib/x86_64-linux-gnu/libm.so.6
nextdownf32@@GLIBC_2.27                           /lib/x86_64-linux-gnu/libm.so.6
nextdownf32@GLIBC_2.27                            /lib/x86_64-linux-gnu/libm.so.6
nextdownf32x                                      /lib/x86_64-linux-gnu/libm.so.6
nextdownf32x@@GLIBC_2.27                          /lib/x86_64-linux-gnu/libm.so.6
nextdownf32x@GLIBC_2.27                           /lib/x86_64-linux-gnu/libm.so.6
nextdownf64                                       /lib/x86_64-linux-gnu/libm.so.6
nextdownf64@@GLIBC_2.27                           /lib/x86_64-linux-gnu/libm.so.6
nextdownf64@GLIBC_2.27                            /lib/x86_64-linux-gnu/libm.so.6
nextdownf64x                                      /lib/x86_64-linux-gnu/libm.so.6
nextdownf64x@@GLIBC_2.27                          /lib/x86_64-linux-gnu/libm.so.6
nextdownf64x@GLIBC_2.27                           /lib/x86_64-linux-gnu/libm.so.6
nextdownf@@GLIBC_2.24                             /lib/x86_64-linux-gnu/libm.so.6
nextdownf@GLIBC_2.24                              /lib/x86_64-linux-gnu/libm.so.6
nextdownl                                         /lib/x86_64-linux-gnu/libm.so.6
nextdownl@@GLIBC_2.24                             /lib/x86_64-linux-gnu/libm.so.6
nextdownl@GLIBC_2.24                              /lib/x86_64-linux-gnu/libm.so.6
nexttoward                                        /lib/x86_64-linux-gnu/libm.so.6
nexttoward@@GLIBC_2.2.5                           /lib/x86_64-linux-gnu/libm.so.6
nexttoward@GLIBC_2.2.5                            /lib/x86_64-linux-gnu/libm.so.6
nexttowardf                                       /lib/x86_64-linux-gnu/libm.so.6
nexttowardf@@GLIBC_2.2.5                          /lib/x86_64-linux-gnu/libm.so.6
nexttowardf@GLIBC_2.2.5                           /lib/x86_64-linux-gnu/libm.so.6
nexttowardl                                       /lib/x86_64-linux-gnu/libm.so.6
nexttowardl@@GLIBC_2.2.5                          /lib/x86_64-linux-gnu/libm.so.6
nexttowardl@GLIBC_2.2.5                           /lib/x86_64-linux-gnu/libm.so.6
nextup                                            /lib/x86_64-linux-gnu/libm.so.6
nextup@@GLIBC_2.24                                /lib/x86_64-linux-gnu/libm.so.6
nextup@GLIBC_2.24                                 /lib/x86_64-linux-gnu/libm.so.6
nextupf                                           /lib/x86_64-linux-gnu/libm.so.6
nextupf128                                        /lib/x86_64-linux-gnu/libm.so.6
nextupf128@@GLIBC_2.26                            /lib/x86_64-linux-gnu/libm.so.6
nextupf128@GLIBC_2.26                             /lib/x86_64-linux-gnu/libm.so.6
nextupf32                                         /lib/x86_64-linux-gnu/libm.so.6
nextupf32@@GLIBC_2.27                             /lib/x86_64-linux-gnu/libm.so.6
nextupf32@GLIBC_2.27                              /lib/x86_64-linux-gnu/libm.so.6
nextupf32x                                        /lib/x86_64-linux-gnu/libm.so.6
nextupf32x@@GLIBC_2.27                            /lib/x86_64-linux-gnu/libm.so.6
nextupf32x@GLIBC_2.27                             /lib/x86_64-linux-gnu/libm.so.6
nextupf64                                         /lib/x86_64-linux-gnu/libm.so.6
nextupf64@@GLIBC_2.27                             /lib/x86_64-linux-gnu/libm.so.6
nextupf64@GLIBC_2.27                              /lib/x86_64-linux-gnu/libm.so.6
nextupf64x                                        /lib/x86_64-linux-gnu/libm.so.6
nextupf64x@@GLIBC_2.27                            /lib/x86_64-linux-gnu/libm.so.6
nextupf64x@GLIBC_2.27                             /lib/x86_64-linux-gnu/libm.so.6
nextupf@@GLIBC_2.24                               /lib/x86_64-linux-gnu/libm.so.6
nextupf@GLIBC_2.24                                /lib/x86_64-linux-gnu/libm.so.6
nextupl                                           /lib/x86_64-linux-gnu/libm.so.6
nextupl@@GLIBC_2.24                               /lib/x86_64-linux-gnu/libm.so.6
nextupl@GLIBC_2.24                                /lib/x86_64-linux-gnu/libm.so.6
ngettext                                          /lib/x86_64-linux-gnu/libc.so.6
ngettext@@GLIBC_2.2.5                             /lib/x86_64-linux-gnu/libc.so.6
ngettext@GLIBC_2.2.5                              /lib/x86_64-linux-gnu/libc.so.6
nl_langinfo_l                                     /lib/x86_64-linux-gnu/libc.so.6
nl_langinfo_l@@GLIBC_2.3                          /lib/x86_64-linux-gnu/libc.so.6
nl_langinfo_l@GLIBC_2.3                           /lib/x86_64-linux-gnu/libc.so.6
norm_q                                            ../../lib/libbtsystem.a(btmath.o)
norm_v3                                           ../../lib/libbtsystem.a(btmath.o)
norm_vn                                           ../../lib/libbtsystem.a(btmath.o)
                                                  ../../lib/libbtsystem.a(btpath.o)
                                                  ../../lib/libbtsystem.a(btcontrol.o)
nrand48_r                                         /lib/x86_64-linux-gnu/libc.so.6
nrand48_r@@GLIBC_2.2.5                            /lib/x86_64-linux-gnu/libc.so.6
nrand48_r@GLIBC_2.2.5                             /lib/x86_64-linux-gnu/libc.so.6
ntohl                                             /lib/x86_64-linux-gnu/libc.so.6
ntohl@@GLIBC_2.2.5                                /lib/x86_64-linux-gnu/libc.so.6
ntohl@GLIBC_2.2.5                                 /lib/x86_64-linux-gnu/libc.so.6
ntohs                                             /lib/x86_64-linux-gnu/libc.so.6
ntohs@@GLIBC_2.2.5                                /lib/x86_64-linux-gnu/libc.so.6
ntohs@GLIBC_2.2.5                                 /lib/x86_64-linux-gnu/libc.so.6
ntp_adjtime                                       /lib/x86_64-linux-gnu/libc.so.6
ntp_adjtime@@GLIBC_2.2.5                          /lib/x86_64-linux-gnu/libc.so.6
ntp_adjtime@GLIBC_2.2.5                           /lib/x86_64-linux-gnu/libc.so.6
numMaintThreads                                   ../../lib/libbtwam.a(btwam.o)
num_actuators                                     ../../lib/libbtsystem.a(btsystem.o)
num_btptrs                                        ../../lib/libbtsystem.a(btmath.o)
num_buses                                         ../../lib/libbtsystem.a(btsystem.o)
numelements_vr                                    ../../lib/libbtsystem.a(btmath.o)
                                                  ../../lib/libbtsystem.a(btpath.o)
                                                  ../../lib/libbtsystem.a(btseg.o)
                                                  ../../lib/libbtsystem.a(btcontrol.o)
numrows_vr                                        ../../lib/libbtsystem.a(btmath.o)
                                                  ../../lib/libbtsystem.a(btpath.o)
                                                  ../../lib/libbtsystem.a(btseg.o)
                                                  ../../lib/libbtsystem.a(btcontrol.o)
obstack_printf                                    /lib/x86_64-linux-gnu/libc.so.6
obstack_printf@@GLIBC_2.2.5                       /lib/x86_64-linux-gnu/libc.so.6
obstack_printf@GLIBC_2.2.5                        /lib/x86_64-linux-gnu/libc.so.6
obstack_vprintf                                   /lib/x86_64-linux-gnu/libc.so.6
obstack_vprintf@@GLIBC_2.2.5                      /lib/x86_64-linux-gnu/libc.so.6
obstack_vprintf@GLIBC_2.2.5                       /lib/x86_64-linux-gnu/libc.so.6
on_exit                                           /lib/x86_64-linux-gnu/libc.so.6
on_exit@@GLIBC_2.2.5                              /lib/x86_64-linux-gnu/libc.so.6
on_exit@GLIBC_2.2.5                               /lib/x86_64-linux-gnu/libc.so.6
open                                              /lib/x86_64-linux-gnu/libpthread.so.0
                                                  ../../lib/libbtwam.a(btwam.o)
open64                                            /lib/x86_64-linux-gnu/libpthread.so.0
open64@@GLIBC_2.2.5                               /lib/x86_64-linux-gnu/libpthread.so.0
                                                  /lib/x86_64-linux-gnu/libc.so.6
open64@GLIBC_2.2.5                                /lib/x86_64-linux-gnu/libpthread.so.0
open@@GLIBC_2.2.5                                 /lib/x86_64-linux-gnu/libpthread.so.0
                                                  /lib/x86_64-linux-gnu/libc.so.6
open@GLIBC_2.2.5                                  /lib/x86_64-linux-gnu/libpthread.so.0
                                                  /usr/lib/gcc/x86_64-linux-gnu/7/../../../x86_64-linux-gnu/librt.so
                                                  /usr/lib/libcobalt.so
open_memstream                                    /lib/x86_64-linux-gnu/libc.so.6
open_memstream@@GLIBC_2.2.5                       /lib/x86_64-linux-gnu/libc.so.6
open_memstream@GLIBC_2.2.5                        /lib/x86_64-linux-gnu/libc.so.6
openat                                            /lib/x86_64-linux-gnu/libc.so.6
openat64                                          /lib/x86_64-linux-gnu/libc.so.6
openat64@@GLIBC_2.4                               /lib/x86_64-linux-gnu/libc.so.6
openat64@GLIBC_2.4                                /lib/x86_64-linux-gnu/libc.so.6
openat@@GLIBC_2.4                                 /lib/x86_64-linux-gnu/libc.so.6
openat@GLIBC_2.4                                  /lib/x86_64-linux-gnu/libc.so.6
opendir                                           /lib/x86_64-linux-gnu/libc.so.6
opendir@@GLIBC_2.2.5                              /lib/x86_64-linux-gnu/libc.so.6
opendir@GLIBC_2.2.5                               /lib/x86_64-linux-gnu/libc.so.6
outFile                                           ../../lib/libbtsystem.a(btparser.o)
parseFile                                         ../../lib/libbtsystem.a(btparser.o)
                                                  ../../lib/libbtsystem.a(btsystem.o)
                                                  ../../lib/libbtwam.a(btwam.o)
parseGetVal                                       ../../lib/libbtsystem.a(btparser.o)
                                                  ../../lib/libbtsystem.a(btsystem.o)
                                                  ../../lib/libbtwam.a(btwam.o)
parseMessage                                      ../../lib/libbtsystem.a(btcan_peakesd.o)
pathconf                                          /lib/x86_64-linux-gnu/libc.so.6
pathconf@@GLIBC_2.2.5                             /lib/x86_64-linux-gnu/libc.so.6
pathconf@GLIBC_2.2.5                              /lib/x86_64-linux-gnu/libc.so.6
pause                                             /lib/x86_64-linux-gnu/libpthread.so.0
pause@@GLIBC_2.2.5                                /lib/x86_64-linux-gnu/libpthread.so.0
                                                  /lib/x86_64-linux-gnu/libc.so.6
pause@GLIBC_2.2.5                                 /lib/x86_64-linux-gnu/libpthread.so.0
                                                  /usr/lib/libcopperplate.so
pause_trj_bts                                     ../../lib/libbtsystem.a(btstatecontrol.o)
personality                                       /lib/x86_64-linux-gnu/libc.so.6
personality@@GLIBC_2.2.5                          /lib/x86_64-linux-gnu/libc.so.6
personality@GLIBC_2.2.5                           /lib/x86_64-linux-gnu/libc.so.6
pipe                                              /lib/x86_64-linux-gnu/libc.so.6
pipe2                                             /lib/x86_64-linux-gnu/libc.so.6
pipe2@@GLIBC_2.9                                  /lib/x86_64-linux-gnu/libc.so.6
pipe2@GLIBC_2.9                                   /lib/x86_64-linux-gnu/libc.so.6
pipe@@GLIBC_2.2.5                                 /lib/x86_64-linux-gnu/libc.so.6
pipe@GLIBC_2.2.5                                  /lib/x86_64-linux-gnu/libc.so.6
poll                                              /lib/x86_64-linux-gnu/libc.so.6
poll@@GLIBC_2.2.5                                 /lib/x86_64-linux-gnu/libc.so.6
poll@GLIBC_2.2.5                                  /lib/x86_64-linux-gnu/libc.so.6
posix_fadvise64                                   /lib/x86_64-linux-gnu/libc.so.6
posix_fadvise64@@GLIBC_2.2.5                      /lib/x86_64-linux-gnu/libc.so.6
posix_fadvise64@GLIBC_2.2.5                       /lib/x86_64-linux-gnu/libc.so.6
posix_memalign                                    /lib/x86_64-linux-gnu/libc.so.6
posix_memalign@@GLIBC_2.2.5                       /lib/x86_64-linux-gnu/libc.so.6
posix_memalign@GLIBC_2.2.5                        /lib/x86_64-linux-gnu/libc.so.6
posix_openpt                                      /lib/x86_64-linux-gnu/libc.so.6
posix_openpt@@GLIBC_2.2.5                         /lib/x86_64-linux-gnu/libc.so.6
posix_openpt@GLIBC_2.2.5                          /lib/x86_64-linux-gnu/libc.so.6
pow                                               /lib/x86_64-linux-gnu/libm.so.6
                                                  ../../lib/libbtsystem.a(btmath.o)
pow@@GLIBC_2.2.5                                  /lib/x86_64-linux-gnu/libm.so.6
pow@GLIBC_2.2.5                                   /lib/x86_64-linux-gnu/libm.so.6
pow_q                                             ../../lib/libbtsystem.a(btmath.o)
powf128                                           /lib/x86_64-linux-gnu/libm.so.6
powf128@@GLIBC_2.26                               /lib/x86_64-linux-gnu/libm.so.6
powf128@GLIBC_2.26                                /lib/x86_64-linux-gnu/libm.so.6
powf32                                            /lib/x86_64-linux-gnu/libm.so.6
powf32@@GLIBC_2.27                                /lib/x86_64-linux-gnu/libm.so.6
powf32@GLIBC_2.27                                 /lib/x86_64-linux-gnu/libm.so.6
powf32x                                           /lib/x86_64-linux-gnu/libm.so.6
powf32x@@GLIBC_2.27                               /lib/x86_64-linux-gnu/libm.so.6
powf32x@GLIBC_2.27                                /lib/x86_64-linux-gnu/libm.so.6
powf64                                            /lib/x86_64-linux-gnu/libm.so.6
powf64@@GLIBC_2.27                                /lib/x86_64-linux-gnu/libm.so.6
powf64@GLIBC_2.27                                 /lib/x86_64-linux-gnu/libm.so.6
powf64x                                           /lib/x86_64-linux-gnu/libm.so.6
powf64x@@GLIBC_2.27                               /lib/x86_64-linux-gnu/libm.so.6
powf64x@GLIBC_2.27                                /lib/x86_64-linux-gnu/libm.so.6
powl                                              /lib/x86_64-linux-gnu/libm.so.6
powl@@GLIBC_2.2.5                                 /lib/x86_64-linux-gnu/libm.so.6
powl@GLIBC_2.2.5                                  /lib/x86_64-linux-gnu/libm.so.6
prctl                                             /lib/x86_64-linux-gnu/libc.so.6
prctl@@GLIBC_2.2.5                                /lib/x86_64-linux-gnu/libc.so.6
prctl@GLIBC_2.2.5                                 /lib/x86_64-linux-gnu/libc.so.6
                                                  /lib/x86_64-linux-gnu/libpthread.so.0
                                                  /usr/lib/libcopperplate.so
pread                                             /lib/x86_64-linux-gnu/libpthread.so.0
pread64                                           /lib/x86_64-linux-gnu/libpthread.so.0
pread64@@GLIBC_2.2.5                              /lib/x86_64-linux-gnu/libpthread.so.0
                                                  /lib/x86_64-linux-gnu/libc.so.6
pread64@GLIBC_2.2.5                               /lib/x86_64-linux-gnu/libpthread.so.0
pread@@GLIBC_2.2.5                                /lib/x86_64-linux-gnu/libpthread.so.0
                                                  /lib/x86_64-linux-gnu/libc.so.6
pread@GLIBC_2.2.5                                 /lib/x86_64-linux-gnu/libpthread.so.0
prev_point_vta                                    ../../lib/libbtsystem.a(btcontrol.o)
prev_vr                                           ../../lib/libbtsystem.a(btmath.o)
                                                  ../../lib/libbtsystem.a(btcontrol.o)
print_mh                                          ../../lib/libbtsystem.a(btmath.o)
print_v3                                          ../../lib/libbtsystem.a(btmath.o)
print_vn                                          ../../lib/libbtsystem.a(btmath.o)
                                                  ../../lib/libbtsystem.a(btrobot.o)
prlimit64                                         /lib/x86_64-linux-gnu/libc.so.6
prlimit64@@GLIBC_2.13                             /lib/x86_64-linux-gnu/libc.so.6
prlimit64@GLIBC_2.13                              /lib/x86_64-linux-gnu/libc.so.6
profil                                            /lib/x86_64-linux-gnu/libc.so.6
profil@@GLIBC_2.2.5                               /lib/x86_64-linux-gnu/libc.so.6
profil@GLIBC_2.2.5                                /lib/x86_64-linux-gnu/libc.so.6
program_invocation_name                           /lib/x86_64-linux-gnu/libc.so.6
program_invocation_name@@GLIBC_2.2.5              /lib/x86_64-linux-gnu/libc.so.6
program_invocation_name@GLIBC_2.2.5               /lib/x86_64-linux-gnu/libc.so.6
program_invocation_short_name                     /lib/x86_64-linux-gnu/libc.so.6
program_invocation_short_name@@GLIBC_2.2.5        /lib/x86_64-linux-gnu/libc.so.6
program_invocation_short_name@GLIBC_2.2.5         /lib/x86_64-linux-gnu/libc.so.6
pselect                                           /lib/x86_64-linux-gnu/libc.so.6
pselect@@GLIBC_2.2.5                              /lib/x86_64-linux-gnu/libc.so.6
pselect@GLIBC_2.2.5                               /lib/x86_64-linux-gnu/libc.so.6
pthread_barrier_init                              /lib/x86_64-linux-gnu/libpthread.so.0
pthread_barrier_init@@GLIBC_2.2.5                 /lib/x86_64-linux-gnu/libpthread.so.0
pthread_barrier_init@GLIBC_2.2.5                  /lib/x86_64-linux-gnu/libpthread.so.0
pthread_barrier_wait                              /lib/x86_64-linux-gnu/libpthread.so.0
pthread_barrier_wait@@GLIBC_2.2.5                 /lib/x86_64-linux-gnu/libpthread.so.0
pthread_barrier_wait@GLIBC_2.2.5                  /lib/x86_64-linux-gnu/libpthread.so.0
pthread_cancel                                    /lib/x86_64-linux-gnu/libpthread.so.0
pthread_cancel@@GLIBC_2.2.5                       /lib/x86_64-linux-gnu/libpthread.so.0
pthread_cancel@GLIBC_2.2.5                        /lib/x86_64-linux-gnu/libpthread.so.0
                                                  /usr/lib/gcc/x86_64-linux-gnu/7/../../../x86_64-linux-gnu/librt.so
                                                  /usr/lib/libcobalt.so
                                                  /usr/lib/libcopperplate.so
pthread_detach                                    /lib/x86_64-linux-gnu/libpthread.so.0
pthread_detach@@GLIBC_2.2.5                       /lib/x86_64-linux-gnu/libpthread.so.0
pthread_detach@GLIBC_2.2.5                        /lib/x86_64-linux-gnu/libpthread.so.0
                                                  /usr/lib/gcc/x86_64-linux-gnu/7/../../../x86_64-linux-gnu/librt.so
pthread_equal                                     /lib/x86_64-linux-gnu/libpthread.so.0
pthread_equal@@GLIBC_2.2.5                        /lib/x86_64-linux-gnu/libpthread.so.0
                                                  /lib/x86_64-linux-gnu/libc.so.6
pthread_equal@GLIBC_2.2.5                         /lib/x86_64-linux-gnu/libpthread.so.0
pthread_exit                                      /lib/x86_64-linux-gnu/libpthread.so.0
                                                  ../../lib/libbtsystem.a(btos.o)
                                                  ../../lib/libbtwam.a(btwam.o)
pthread_exit@@GLIBC_2.2.5                         /lib/x86_64-linux-gnu/libpthread.so.0
                                                  /lib/x86_64-linux-gnu/libc.so.6
pthread_exit@GLIBC_2.2.5                          /lib/x86_64-linux-gnu/libpthread.so.0
                                                  /usr/lib/gcc/x86_64-linux-gnu/7/../../../x86_64-linux-gnu/librt.so
                                                  /usr/lib/libcopperplate.so
pthread_getspecific                               /lib/x86_64-linux-gnu/libpthread.so.0
pthread_getspecific@@GLIBC_2.2.5                  /lib/x86_64-linux-gnu/libpthread.so.0
pthread_getspecific@GLIBC_2.2.5                   /lib/x86_64-linux-gnu/libpthread.so.0
                                                  /usr/lib/libcobalt.so
pthread_join                                      /lib/x86_64-linux-gnu/libpthread.so.0
                                                  ../../lib/libbtsystem.a(btos.o)
pthread_join@@GLIBC_2.2.5                         /lib/x86_64-linux-gnu/libpthread.so.0
pthread_join@GLIBC_2.2.5                          /lib/x86_64-linux-gnu/libpthread.so.0
                                                  /usr/lib/libcobalt.so
pthread_key_create                                /lib/x86_64-linux-gnu/libpthread.so.0
pthread_key_create@@GLIBC_2.2.5                   /lib/x86_64-linux-gnu/libpthread.so.0
pthread_key_create@GLIBC_2.2.5                    /lib/x86_64-linux-gnu/libpthread.so.0
                                                  /usr/lib/libcobalt.so
                                                  /usr/lib/libcopperplate.so
pthread_key_delete                                /lib/x86_64-linux-gnu/libpthread.so.0
pthread_key_delete@@GLIBC_2.2.5                   /lib/x86_64-linux-gnu/libpthread.so.0
pthread_key_delete@GLIBC_2.2.5                    /lib/x86_64-linux-gnu/libpthread.so.0
pthread_mutex_consistent_np                       /lib/x86_64-linux-gnu/libpthread.so.0
pthread_mutex_consistent_np@@GLIBC_2.4            /lib/x86_64-linux-gnu/libpthread.so.0
pthread_mutex_consistent_np@GLIBC_2.4             /lib/x86_64-linux-gnu/libpthread.so.0
pthread_mutex_destroy                             /lib/x86_64-linux-gnu/libpthread.so.0
pthread_mutex_destroy@@GLIBC_2.2.5                /lib/x86_64-linux-gnu/libpthread.so.0
                                                  /lib/x86_64-linux-gnu/libc.so.6
pthread_mutex_destroy@GLIBC_2.2.5                 /lib/x86_64-linux-gnu/libpthread.so.0
pthread_mutex_init                                /lib/x86_64-linux-gnu/libpthread.so.0
                                                  ../../lib/libbtsystem.a(btos.o)
pthread_mutex_init@@GLIBC_2.2.5                   /lib/x86_64-linux-gnu/libpthread.so.0
                                                  /lib/x86_64-linux-gnu/libc.so.6
pthread_mutex_init@GLIBC_2.2.5                    /lib/x86_64-linux-gnu/libpthread.so.0
                                                  /usr/lib/libcobalt.so
pthread_mutex_lock                                /lib/x86_64-linux-gnu/libpthread.so.0
                                                  ../../lib/libbtsystem.a(btos.o)
pthread_mutex_lock@@GLIBC_2.2.5                   /lib/x86_64-linux-gnu/libpthread.so.0
                                                  /lib/x86_64-linux-gnu/libc.so.6
pthread_mutex_lock@GLIBC_2.2.5                    /lib/x86_64-linux-gnu/libpthread.so.0
                                                  /usr/lib/gcc/x86_64-linux-gnu/7/../../../x86_64-linux-gnu/librt.so
                                                  /usr/lib/libcobalt.so
pthread_mutex_timedlock                           /lib/x86_64-linux-gnu/libpthread.so.0
pthread_mutex_timedlock@@GLIBC_2.2.5              /lib/x86_64-linux-gnu/libpthread.so.0
pthread_mutex_timedlock@GLIBC_2.2.5               /lib/x86_64-linux-gnu/libpthread.so.0
pthread_mutex_trylock                             /lib/x86_64-linux-gnu/libpthread.so.0
pthread_mutex_trylock@@GLIBC_2.2.5                /lib/x86_64-linux-gnu/libpthread.so.0
pthread_mutex_trylock@GLIBC_2.2.5                 /lib/x86_64-linux-gnu/libpthread.so.0
pthread_mutex_unlock                              /lib/x86_64-linux-gnu/libpthread.so.0
                                                  ../../lib/libbtsystem.a(btos.o)
pthread_mutex_unlock@@GLIBC_2.2.5                 /lib/x86_64-linux-gnu/libpthread.so.0
                                                  /lib/x86_64-linux-gnu/libc.so.6
pthread_mutex_unlock@GLIBC_2.2.5                  /lib/x86_64-linux-gnu/libpthread.so.0
                                                  /usr/lib/gcc/x86_64-linux-gnu/7/../../../x86_64-linux-gnu/librt.so
                                                  /usr/lib/libcobalt.so
pthread_mutexattr_getkind_np                      /lib/x86_64-linux-gnu/libpthread.so.0
pthread_mutexattr_getkind_np@@GLIBC_2.2.5         /lib/x86_64-linux-gnu/libpthread.so.0
pthread_mutexattr_getkind_np@GLIBC_2.2.5          /lib/x86_64-linux-gnu/libpthread.so.0
pthread_mutexattr_getrobust_np                    /lib/x86_64-linux-gnu/libpthread.so.0
pthread_mutexattr_getrobust_np@@GLIBC_2.4         /lib/x86_64-linux-gnu/libpthread.so.0
pthread_mutexattr_getrobust_np@GLIBC_2.4          /lib/x86_64-linux-gnu/libpthread.so.0
pthread_mutexattr_init                            /lib/x86_64-linux-gnu/libpthread.so.0
                                                  /usr/lib/libalchemy.so
                                                  /usr/lib/libtrank.so
                                                  ../../lib/libbtsystem.a(btos.o)
pthread_mutexattr_init@@GLIBC_2.2.5               /lib/x86_64-linux-gnu/libpthread.so.0
pthread_mutexattr_init@GLIBC_2.2.5                /lib/x86_64-linux-gnu/libpthread.so.0
                                                  /usr/lib/libcobalt.so
                                                  /usr/lib/libcopperplate.so
pthread_mutexattr_setkind_np                      /lib/x86_64-linux-gnu/libpthread.so.0
pthread_mutexattr_setkind_np@@GLIBC_2.2.5         /lib/x86_64-linux-gnu/libpthread.so.0
pthread_mutexattr_setkind_np@GLIBC_2.2.5          /lib/x86_64-linux-gnu/libpthread.so.0
pthread_mutexattr_setrobust_np                    /lib/x86_64-linux-gnu/libpthread.so.0
                                                  /usr/lib/libalchemy.so
pthread_mutexattr_setrobust_np@@GLIBC_2.4         /lib/x86_64-linux-gnu/libpthread.so.0
pthread_mutexattr_setrobust_np@GLIBC_2.4          /lib/x86_64-linux-gnu/libpthread.so.0
pthread_mutexattr_settype                         /lib/x86_64-linux-gnu/libpthread.so.0
                                                  /usr/lib/libalchemy.so
                                                  /usr/lib/libtrank.so
                                                  ../../lib/libbtsystem.a(btos.o)
pthread_mutexattr_settype@@GLIBC_2.2.5            /lib/x86_64-linux-gnu/libpthread.so.0
pthread_mutexattr_settype@GLIBC_2.2.5             /lib/x86_64-linux-gnu/libpthread.so.0
                                                  /usr/lib/libcobalt.so
                                                  /usr/lib/libcopperplate.so
pthread_once                                      /lib/x86_64-linux-gnu/libpthread.so.0
pthread_once@@GLIBC_2.2.5                         /lib/x86_64-linux-gnu/libpthread.so.0
pthread_once@GLIBC_2.2.5                          /lib/x86_64-linux-gnu/libpthread.so.0
                                                  /usr/lib/gcc/x86_64-linux-gnu/7/../../../x86_64-linux-gnu/librt.so
                                                  /usr/lib/libcobalt.so
                                                  /usr/lib/libcopperplate.so
pthread_rwlock_rdlock                             /lib/x86_64-linux-gnu/libpthread.so.0
pthread_rwlock_rdlock@@GLIBC_2.2.5                /lib/x86_64-linux-gnu/libpthread.so.0
pthread_rwlock_rdlock@GLIBC_2.2.5                 /lib/x86_64-linux-gnu/libpthread.so.0
pthread_rwlock_unlock                             /lib/x86_64-linux-gnu/libpthread.so.0
pthread_rwlock_unlock@@GLIBC_2.2.5                /lib/x86_64-linux-gnu/libpthread.so.0
pthread_rwlock_unlock@GLIBC_2.2.5                 /lib/x86_64-linux-gnu/libpthread.so.0
pthread_rwlock_wrlock                             /lib/x86_64-linux-gnu/libpthread.so.0
pthread_rwlock_wrlock@@GLIBC_2.2.5                /lib/x86_64-linux-gnu/libpthread.so.0
pthread_rwlock_wrlock@GLIBC_2.2.5                 /lib/x86_64-linux-gnu/libpthread.so.0
pthread_setspecific                               /lib/x86_64-linux-gnu/libpthread.so.0
pthread_setspecific@@GLIBC_2.2.5                  /lib/x86_64-linux-gnu/libpthread.so.0
pthread_setspecific@GLIBC_2.2.5                   /lib/x86_64-linux-gnu/libpthread.so.0
                                                  /usr/lib/libcobalt.so
                                                  /usr/lib/libcopperplate.so
pthread_timedjoin_np                              /lib/x86_64-linux-gnu/libpthread.so.0
pthread_timedjoin_np@@GLIBC_2.3.3                 /lib/x86_64-linux-gnu/libpthread.so.0
pthread_timedjoin_np@GLIBC_2.3.3                  /lib/x86_64-linux-gnu/libpthread.so.0
ptsname_r                                         /lib/x86_64-linux-gnu/libc.so.6
ptsname_r@@GLIBC_2.2.5                            /lib/x86_64-linux-gnu/libc.so.6
ptsname_r@GLIBC_2.2.5                             /lib/x86_64-linux-gnu/libc.so.6
putc                                              /lib/x86_64-linux-gnu/libc.so.6
putc@@GLIBC_2.2.5                                 /lib/x86_64-linux-gnu/libc.so.6
putc@GLIBC_2.2.5                                  /lib/x86_64-linux-gnu/libc.so.6
puts                                              /lib/x86_64-linux-gnu/libc.so.6
                                                  main.o
puts@@GLIBC_2.2.5                                 /lib/x86_64-linux-gnu/libc.so.6
puts@GLIBC_2.2.5                                  /lib/x86_64-linux-gnu/libc.so.6
                                                  /usr/lib/libcobalt.so
pututline                                         /lib/x86_64-linux-gnu/libc.so.6
pututline@@GLIBC_2.2.5                            /lib/x86_64-linux-gnu/libc.so.6
pututline@GLIBC_2.2.5                             /lib/x86_64-linux-gnu/libc.so.6
pvalloc                                           /lib/x86_64-linux-gnu/libc.so.6
pvalloc@@GLIBC_2.2.5                              /lib/x86_64-linux-gnu/libc.so.6
pvalloc@GLIBC_2.2.5                               /lib/x86_64-linux-gnu/libc.so.6
pwrite                                            /lib/x86_64-linux-gnu/libpthread.so.0
pwrite64                                          /lib/x86_64-linux-gnu/libpthread.so.0
pwrite64@@GLIBC_2.2.5                             /lib/x86_64-linux-gnu/libpthread.so.0
                                                  /lib/x86_64-linux-gnu/libc.so.6
pwrite64@GLIBC_2.2.5                              /lib/x86_64-linux-gnu/libpthread.so.0
pwrite@@GLIBC_2.2.5                               /lib/x86_64-linux-gnu/libpthread.so.0
                                                  /lib/x86_64-linux-gnu/libc.so.6
pwrite@GLIBC_2.2.5                                /lib/x86_64-linux-gnu/libpthread.so.0
q_to_R                                            ../../lib/libbtsystem.a(btmath.o)
qecvt_r                                           /lib/x86_64-linux-gnu/libc.so.6
qecvt_r@@GLIBC_2.2.5                              /lib/x86_64-linux-gnu/libc.so.6
qecvt_r@GLIBC_2.2.5                               /lib/x86_64-linux-gnu/libc.so.6
qfcvt_r                                           /lib/x86_64-linux-gnu/libc.so.6
qfcvt_r@@GLIBC_2.2.5                              /lib/x86_64-linux-gnu/libc.so.6
qfcvt_r@GLIBC_2.2.5                               /lib/x86_64-linux-gnu/libc.so.6
qsort_r                                           /lib/x86_64-linux-gnu/libc.so.6
qsort_r@@GLIBC_2.8                                /lib/x86_64-linux-gnu/libc.so.6
qsort_r@GLIBC_2.8                                 /lib/x86_64-linux-gnu/libc.so.6
random                                            /lib/x86_64-linux-gnu/libc.so.6
random@@GLIBC_2.2.5                               /lib/x86_64-linux-gnu/libc.so.6
random@GLIBC_2.2.5                                /lib/x86_64-linux-gnu/libc.so.6
random_r                                          /lib/x86_64-linux-gnu/libc.so.6
random_r@@GLIBC_2.2.5                             /lib/x86_64-linux-gnu/libc.so.6
random_r@GLIBC_2.2.5                              /lib/x86_64-linux-gnu/libc.so.6
rawmemchr                                         /lib/x86_64-linux-gnu/libc.so.6
rawmemchr@@GLIBC_2.2.5                            /lib/x86_64-linux-gnu/libc.so.6
rawmemchr@GLIBC_2.2.5                             /lib/x86_64-linux-gnu/libc.so.6
re_comp                                           /lib/x86_64-linux-gnu/libc.so.6
re_comp@@GLIBC_2.2.5                              /lib/x86_64-linux-gnu/libc.so.6
re_comp@GLIBC_2.2.5                               /lib/x86_64-linux-gnu/libc.so.6
re_compile_fastmap                                /lib/x86_64-linux-gnu/libc.so.6
re_compile_fastmap@@GLIBC_2.2.5                   /lib/x86_64-linux-gnu/libc.so.6
re_compile_fastmap@GLIBC_2.2.5                    /lib/x86_64-linux-gnu/libc.so.6
re_compile_pattern                                /lib/x86_64-linux-gnu/libc.so.6
re_compile_pattern@@GLIBC_2.2.5                   /lib/x86_64-linux-gnu/libc.so.6
re_compile_pattern@GLIBC_2.2.5                    /lib/x86_64-linux-gnu/libc.so.6
re_exec                                           /lib/x86_64-linux-gnu/libc.so.6
re_exec@@GLIBC_2.2.5                              /lib/x86_64-linux-gnu/libc.so.6
re_exec@GLIBC_2.2.5                               /lib/x86_64-linux-gnu/libc.so.6
re_match                                          /lib/x86_64-linux-gnu/libc.so.6
re_match@@GLIBC_2.2.5                             /lib/x86_64-linux-gnu/libc.so.6
re_match@GLIBC_2.2.5                              /lib/x86_64-linux-gnu/libc.so.6
re_match_2                                        /lib/x86_64-linux-gnu/libc.so.6
re_match_2@@GLIBC_2.2.5                           /lib/x86_64-linux-gnu/libc.so.6
re_match_2@GLIBC_2.2.5                            /lib/x86_64-linux-gnu/libc.so.6
re_search                                         /lib/x86_64-linux-gnu/libc.so.6
re_search@@GLIBC_2.2.5                            /lib/x86_64-linux-gnu/libc.so.6
re_search@GLIBC_2.2.5                             /lib/x86_64-linux-gnu/libc.so.6
re_search_2                                       /lib/x86_64-linux-gnu/libc.so.6
re_search_2@@GLIBC_2.2.5                          /lib/x86_64-linux-gnu/libc.so.6
re_search_2@GLIBC_2.2.5                           /lib/x86_64-linux-gnu/libc.so.6
re_set_registers                                  /lib/x86_64-linux-gnu/libc.so.6
re_set_registers@@GLIBC_2.2.5                     /lib/x86_64-linux-gnu/libc.so.6
re_set_registers@GLIBC_2.2.5                      /lib/x86_64-linux-gnu/libc.so.6
re_set_syntax                                     /lib/x86_64-linux-gnu/libc.so.6
re_set_syntax@@GLIBC_2.2.5                        /lib/x86_64-linux-gnu/libc.so.6
re_set_syntax@GLIBC_2.2.5                         /lib/x86_64-linux-gnu/libc.so.6
read                                              /lib/x86_64-linux-gnu/libpthread.so.0
read@@GLIBC_2.2.5                                 /lib/x86_64-linux-gnu/libpthread.so.0
                                                  /lib/x86_64-linux-gnu/libc.so.6
read@GLIBC_2.2.5                                  /lib/x86_64-linux-gnu/libpthread.so.0
                                                  /usr/lib/gcc/x86_64-linux-gnu/7/../../../x86_64-linux-gnu/librt.so
                                                  /usr/lib/libcobalt.so
read_csv_file_vr                                  ../../lib/libbtsystem.a(btmath.o)
                                                  ../../lib/libbtsystem.a(btcontrol.o)
read_file_vta                                     ../../lib/libbtsystem.a(btcontrol.o)
readahead                                         /lib/x86_64-linux-gnu/libc.so.6
readahead@@GLIBC_2.3                              /lib/x86_64-linux-gnu/libc.so.6
readahead@GLIBC_2.3                               /lib/x86_64-linux-gnu/libc.so.6
readdir                                           /lib/x86_64-linux-gnu/libc.so.6
readdir64                                         /lib/x86_64-linux-gnu/libc.so.6
readdir64@@GLIBC_2.2.5                            /lib/x86_64-linux-gnu/libc.so.6
readdir64@GLIBC_2.2.5                             /lib/x86_64-linux-gnu/libc.so.6
readdir64_r                                       /lib/x86_64-linux-gnu/libc.so.6
readdir64_r@@GLIBC_2.2.5                          /lib/x86_64-linux-gnu/libc.so.6
readdir64_r@GLIBC_2.2.5                           /lib/x86_64-linux-gnu/libc.so.6
readdir@@GLIBC_2.2.5                              /lib/x86_64-linux-gnu/libc.so.6
readdir@GLIBC_2.2.5                               /lib/x86_64-linux-gnu/libc.so.6
readdir_r                                         /lib/x86_64-linux-gnu/libc.so.6
readdir_r@@GLIBC_2.2.5                            /lib/x86_64-linux-gnu/libc.so.6
readdir_r@GLIBC_2.2.5                             /lib/x86_64-linux-gnu/libc.so.6
readfile_ct                                       ../../lib/libbtsystem.a(btcontrol.o)
readlink                                          /lib/x86_64-linux-gnu/libc.so.6
readlink@@GLIBC_2.2.5                             /lib/x86_64-linux-gnu/libc.so.6
readlink@GLIBC_2.2.5                              /lib/x86_64-linux-gnu/libc.so.6
readv                                             /lib/x86_64-linux-gnu/libc.so.6
readv@@GLIBC_2.2.5                                /lib/x86_64-linux-gnu/libc.so.6
readv@GLIBC_2.2.5                                 /lib/x86_64-linux-gnu/libc.so.6
reallocarray                                      /lib/x86_64-linux-gnu/libc.so.6
reallocarray@@GLIBC_2.26                          /lib/x86_64-linux-gnu/libc.so.6
reallocarray@GLIBC_2.26                           /lib/x86_64-linux-gnu/libc.so.6
recv                                              /lib/x86_64-linux-gnu/libpthread.so.0
recv@@GLIBC_2.2.5                                 /lib/x86_64-linux-gnu/libpthread.so.0
                                                  /lib/x86_64-linux-gnu/libc.so.6
recv@GLIBC_2.2.5                                  /lib/x86_64-linux-gnu/libpthread.so.0
                                                  /usr/lib/libcobalt.so
recvfrom                                          /lib/x86_64-linux-gnu/libpthread.so.0
recvfrom@@GLIBC_2.2.5                             /lib/x86_64-linux-gnu/libpthread.so.0
                                                  /lib/x86_64-linux-gnu/libc.so.6
recvfrom@GLIBC_2.2.5                              /lib/x86_64-linux-gnu/libpthread.so.0
                                                  /usr/lib/libcobalt.so
recvmsg                                           /lib/x86_64-linux-gnu/libpthread.so.0
recvmsg@@GLIBC_2.2.5                              /lib/x86_64-linux-gnu/libpthread.so.0
                                                  /lib/x86_64-linux-gnu/libc.so.6
recvmsg@GLIBC_2.2.5                               /lib/x86_64-linux-gnu/libpthread.so.0
                                                  /usr/lib/libcobalt.so
regcomp                                           /lib/x86_64-linux-gnu/libc.so.6
                                                  ../../lib/libbtsystem.a(btmath.o)
regcomp@@GLIBC_2.2.5                              /lib/x86_64-linux-gnu/libc.so.6
regcomp@GLIBC_2.2.5                               /lib/x86_64-linux-gnu/libc.so.6
regerror                                          /lib/x86_64-linux-gnu/libc.so.6
regerror@@GLIBC_2.2.5                             /lib/x86_64-linux-gnu/libc.so.6
regerror@GLIBC_2.2.5                              /lib/x86_64-linux-gnu/libc.so.6
regfree                                           /lib/x86_64-linux-gnu/libc.so.6
regfree@@GLIBC_2.2.5                              /lib/x86_64-linux-gnu/libc.so.6
regfree@GLIBC_2.2.5                               /lib/x86_64-linux-gnu/libc.so.6
registerWAMcallback                               ../../lib/libbtwam.a(btwam.o)
registerWAMmotorcallback                          ../../lib/libbtwam.a(btwam.o)
register_printf_function                          /lib/x86_64-linux-gnu/libc.so.6
register_printf_function@@GLIBC_2.2.5             /lib/x86_64-linux-gnu/libc.so.6
register_printf_function@GLIBC_2.2.5              /lib/x86_64-linux-gnu/libc.so.6
register_printf_modifier                          /lib/x86_64-linux-gnu/libc.so.6
register_printf_modifier@@GLIBC_2.10              /lib/x86_64-linux-gnu/libc.so.6
register_printf_modifier@GLIBC_2.10               /lib/x86_64-linux-gnu/libc.so.6
register_printf_specifier                         /lib/x86_64-linux-gnu/libc.so.6
register_printf_specifier@@GLIBC_2.10             /lib/x86_64-linux-gnu/libc.so.6
register_printf_specifier@GLIBC_2.10              /lib/x86_64-linux-gnu/libc.so.6
register_printf_type                              /lib/x86_64-linux-gnu/libc.so.6
register_printf_type@@GLIBC_2.10                  /lib/x86_64-linux-gnu/libc.so.6
register_printf_type@GLIBC_2.10                   /lib/x86_64-linux-gnu/libc.so.6
register_vta                                      ../../lib/libbtsystem.a(btcontrol.o)
remainder                                         /lib/x86_64-linux-gnu/libm.so.6
remainder@@GLIBC_2.2.5                            /lib/x86_64-linux-gnu/libm.so.6
remainder@GLIBC_2.2.5                             /lib/x86_64-linux-gnu/libm.so.6
remainderf                                        /lib/x86_64-linux-gnu/libm.so.6
remainderf128                                     /lib/x86_64-linux-gnu/libm.so.6
remainderf128@@GLIBC_2.26                         /lib/x86_64-linux-gnu/libm.so.6
remainderf128@GLIBC_2.26                          /lib/x86_64-linux-gnu/libm.so.6
remainderf32                                      /lib/x86_64-linux-gnu/libm.so.6
remainderf32@@GLIBC_2.27                          /lib/x86_64-linux-gnu/libm.so.6
remainderf32@GLIBC_2.27                           /lib/x86_64-linux-gnu/libm.so.6
remainderf32x                                     /lib/x86_64-linux-gnu/libm.so.6
remainderf32x@@GLIBC_2.27                         /lib/x86_64-linux-gnu/libm.so.6
remainderf32x@GLIBC_2.27                          /lib/x86_64-linux-gnu/libm.so.6
remainderf64                                      /lib/x86_64-linux-gnu/libm.so.6
remainderf64@@GLIBC_2.27                          /lib/x86_64-linux-gnu/libm.so.6
remainderf64@GLIBC_2.27                           /lib/x86_64-linux-gnu/libm.so.6
remainderf64x                                     /lib/x86_64-linux-gnu/libm.so.6
remainderf64x@@GLIBC_2.27                         /lib/x86_64-linux-gnu/libm.so.6
remainderf64x@GLIBC_2.27                          /lib/x86_64-linux-gnu/libm.so.6
remainderf@@GLIBC_2.2.5                           /lib/x86_64-linux-gnu/libm.so.6
remainderf@GLIBC_2.2.5                            /lib/x86_64-linux-gnu/libm.so.6
remainderl                                        /lib/x86_64-linux-gnu/libm.so.6
remainderl@@GLIBC_2.2.5                           /lib/x86_64-linux-gnu/libm.so.6
remainderl@GLIBC_2.2.5                            /lib/x86_64-linux-gnu/libm.so.6
remap_file_pages                                  /lib/x86_64-linux-gnu/libc.so.6
remap_file_pages@@GLIBC_2.3.3                     /lib/x86_64-linux-gnu/libc.so.6
remap_file_pages@GLIBC_2.3.3                      /lib/x86_64-linux-gnu/libc.so.6
rembtptr                                          ../../lib/libbtsystem.a(btmath.o)
remquo                                            /lib/x86_64-linux-gnu/libm.so.6
remquo@@GLIBC_2.2.5                               /lib/x86_64-linux-gnu/libm.so.6
remquo@GLIBC_2.2.5                                /lib/x86_64-linux-gnu/libm.so.6
remquof                                           /lib/x86_64-linux-gnu/libm.so.6
remquof128                                        /lib/x86_64-linux-gnu/libm.so.6
remquof128@@GLIBC_2.26                            /lib/x86_64-linux-gnu/libm.so.6
remquof128@GLIBC_2.26                             /lib/x86_64-linux-gnu/libm.so.6
remquof32                                         /lib/x86_64-linux-gnu/libm.so.6
remquof32@@GLIBC_2.27                             /lib/x86_64-linux-gnu/libm.so.6
remquof32@GLIBC_2.27                              /lib/x86_64-linux-gnu/libm.so.6
remquof32x                                        /lib/x86_64-linux-gnu/libm.so.6
remquof32x@@GLIBC_2.27                            /lib/x86_64-linux-gnu/libm.so.6
remquof32x@GLIBC_2.27                             /lib/x86_64-linux-gnu/libm.so.6
remquof64                                         /lib/x86_64-linux-gnu/libm.so.6
remquof64@@GLIBC_2.27                             /lib/x86_64-linux-gnu/libm.so.6
remquof64@GLIBC_2.27                              /lib/x86_64-linux-gnu/libm.so.6
remquof64x                                        /lib/x86_64-linux-gnu/libm.so.6
remquof64x@@GLIBC_2.27                            /lib/x86_64-linux-gnu/libm.so.6
remquof64x@GLIBC_2.27                             /lib/x86_64-linux-gnu/libm.so.6
remquof@@GLIBC_2.2.5                              /lib/x86_64-linux-gnu/libm.so.6
remquof@GLIBC_2.2.5                               /lib/x86_64-linux-gnu/libm.so.6
remquol                                           /lib/x86_64-linux-gnu/libm.so.6
remquol@@GLIBC_2.2.5                              /lib/x86_64-linux-gnu/libm.so.6
remquol@GLIBC_2.2.5                               /lib/x86_64-linux-gnu/libm.so.6
reset_btPID                                       ../../lib/libbtsystem.a(btcontrol.o)
reset_pa                                          ../../lib/libbtsystem.a(btseg.o)
reset_pavn                                        ../../lib/libbtsystem.a(btseg.o)
                                                  ../../lib/libbtsystem.a(btcontrol.o)
reset_vn                                          ../../lib/libbtsystem.a(btmath.o)
                                                  ../../lib/libbtsystem.a(btcontrol.o)
reset_vta                                         ../../lib/libbtsystem.a(btcontrol.o)
resize_vr                                         ../../lib/libbtsystem.a(btmath.o)
                                                  ../../lib/libbtsystem.a(btcontrol.o)
revoke                                            /lib/x86_64-linux-gnu/libc.so.6
revoke@@GLIBC_2.2.5                               /lib/x86_64-linux-gnu/libc.so.6
revoke@GLIBC_2.2.5                                /lib/x86_64-linux-gnu/libc.so.6
rewinddir                                         /lib/x86_64-linux-gnu/libc.so.6
rewinddir@@GLIBC_2.2.5                            /lib/x86_64-linux-gnu/libc.so.6
rewinddir@GLIBC_2.2.5                             /lib/x86_64-linux-gnu/libc.so.6
rindex                                            /lib/x86_64-linux-gnu/libc.so.6
rindex@@GLIBC_2.2.5                               /lib/x86_64-linux-gnu/libc.so.6
rindex@GLIBC_2.2.5                                /lib/x86_64-linux-gnu/libc.so.6
rint                                              /lib/x86_64-linux-gnu/libm.so.6
rint@@GLIBC_2.2.5                                 /lib/x86_64-linux-gnu/libm.so.6
rint@GLIBC_2.2.5                                  /lib/x86_64-linux-gnu/libm.so.6
rintf                                             /lib/x86_64-linux-gnu/libm.so.6
rintf128                                          /lib/x86_64-linux-gnu/libm.so.6
rintf128@@GLIBC_2.26                              /lib/x86_64-linux-gnu/libm.so.6
rintf128@GLIBC_2.26                               /lib/x86_64-linux-gnu/libm.so.6
rintf32                                           /lib/x86_64-linux-gnu/libm.so.6
rintf32@@GLIBC_2.27                               /lib/x86_64-linux-gnu/libm.so.6
rintf32@GLIBC_2.27                                /lib/x86_64-linux-gnu/libm.so.6
rintf32x                                          /lib/x86_64-linux-gnu/libm.so.6
rintf32x@@GLIBC_2.27                              /lib/x86_64-linux-gnu/libm.so.6
rintf32x@GLIBC_2.27                               /lib/x86_64-linux-gnu/libm.so.6
rintf64                                           /lib/x86_64-linux-gnu/libm.so.6
rintf64@@GLIBC_2.27                               /lib/x86_64-linux-gnu/libm.so.6
rintf64@GLIBC_2.27                                /lib/x86_64-linux-gnu/libm.so.6
rintf64x                                          /lib/x86_64-linux-gnu/libm.so.6
rintf64x@@GLIBC_2.27                              /lib/x86_64-linux-gnu/libm.so.6
rintf64x@GLIBC_2.27                               /lib/x86_64-linux-gnu/libm.so.6
rintf@@GLIBC_2.2.5                                /lib/x86_64-linux-gnu/libm.so.6
rintf@GLIBC_2.2.5                                 /lib/x86_64-linux-gnu/libm.so.6
rintl                                             /lib/x86_64-linux-gnu/libm.so.6
rintl@@GLIBC_2.2.5                                /lib/x86_64-linux-gnu/libm.so.6
rintl@GLIBC_2.2.5                                 /lib/x86_64-linux-gnu/libm.so.6
rmdir                                             /lib/x86_64-linux-gnu/libc.so.6
rmdir@@GLIBC_2.2.5                                /lib/x86_64-linux-gnu/libc.so.6
rmdir@GLIBC_2.2.5                                 /lib/x86_64-linux-gnu/libc.so.6
round                                             /lib/x86_64-linux-gnu/libm.so.6
round@@GLIBC_2.2.5                                /lib/x86_64-linux-gnu/libm.so.6
round@GLIBC_2.2.5                                 /lib/x86_64-linux-gnu/libm.so.6
roundeven                                         /lib/x86_64-linux-gnu/libm.so.6
roundeven@@GLIBC_2.25                             /lib/x86_64-linux-gnu/libm.so.6
roundeven@GLIBC_2.25                              /lib/x86_64-linux-gnu/libm.so.6
roundevenf                                        /lib/x86_64-linux-gnu/libm.so.6
roundevenf128                                     /lib/x86_64-linux-gnu/libm.so.6
roundevenf128@@GLIBC_2.26                         /lib/x86_64-linux-gnu/libm.so.6
roundevenf128@GLIBC_2.26                          /lib/x86_64-linux-gnu/libm.so.6
roundevenf32                                      /lib/x86_64-linux-gnu/libm.so.6
roundevenf32@@GLIBC_2.27                          /lib/x86_64-linux-gnu/libm.so.6
roundevenf32@GLIBC_2.27                           /lib/x86_64-linux-gnu/libm.so.6
roundevenf32x                                     /lib/x86_64-linux-gnu/libm.so.6
roundevenf32x@@GLIBC_2.27                         /lib/x86_64-linux-gnu/libm.so.6
roundevenf32x@GLIBC_2.27                          /lib/x86_64-linux-gnu/libm.so.6
roundevenf64                                      /lib/x86_64-linux-gnu/libm.so.6
roundevenf64@@GLIBC_2.27                          /lib/x86_64-linux-gnu/libm.so.6
roundevenf64@GLIBC_2.27                           /lib/x86_64-linux-gnu/libm.so.6
roundevenf64x                                     /lib/x86_64-linux-gnu/libm.so.6
roundevenf64x@@GLIBC_2.27                         /lib/x86_64-linux-gnu/libm.so.6
roundevenf64x@GLIBC_2.27                          /lib/x86_64-linux-gnu/libm.so.6
roundevenf@@GLIBC_2.25                            /lib/x86_64-linux-gnu/libm.so.6
roundevenf@GLIBC_2.25                             /lib/x86_64-linux-gnu/libm.so.6
roundevenl                                        /lib/x86_64-linux-gnu/libm.so.6
roundevenl@@GLIBC_2.25                            /lib/x86_64-linux-gnu/libm.so.6
roundevenl@GLIBC_2.25                             /lib/x86_64-linux-gnu/libm.so.6
roundf                                            /lib/x86_64-linux-gnu/libm.so.6
roundf128                                         /lib/x86_64-linux-gnu/libm.so.6
roundf128@@GLIBC_2.26                             /lib/x86_64-linux-gnu/libm.so.6
roundf128@GLIBC_2.26                              /lib/x86_64-linux-gnu/libm.so.6
roundf32                                          /lib/x86_64-linux-gnu/libm.so.6
roundf32@@GLIBC_2.27                              /lib/x86_64-linux-gnu/libm.so.6
roundf32@GLIBC_2.27                               /lib/x86_64-linux-gnu/libm.so.6
roundf32x                                         /lib/x86_64-linux-gnu/libm.so.6
roundf32x@@GLIBC_2.27                             /lib/x86_64-linux-gnu/libm.so.6
roundf32x@GLIBC_2.27                              /lib/x86_64-linux-gnu/libm.so.6
roundf64                                          /lib/x86_64-linux-gnu/libm.so.6
roundf64@@GLIBC_2.27                              /lib/x86_64-linux-gnu/libm.so.6
roundf64@GLIBC_2.27                               /lib/x86_64-linux-gnu/libm.so.6
roundf64x                                         /lib/x86_64-linux-gnu/libm.so.6
roundf64x@@GLIBC_2.27                             /lib/x86_64-linux-gnu/libm.so.6
roundf64x@GLIBC_2.27                              /lib/x86_64-linux-gnu/libm.so.6
roundf@@GLIBC_2.2.5                               /lib/x86_64-linux-gnu/libm.so.6
roundf@GLIBC_2.2.5                                /lib/x86_64-linux-gnu/libm.so.6
roundl                                            /lib/x86_64-linux-gnu/libm.so.6
roundl@@GLIBC_2.2.5                               /lib/x86_64-linux-gnu/libm.so.6
roundl@GLIBC_2.2.5                                /lib/x86_64-linux-gnu/libm.so.6
rval_vr                                           ../../lib/libbtsystem.a(btmath.o)
                                                  ../../lib/libbtsystem.a(btcontrol.o)
s0sfspftf_pb                                      ../../lib/libbtsystem.a(btseg.o)
s_of_t_pb                                         ../../lib/libbtsystem.a(btseg.o)
s_of_t_pbl                                        ../../lib/libbtsystem.a(btseg.o)
safetyBoardID                                     ../../lib/libbtsystem.a(btsystem.o)
                                                  ../../lib/libbtwam.a(btwam.o)
sbrk                                              /lib/x86_64-linux-gnu/libc.so.6
sbrk@@GLIBC_2.2.5                                 /lib/x86_64-linux-gnu/libc.so.6
sbrk@GLIBC_2.2.5                                  /lib/x86_64-linux-gnu/libc.so.6
scalb                                             /lib/x86_64-linux-gnu/libm.so.6
scalb@@GLIBC_2.2.5                                /lib/x86_64-linux-gnu/libm.so.6
scalb@GLIBC_2.2.5                                 /lib/x86_64-linux-gnu/libm.so.6
scalbf                                            /lib/x86_64-linux-gnu/libm.so.6
scalbf@@GLIBC_2.2.5                               /lib/x86_64-linux-gnu/libm.so.6
scalbf@GLIBC_2.2.5                                /lib/x86_64-linux-gnu/libm.so.6
scalbl                                            /lib/x86_64-linux-gnu/libm.so.6
scalbl@@GLIBC_2.2.5                               /lib/x86_64-linux-gnu/libm.so.6
scalbl@GLIBC_2.2.5                                /lib/x86_64-linux-gnu/libm.so.6
scalbln                                           /lib/x86_64-linux-gnu/libm.so.6
scalbln@@GLIBC_2.2.5                              /lib/x86_64-linux-gnu/libm.so.6
scalbln@GLIBC_2.2.5                               /lib/x86_64-linux-gnu/libm.so.6
scalblnf                                          /lib/x86_64-linux-gnu/libm.so.6
scalblnf128                                       /lib/x86_64-linux-gnu/libm.so.6
scalblnf128@@GLIBC_2.26                           /lib/x86_64-linux-gnu/libm.so.6
scalblnf128@GLIBC_2.26                            /lib/x86_64-linux-gnu/libm.so.6
scalblnf32                                        /lib/x86_64-linux-gnu/libm.so.6
scalblnf32@@GLIBC_2.27                            /lib/x86_64-linux-gnu/libm.so.6
scalblnf32@GLIBC_2.27                             /lib/x86_64-linux-gnu/libm.so.6
scalblnf32x                                       /lib/x86_64-linux-gnu/libm.so.6
scalblnf32x@@GLIBC_2.27                           /lib/x86_64-linux-gnu/libm.so.6
scalblnf32x@GLIBC_2.27                            /lib/x86_64-linux-gnu/libm.so.6
scalblnf64                                        /lib/x86_64-linux-gnu/libm.so.6
scalblnf64@@GLIBC_2.27                            /lib/x86_64-linux-gnu/libm.so.6
scalblnf64@GLIBC_2.27                             /lib/x86_64-linux-gnu/libm.so.6
scalblnf64x                                       /lib/x86_64-linux-gnu/libm.so.6
scalblnf64x@@GLIBC_2.27                           /lib/x86_64-linux-gnu/libm.so.6
scalblnf64x@GLIBC_2.27                            /lib/x86_64-linux-gnu/libm.so.6
scalblnf@@GLIBC_2.2.5                             /lib/x86_64-linux-gnu/libm.so.6
scalblnf@GLIBC_2.2.5                              /lib/x86_64-linux-gnu/libm.so.6
scalblnl                                          /lib/x86_64-linux-gnu/libm.so.6
scalblnl@@GLIBC_2.2.5                             /lib/x86_64-linux-gnu/libm.so.6
scalblnl@GLIBC_2.2.5                              /lib/x86_64-linux-gnu/libm.so.6
scalbn                                            /lib/x86_64-linux-gnu/libm.so.6
scalbn@@GLIBC_2.2.5                               /lib/x86_64-linux-gnu/libm.so.6
                                                  /lib/x86_64-linux-gnu/libc.so.6
scalbn@GLIBC_2.2.5                                /lib/x86_64-linux-gnu/libm.so.6
scalbnf                                           /lib/x86_64-linux-gnu/libm.so.6
scalbnf128                                        /lib/x86_64-linux-gnu/libm.so.6
scalbnf128@@GLIBC_2.26                            /lib/x86_64-linux-gnu/libm.so.6
scalbnf128@GLIBC_2.26                             /lib/x86_64-linux-gnu/libm.so.6
scalbnf32                                         /lib/x86_64-linux-gnu/libm.so.6
scalbnf32@@GLIBC_2.27                             /lib/x86_64-linux-gnu/libm.so.6
scalbnf32@GLIBC_2.27                              /lib/x86_64-linux-gnu/libm.so.6
scalbnf32x                                        /lib/x86_64-linux-gnu/libm.so.6
scalbnf32x@@GLIBC_2.27                            /lib/x86_64-linux-gnu/libm.so.6
scalbnf32x@GLIBC_2.27                             /lib/x86_64-linux-gnu/libm.so.6
scalbnf64                                         /lib/x86_64-linux-gnu/libm.so.6
scalbnf64@@GLIBC_2.27                             /lib/x86_64-linux-gnu/libm.so.6
scalbnf64@GLIBC_2.27                              /lib/x86_64-linux-gnu/libm.so.6
scalbnf64x                                        /lib/x86_64-linux-gnu/libm.so.6
scalbnf64x@@GLIBC_2.27                            /lib/x86_64-linux-gnu/libm.so.6
scalbnf64x@GLIBC_2.27                             /lib/x86_64-linux-gnu/libm.so.6
scalbnf@@GLIBC_2.2.5                              /lib/x86_64-linux-gnu/libm.so.6
                                                  /lib/x86_64-linux-gnu/libc.so.6
scalbnf@GLIBC_2.2.5                               /lib/x86_64-linux-gnu/libm.so.6
scalbnl                                           /lib/x86_64-linux-gnu/libm.so.6
scalbnl@@GLIBC_2.2.5                              /lib/x86_64-linux-gnu/libm.so.6
                                                  /lib/x86_64-linux-gnu/libc.so.6
scalbnl@GLIBC_2.2.5                               /lib/x86_64-linux-gnu/libm.so.6
scale_mn                                          ../../lib/libbtsystem.a(btmath.o)
                                                  ../../lib/libbtsystem.a(btrobot.o)
scale_q                                           ../../lib/libbtsystem.a(btmath.o)
scale_v3                                          ../../lib/libbtsystem.a(btmath.o)
                                                  ../../lib/libbtsystem.a(btrobot.o)
                                                  ../../lib/libbtwam.a(btwam.o)
scale_vn                                          ../../lib/libbtsystem.a(btmath.o)
                                                  ../../lib/libbtwam.a(btwam.o)
scandir64                                         /lib/x86_64-linux-gnu/libc.so.6
scandir64@@GLIBC_2.2.5                            /lib/x86_64-linux-gnu/libc.so.6
scandir64@GLIBC_2.2.5                             /lib/x86_64-linux-gnu/libc.so.6
scandirat                                         /lib/x86_64-linux-gnu/libc.so.6
scandirat64                                       /lib/x86_64-linux-gnu/libc.so.6
scandirat64@@GLIBC_2.15                           /lib/x86_64-linux-gnu/libc.so.6
scandirat64@GLIBC_2.15                            /lib/x86_64-linux-gnu/libc.so.6
scandirat@@GLIBC_2.15                             /lib/x86_64-linux-gnu/libc.so.6
scandirat@GLIBC_2.15                              /lib/x86_64-linux-gnu/libc.so.6
sched_get_priority_max                            /lib/x86_64-linux-gnu/libc.so.6
sched_get_priority_max@@GLIBC_2.2.5               /lib/x86_64-linux-gnu/libc.so.6
sched_get_priority_max@GLIBC_2.2.5                /lib/x86_64-linux-gnu/libc.so.6
                                                  /usr/lib/libcobalt.so
sched_get_priority_min                            /lib/x86_64-linux-gnu/libc.so.6
sched_get_priority_min@@GLIBC_2.2.5               /lib/x86_64-linux-gnu/libc.so.6
sched_get_priority_min@GLIBC_2.2.5                /lib/x86_64-linux-gnu/libc.so.6
                                                  /usr/lib/libcobalt.so
sched_getparam                                    /lib/x86_64-linux-gnu/libc.so.6
sched_getparam@@GLIBC_2.2.5                       /lib/x86_64-linux-gnu/libc.so.6
sched_getparam@GLIBC_2.2.5                        /lib/x86_64-linux-gnu/libc.so.6
sched_getscheduler                                /lib/x86_64-linux-gnu/libc.so.6
sched_getscheduler@@GLIBC_2.2.5                   /lib/x86_64-linux-gnu/libc.so.6
sched_getscheduler@GLIBC_2.2.5                    /lib/x86_64-linux-gnu/libc.so.6
                                                  /usr/lib/libcobalt.so
sched_rr_get_interval                             /lib/x86_64-linux-gnu/libc.so.6
sched_rr_get_interval@@GLIBC_2.2.5                /lib/x86_64-linux-gnu/libc.so.6
sched_rr_get_interval@GLIBC_2.2.5                 /lib/x86_64-linux-gnu/libc.so.6
sched_setparam                                    /lib/x86_64-linux-gnu/libc.so.6
sched_setparam@@GLIBC_2.2.5                       /lib/x86_64-linux-gnu/libc.so.6
sched_setparam@GLIBC_2.2.5                        /lib/x86_64-linux-gnu/libc.so.6
                                                  /lib/x86_64-linux-gnu/libpthread.so.0
sched_setscheduler                                /lib/x86_64-linux-gnu/libc.so.6
sched_setscheduler@@GLIBC_2.2.5                   /lib/x86_64-linux-gnu/libc.so.6
sched_setscheduler@GLIBC_2.2.5                    /lib/x86_64-linux-gnu/libc.so.6
                                                  /usr/lib/libcobalt.so
sched_yield                                       /lib/x86_64-linux-gnu/libc.so.6
sched_yield@@GLIBC_2.2.5                          /lib/x86_64-linux-gnu/libc.so.6
sched_yield@GLIBC_2.2.5                           /lib/x86_64-linux-gnu/libc.so.6
                                                  /lib/x86_64-linux-gnu/libpthread.so.0
                                                  /usr/lib/libcobalt.so
secure_getenv                                     /lib/x86_64-linux-gnu/libc.so.6
secure_getenv@@GLIBC_2.17                         /lib/x86_64-linux-gnu/libc.so.6
secure_getenv@GLIBC_2.17                          /lib/x86_64-linux-gnu/libc.so.6
seed48_r                                          /lib/x86_64-linux-gnu/libc.so.6
seed48_r@@GLIBC_2.2.5                             /lib/x86_64-linux-gnu/libc.so.6
seed48_r@GLIBC_2.2.5                              /lib/x86_64-linux-gnu/libc.so.6
select                                            /lib/x86_64-linux-gnu/libc.so.6
select@@GLIBC_2.2.5                               /lib/x86_64-linux-gnu/libc.so.6
select@GLIBC_2.2.5                                /lib/x86_64-linux-gnu/libc.so.6
                                                  /usr/lib/libcobalt.so
send                                              /lib/x86_64-linux-gnu/libpthread.so.0
send@@GLIBC_2.2.5                                 /lib/x86_64-linux-gnu/libpthread.so.0
                                                  /lib/x86_64-linux-gnu/libc.so.6
send@GLIBC_2.2.5                                  /lib/x86_64-linux-gnu/libpthread.so.0
                                                  /usr/lib/libcobalt.so
sendfile64                                        /lib/x86_64-linux-gnu/libc.so.6
sendfile64@@GLIBC_2.3                             /lib/x86_64-linux-gnu/libc.so.6
sendfile64@GLIBC_2.3                              /lib/x86_64-linux-gnu/libc.so.6
sendmmsg                                          /lib/x86_64-linux-gnu/libc.so.6
sendmmsg@@GLIBC_2.14                              /lib/x86_64-linux-gnu/libc.so.6
sendmmsg@GLIBC_2.14                               /lib/x86_64-linux-gnu/libc.so.6
sendmsg                                           /lib/x86_64-linux-gnu/libpthread.so.0
sendmsg@@GLIBC_2.2.5                              /lib/x86_64-linux-gnu/libpthread.so.0
                                                  /lib/x86_64-linux-gnu/libc.so.6
sendmsg@GLIBC_2.2.5                               /lib/x86_64-linux-gnu/libpthread.so.0
                                                  /usr/lib/libcobalt.so
sendto                                            /lib/x86_64-linux-gnu/libpthread.so.0
sendto@@GLIBC_2.2.5                               /lib/x86_64-linux-gnu/libpthread.so.0
                                                  /lib/x86_64-linux-gnu/libc.so.6
sendto@GLIBC_2.2.5                                /lib/x86_64-linux-gnu/libpthread.so.0
                                                  /usr/lib/libcobalt.so
setProperty                                       ../../lib/libbtsystem.a(btcan_peakesd.o)
                                                  ../../lib/libbtsystem.a(btsystem.o)
                                                  ../../lib/libbtwam.a(gimbals.o)
                                                  ../../lib/libbtwam.a(btwam.o)
                                                  main.o
setSafetyLimits                                   ../../lib/libbtwam.a(btwam.o)
                                                  main.o
setTorques                                        ../../lib/libbtsystem.a(btcan_peakesd.o)
                                                  ../../lib/libbtsystem.a(btsystem.o)
set_acc_vta                                       ../../lib/libbtsystem.a(btcontrol.o)
set_btramp                                        ../../lib/libbtsystem.a(btstatecontrol.o)
set_current_idx_vta                               ../../lib/libbtsystem.a(btcontrol.o)
set_gravity_bot                                   ../../lib/libbtsystem.a(btrobot.o)
                                                  ../../lib/libbtwam.a(btwam.o)
set_gravity_bot_calibrated                        ../../lib/libbtsystem.a(btrobot.o)
                                                  ../../lib/libbtwam.a(btwam.o)
set_m3                                            ../../lib/libbtsystem.a(btmath.o)
set_mh                                            ../../lib/libbtsystem.a(btmath.o)
                                                  ../../lib/libbtsystem.a(btrobot.o)
set_mn                                            ../../lib/libbtsystem.a(btmath.o)
set_q                                             ../../lib/libbtsystem.a(btmath.o)
set_q_bot                                         ../../lib/libbtsystem.a(btrobot.o)
set_v3                                            ../../lib/libbtsystem.a(btmath.o)
                                                  ../../lib/libbtsystem.a(btrobot.o)
                                                  ../../lib/libbtwam.a(btwam.o)
set_vel_vta                                       ../../lib/libbtsystem.a(btcontrol.o)
set_vn                                            ../../lib/libbtsystem.a(btmath.o)
                                                  ../../lib/libbtsystem.a(btpath.o)
                                                  ../../lib/libbtsystem.a(btseg.o)
                                                  ../../lib/libbtsystem.a(btstatecontrol.o)
                                                  ../../lib/libbtsystem.a(btcontrol.o)
                                                  ../../lib/libbtsystem.a(btrobot.o)
                                                  ../../lib/libbtwam.a(btwam.o)
setbuffer                                         /lib/x86_64-linux-gnu/libc.so.6
setbuffer@@GLIBC_2.2.5                            /lib/x86_64-linux-gnu/libc.so.6
setbuffer@GLIBC_2.2.5                             /lib/x86_64-linux-gnu/libc.so.6
setcol_mn                                         ../../lib/libbtsystem.a(btmath.o)
                                                  ../../lib/libbtsystem.a(btrobot.o)
setcontext                                        /lib/x86_64-linux-gnu/libc.so.6
setcontext@@GLIBC_2.2.5                           /lib/x86_64-linux-gnu/libc.so.6
setcontext@GLIBC_2.2.5                            /lib/x86_64-linux-gnu/libc.so.6
setdt_btPID                                       ../../lib/libbtsystem.a(btcontrol.o)
setenv                                            /lib/x86_64-linux-gnu/libc.so.6
setenv@@GLIBC_2.2.5                               /lib/x86_64-linux-gnu/libc.so.6
setenv@GLIBC_2.2.5                                /lib/x86_64-linux-gnu/libc.so.6
setgains_btPID                                    ../../lib/libbtsystem.a(btcontrol.o)
setgid                                            /lib/x86_64-linux-gnu/libc.so.6
setgid@@GLIBC_2.2.5                               /lib/x86_64-linux-gnu/libc.so.6
setgid@GLIBC_2.2.5                                /lib/x86_64-linux-gnu/libc.so.6
setinputs_btPID                                   ../../lib/libbtsystem.a(btcontrol.o)
setitimer                                         /lib/x86_64-linux-gnu/libc.so.6
setitimer@@GLIBC_2.2.5                            /lib/x86_64-linux-gnu/libc.so.6
setitimer@GLIBC_2.2.5                             /lib/x86_64-linux-gnu/libc.so.6
setmntent                                         /lib/x86_64-linux-gnu/libc.so.6
setmntent@@GLIBC_2.2.5                            /lib/x86_64-linux-gnu/libc.so.6
setmntent@GLIBC_2.2.5                             /lib/x86_64-linux-gnu/libc.so.6
setmode_bts                                       ../../lib/libbtsystem.a(btstatecontrol.o)
                                                  ../../lib/libbtwam.a(btwam.o)
setmul_m3                                         ../../lib/libbtsystem.a(btmath.o)
setmul_mh                                         ../../lib/libbtsystem.a(btmath.o)
setpayload                                        /lib/x86_64-linux-gnu/libm.so.6
setpayload@@GLIBC_2.25                            /lib/x86_64-linux-gnu/libm.so.6
setpayload@GLIBC_2.25                             /lib/x86_64-linux-gnu/libm.so.6
setpayloadf                                       /lib/x86_64-linux-gnu/libm.so.6
setpayloadf128                                    /lib/x86_64-linux-gnu/libm.so.6
setpayloadf128@@GLIBC_2.26                        /lib/x86_64-linux-gnu/libm.so.6
setpayloadf128@GLIBC_2.26                         /lib/x86_64-linux-gnu/libm.so.6
setpayloadf32                                     /lib/x86_64-linux-gnu/libm.so.6
setpayloadf32@@GLIBC_2.27                         /lib/x86_64-linux-gnu/libm.so.6
setpayloadf32@GLIBC_2.27                          /lib/x86_64-linux-gnu/libm.so.6
setpayloadf32x                                    /lib/x86_64-linux-gnu/libm.so.6
setpayloadf32x@@GLIBC_2.27                        /lib/x86_64-linux-gnu/libm.so.6
setpayloadf32x@GLIBC_2.27                         /lib/x86_64-linux-gnu/libm.so.6
setpayloadf64                                     /lib/x86_64-linux-gnu/libm.so.6
setpayloadf64@@GLIBC_2.27                         /lib/x86_64-linux-gnu/libm.so.6
setpayloadf64@GLIBC_2.27                          /lib/x86_64-linux-gnu/libm.so.6
setpayloadf64x                                    /lib/x86_64-linux-gnu/libm.so.6
setpayloadf64x@@GLIBC_2.27                        /lib/x86_64-linux-gnu/libm.so.6
setpayloadf64x@GLIBC_2.27                         /lib/x86_64-linux-gnu/libm.so.6
setpayloadf@@GLIBC_2.25                           /lib/x86_64-linux-gnu/libm.so.6
setpayloadf@GLIBC_2.25                            /lib/x86_64-linux-gnu/libm.so.6
setpayloadl                                       /lib/x86_64-linux-gnu/libm.so.6
setpayloadl@@GLIBC_2.25                           /lib/x86_64-linux-gnu/libm.so.6
setpayloadl@GLIBC_2.25                            /lib/x86_64-linux-gnu/libm.so.6
setpayloadsig                                     /lib/x86_64-linux-gnu/libm.so.6
setpayloadsig@@GLIBC_2.25                         /lib/x86_64-linux-gnu/libm.so.6
setpayloadsig@GLIBC_2.25                          /lib/x86_64-linux-gnu/libm.so.6
setpayloadsigf                                    /lib/x86_64-linux-gnu/libm.so.6
setpayloadsigf128                                 /lib/x86_64-linux-gnu/libm.so.6
setpayloadsigf128@@GLIBC_2.26                     /lib/x86_64-linux-gnu/libm.so.6
setpayloadsigf128@GLIBC_2.26                      /lib/x86_64-linux-gnu/libm.so.6
setpayloadsigf32                                  /lib/x86_64-linux-gnu/libm.so.6
setpayloadsigf32@@GLIBC_2.27                      /lib/x86_64-linux-gnu/libm.so.6
setpayloadsigf32@GLIBC_2.27                       /lib/x86_64-linux-gnu/libm.so.6
setpayloadsigf32x                                 /lib/x86_64-linux-gnu/libm.so.6
setpayloadsigf32x@@GLIBC_2.27                     /lib/x86_64-linux-gnu/libm.so.6
setpayloadsigf32x@GLIBC_2.27                      /lib/x86_64-linux-gnu/libm.so.6
setpayloadsigf64                                  /lib/x86_64-linux-gnu/libm.so.6
setpayloadsigf64@@GLIBC_2.27                      /lib/x86_64-linux-gnu/libm.so.6
setpayloadsigf64@GLIBC_2.27                       /lib/x86_64-linux-gnu/libm.so.6
setpayloadsigf64x                                 /lib/x86_64-linux-gnu/libm.so.6
setpayloadsigf64x@@GLIBC_2.27                     /lib/x86_64-linux-gnu/libm.so.6
setpayloadsigf64x@GLIBC_2.27                      /lib/x86_64-linux-gnu/libm.so.6
setpayloadsigf@@GLIBC_2.25                        /lib/x86_64-linux-gnu/libm.so.6
setpayloadsigf@GLIBC_2.25                         /lib/x86_64-linux-gnu/libm.so.6
setpayloadsigl                                    /lib/x86_64-linux-gnu/libm.so.6
setpayloadsigl@@GLIBC_2.25                        /lib/x86_64-linux-gnu/libm.so.6
setpayloadsigl@GLIBC_2.25                         /lib/x86_64-linux-gnu/libm.so.6
setpgid                                           /lib/x86_64-linux-gnu/libc.so.6
setpgid@@GLIBC_2.2.5                              /lib/x86_64-linux-gnu/libc.so.6
setpgid@GLIBC_2.2.5                               /lib/x86_64-linux-gnu/libc.so.6
setpriority                                       /lib/x86_64-linux-gnu/libc.so.6
setpriority@@GLIBC_2.2.5                          /lib/x86_64-linux-gnu/libc.so.6
setpriority@GLIBC_2.2.5                           /lib/x86_64-linux-gnu/libc.so.6
setprofile_traptrj                                ../../lib/libbtsystem.a(btstatecontrol.o)
setrange_vn                                       ../../lib/libbtsystem.a(btmath.o)
                                                  ../../lib/libbtsystem.a(btpath.o)
                                                  ../../lib/libbtsystem.a(btcontrol.o)
                                                  ../../lib/libbtsystem.a(btrobot.o)
                                                  main.o
setrate_btramp                                    ../../lib/libbtsystem.a(btstatecontrol.o)
setregid                                          /lib/x86_64-linux-gnu/libc.so.6
setregid@@GLIBC_2.2.5                             /lib/x86_64-linux-gnu/libc.so.6
setregid@GLIBC_2.2.5                              /lib/x86_64-linux-gnu/libc.so.6
setresgid                                         /lib/x86_64-linux-gnu/libc.so.6
setresgid@@GLIBC_2.2.5                            /lib/x86_64-linux-gnu/libc.so.6
setresgid@GLIBC_2.2.5                             /lib/x86_64-linux-gnu/libc.so.6
setresuid                                         /lib/x86_64-linux-gnu/libc.so.6
setresuid@@GLIBC_2.2.5                            /lib/x86_64-linux-gnu/libc.so.6
setresuid@GLIBC_2.2.5                             /lib/x86_64-linux-gnu/libc.so.6
setreuid                                          /lib/x86_64-linux-gnu/libc.so.6
setreuid@@GLIBC_2.2.5                             /lib/x86_64-linux-gnu/libc.so.6
setreuid@GLIBC_2.2.5                              /lib/x86_64-linux-gnu/libc.so.6
setrlimit                                         /lib/x86_64-linux-gnu/libc.so.6
setrlimit64                                       /lib/x86_64-linux-gnu/libc.so.6
setrlimit64@@GLIBC_2.2.5                          /lib/x86_64-linux-gnu/libc.so.6
setrlimit64@GLIBC_2.2.5                           /lib/x86_64-linux-gnu/libc.so.6
setrlimit@@GLIBC_2.2.5                            /lib/x86_64-linux-gnu/libc.so.6
setrlimit@GLIBC_2.2.5                             /lib/x86_64-linux-gnu/libc.so.6
setrow_m3                                         ../../lib/libbtsystem.a(btmath.o)
setrow_mh                                         ../../lib/libbtsystem.a(btmath.o)
                                                  ../../lib/libbtsystem.a(btrobot.o)
setrow_mn                                         ../../lib/libbtsystem.a(btmath.o)
setsaturation_btPID                               ../../lib/libbtsystem.a(btcontrol.o)
setsid                                            /lib/x86_64-linux-gnu/libc.so.6
setsid@@GLIBC_2.2.5                               /lib/x86_64-linux-gnu/libc.so.6
setsid@GLIBC_2.2.5                                /lib/x86_64-linux-gnu/libc.so.6
setsockopt                                        /lib/x86_64-linux-gnu/libc.so.6
setsockopt@@GLIBC_2.2.5                           /lib/x86_64-linux-gnu/libc.so.6
setsockopt@GLIBC_2.2.5                            /lib/x86_64-linux-gnu/libc.so.6
                                                  /usr/lib/libcobalt.so
setstate                                          /lib/x86_64-linux-gnu/libc.so.6
setstate@@GLIBC_2.2.5                             /lib/x86_64-linux-gnu/libc.so.6
setstate@GLIBC_2.2.5                              /lib/x86_64-linux-gnu/libc.so.6
setstate_r                                        /lib/x86_64-linux-gnu/libc.so.6
setstate_r@@GLIBC_2.2.5                           /lib/x86_64-linux-gnu/libc.so.6
setstate_r@GLIBC_2.2.5                            /lib/x86_64-linux-gnu/libc.so.6
settimeofday                                      /lib/x86_64-linux-gnu/libc.so.6
settimeofday@@GLIBC_2.2.5                         /lib/x86_64-linux-gnu/libc.so.6
settimeofday@GLIBC_2.2.5                          /lib/x86_64-linux-gnu/libc.so.6
setttyent                                         /lib/x86_64-linux-gnu/libc.so.6
setttyent@@GLIBC_2.2.5                            /lib/x86_64-linux-gnu/libc.so.6
setttyent@GLIBC_2.2.5                             /lib/x86_64-linux-gnu/libc.so.6
setuid                                            /lib/x86_64-linux-gnu/libc.so.6
setuid@@GLIBC_2.2.5                               /lib/x86_64-linux-gnu/libc.so.6
setuid@GLIBC_2.2.5                                /lib/x86_64-linux-gnu/libc.so.6
setutent                                          /lib/x86_64-linux-gnu/libc.so.6
setutent@@GLIBC_2.2.5                             /lib/x86_64-linux-gnu/libc.so.6
setutent@GLIBC_2.2.5                              /lib/x86_64-linux-gnu/libc.so.6
setval_mn                                         ../../lib/libbtsystem.a(btmath.o)
setval_q                                          ../../lib/libbtsystem.a(btmath.o)
setval_v3                                         ../../lib/libbtsystem.a(btmath.o)
setval_vn                                         ../../lib/libbtsystem.a(btmath.o)
                                                  ../../lib/libbtsystem.a(btpath.o)
                                                  ../../lib/libbtsystem.a(btseg.o)
                                                  ../../lib/libbtsystem.a(btcontrol.o)
                                                  ../../lib/libbtsystem.a(btrobot.o)
                                                  ../../lib/libbtwam.a(btwam.o)
setvbuf                                           /lib/x86_64-linux-gnu/libc.so.6
                                                  main.o
setvbuf@@GLIBC_2.2.5                              /lib/x86_64-linux-gnu/libc.so.6
setvbuf@GLIBC_2.2.5                               /lib/x86_64-linux-gnu/libc.so.6
sety_btPID                                        ../../lib/libbtsystem.a(btcontrol.o)
setyref_btPID                                     ../../lib/libbtsystem.a(btcontrol.o)
sgetsgent_r                                       /lib/x86_64-linux-gnu/libc.so.6
sgetsgent_r@@GLIBC_2.10                           /lib/x86_64-linux-gnu/libc.so.6
sgetsgent_r@GLIBC_2.10                            /lib/x86_64-linux-gnu/libc.so.6
sgetspent_r                                       /lib/x86_64-linux-gnu/libc.so.6
sgetspent_r@@GLIBC_2.2.5                          /lib/x86_64-linux-gnu/libc.so.6
sgetspent_r@GLIBC_2.2.5                           /lib/x86_64-linux-gnu/libc.so.6
shutdown                                          /lib/x86_64-linux-gnu/libc.so.6
shutdown@@GLIBC_2.2.5                             /lib/x86_64-linux-gnu/libc.so.6
shutdown@GLIBC_2.2.5                              /lib/x86_64-linux-gnu/libc.so.6
                                                  /usr/lib/libcobalt.so
sigaction                                         /lib/x86_64-linux-gnu/libpthread.so.0
sigaction@@GLIBC_2.2.5                            /lib/x86_64-linux-gnu/libpthread.so.0
                                                  /lib/x86_64-linux-gnu/libc.so.6
sigaction@GLIBC_2.2.5                             /lib/x86_64-linux-gnu/libpthread.so.0
                                                  /usr/lib/libcobalt.so
sigaltstack                                       /lib/x86_64-linux-gnu/libc.so.6
sigaltstack@@GLIBC_2.2.5                          /lib/x86_64-linux-gnu/libc.so.6
sigaltstack@GLIBC_2.2.5                           /lib/x86_64-linux-gnu/libc.so.6
sigblock                                          /lib/x86_64-linux-gnu/libc.so.6
sigblock@@GLIBC_2.2.5                             /lib/x86_64-linux-gnu/libc.so.6
sigblock@GLIBC_2.2.5                              /lib/x86_64-linux-gnu/libc.so.6
siglongjmp                                        /lib/x86_64-linux-gnu/libc.so.6
siglongjmp@@GLIBC_2.2.5                           /lib/x86_64-linux-gnu/libc.so.6
signal                                            /lib/x86_64-linux-gnu/libc.so.6
                                                  ../../lib/libbtwam.a(btwam.o)
signal@@GLIBC_2.2.5                               /lib/x86_64-linux-gnu/libc.so.6
signal@GLIBC_2.2.5                                /lib/x86_64-linux-gnu/libc.so.6
                                                  /usr/lib/libcobalt.so
signgam                                           /lib/x86_64-linux-gnu/libm.so.6
signgam@@GLIBC_2.2.5                              /lib/x86_64-linux-gnu/libm.so.6
signgam@GLIBC_2.2.5                               /lib/x86_64-linux-gnu/libm.so.6
significand                                       /lib/x86_64-linux-gnu/libm.so.6
significand@@GLIBC_2.2.5                          /lib/x86_64-linux-gnu/libm.so.6
significand@GLIBC_2.2.5                           /lib/x86_64-linux-gnu/libm.so.6
significandf                                      /lib/x86_64-linux-gnu/libm.so.6
significandf@@GLIBC_2.2.5                         /lib/x86_64-linux-gnu/libm.so.6
significandf@GLIBC_2.2.5                          /lib/x86_64-linux-gnu/libm.so.6
significandl                                      /lib/x86_64-linux-gnu/libm.so.6
significandl@@GLIBC_2.2.5                         /lib/x86_64-linux-gnu/libm.so.6
significandl@GLIBC_2.2.5                          /lib/x86_64-linux-gnu/libm.so.6
sigpause                                          /lib/x86_64-linux-gnu/libc.so.6
sigpause@@GLIBC_2.2.5                             /lib/x86_64-linux-gnu/libc.so.6
sigpause@GLIBC_2.2.5                              /lib/x86_64-linux-gnu/libc.so.6
sigprocmask                                       /lib/x86_64-linux-gnu/libc.so.6
sigprocmask@@GLIBC_2.2.5                          /lib/x86_64-linux-gnu/libc.so.6
sigprocmask@GLIBC_2.2.5                           /lib/x86_64-linux-gnu/libc.so.6
sigqueue                                          /lib/x86_64-linux-gnu/libc.so.6
sigqueue@@GLIBC_2.2.5                             /lib/x86_64-linux-gnu/libc.so.6
sigqueue@GLIBC_2.2.5                              /lib/x86_64-linux-gnu/libc.so.6
sigreturn                                         /lib/x86_64-linux-gnu/libc.so.6
sigreturn@@GLIBC_2.2.5                            /lib/x86_64-linux-gnu/libc.so.6
sigreturn@GLIBC_2.2.5                             /lib/x86_64-linux-gnu/libc.so.6
sigsetmask                                        /lib/x86_64-linux-gnu/libc.so.6
sigsetmask@@GLIBC_2.2.5                           /lib/x86_64-linux-gnu/libc.so.6
sigsetmask@GLIBC_2.2.5                            /lib/x86_64-linux-gnu/libc.so.6
sigsuspend                                        /lib/x86_64-linux-gnu/libc.so.6
sigsuspend@@GLIBC_2.2.5                           /lib/x86_64-linux-gnu/libc.so.6
sigsuspend@GLIBC_2.2.5                            /lib/x86_64-linux-gnu/libc.so.6
sigtimedwait                                      /lib/x86_64-linux-gnu/libc.so.6
sigtimedwait@@GLIBC_2.2.5                         /lib/x86_64-linux-gnu/libc.so.6
sigtimedwait@GLIBC_2.2.5                          /lib/x86_64-linux-gnu/libc.so.6
                                                  /usr/lib/libcobalt.so
sigwait                                           /lib/x86_64-linux-gnu/libpthread.so.0
sigwait@@GLIBC_2.2.5                              /lib/x86_64-linux-gnu/libpthread.so.0
                                                  /lib/x86_64-linux-gnu/libc.so.6
sigwait@GLIBC_2.2.5                               /lib/x86_64-linux-gnu/libpthread.so.0
                                                  /usr/lib/libcobalt.so
sigwaitinfo                                       /lib/x86_64-linux-gnu/libc.so.6
sigwaitinfo@@GLIBC_2.2.5                          /lib/x86_64-linux-gnu/libc.so.6
sigwaitinfo@GLIBC_2.2.5                           /lib/x86_64-linux-gnu/libc.so.6
                                                  /usr/lib/libcobalt.so
sim_vta                                           ../../lib/libbtsystem.a(btcontrol.o)
sin                                               /lib/x86_64-linux-gnu/libm.so.6
                                                  ../../lib/libbtsystem.a(btmath.o)
                                                  ../../lib/libbtsystem.a(btrobot.o)
sin@@GLIBC_2.2.5                                  /lib/x86_64-linux-gnu/libm.so.6
sin@GLIBC_2.2.5                                   /lib/x86_64-linux-gnu/libm.so.6
sincos                                            /lib/x86_64-linux-gnu/libm.so.6
sincos@@GLIBC_2.2.5                               /lib/x86_64-linux-gnu/libm.so.6
sincos@GLIBC_2.2.5                                /lib/x86_64-linux-gnu/libm.so.6
sincosf                                           /lib/x86_64-linux-gnu/libm.so.6
sincosf128                                        /lib/x86_64-linux-gnu/libm.so.6
sincosf128@@GLIBC_2.26                            /lib/x86_64-linux-gnu/libm.so.6
sincosf128@GLIBC_2.26                             /lib/x86_64-linux-gnu/libm.so.6
sincosf32                                         /lib/x86_64-linux-gnu/libm.so.6
sincosf32@@GLIBC_2.27                             /lib/x86_64-linux-gnu/libm.so.6
sincosf32@GLIBC_2.27                              /lib/x86_64-linux-gnu/libm.so.6
sincosf32x                                        /lib/x86_64-linux-gnu/libm.so.6
sincosf32x@@GLIBC_2.27                            /lib/x86_64-linux-gnu/libm.so.6
sincosf32x@GLIBC_2.27                             /lib/x86_64-linux-gnu/libm.so.6
sincosf64                                         /lib/x86_64-linux-gnu/libm.so.6
sincosf64@@GLIBC_2.27                             /lib/x86_64-linux-gnu/libm.so.6
sincosf64@GLIBC_2.27                              /lib/x86_64-linux-gnu/libm.so.6
sincosf64x                                        /lib/x86_64-linux-gnu/libm.so.6
sincosf64x@@GLIBC_2.27                            /lib/x86_64-linux-gnu/libm.so.6
sincosf64x@GLIBC_2.27                             /lib/x86_64-linux-gnu/libm.so.6
sincosf@@GLIBC_2.2.5                              /lib/x86_64-linux-gnu/libm.so.6
sincosf@GLIBC_2.2.5                               /lib/x86_64-linux-gnu/libm.so.6
sincosl                                           /lib/x86_64-linux-gnu/libm.so.6
sincosl@@GLIBC_2.2.5                              /lib/x86_64-linux-gnu/libm.so.6
sincosl@GLIBC_2.2.5                               /lib/x86_64-linux-gnu/libm.so.6
sinf                                              /lib/x86_64-linux-gnu/libm.so.6
sinf128                                           /lib/x86_64-linux-gnu/libm.so.6
sinf128@@GLIBC_2.26                               /lib/x86_64-linux-gnu/libm.so.6
sinf128@GLIBC_2.26                                /lib/x86_64-linux-gnu/libm.so.6
sinf32                                            /lib/x86_64-linux-gnu/libm.so.6
sinf32@@GLIBC_2.27                                /lib/x86_64-linux-gnu/libm.so.6
sinf32@GLIBC_2.27                                 /lib/x86_64-linux-gnu/libm.so.6
sinf32x                                           /lib/x86_64-linux-gnu/libm.so.6
sinf32x@@GLIBC_2.27                               /lib/x86_64-linux-gnu/libm.so.6
sinf32x@GLIBC_2.27                                /lib/x86_64-linux-gnu/libm.so.6
sinf64                                            /lib/x86_64-linux-gnu/libm.so.6
sinf64@@GLIBC_2.27                                /lib/x86_64-linux-gnu/libm.so.6
sinf64@GLIBC_2.27                                 /lib/x86_64-linux-gnu/libm.so.6
sinf64x                                           /lib/x86_64-linux-gnu/libm.so.6
sinf64x@@GLIBC_2.27                               /lib/x86_64-linux-gnu/libm.so.6
sinf64x@GLIBC_2.27                                /lib/x86_64-linux-gnu/libm.so.6
sinf@@GLIBC_2.2.5                                 /lib/x86_64-linux-gnu/libm.so.6
sinf@GLIBC_2.2.5                                  /lib/x86_64-linux-gnu/libm.so.6
sinh                                              /lib/x86_64-linux-gnu/libm.so.6
sinh@@GLIBC_2.2.5                                 /lib/x86_64-linux-gnu/libm.so.6
sinh@GLIBC_2.2.5                                  /lib/x86_64-linux-gnu/libm.so.6
sinhf                                             /lib/x86_64-linux-gnu/libm.so.6
sinhf128                                          /lib/x86_64-linux-gnu/libm.so.6
sinhf128@@GLIBC_2.26                              /lib/x86_64-linux-gnu/libm.so.6
sinhf128@GLIBC_2.26                               /lib/x86_64-linux-gnu/libm.so.6
sinhf32                                           /lib/x86_64-linux-gnu/libm.so.6
sinhf32@@GLIBC_2.27                               /lib/x86_64-linux-gnu/libm.so.6
sinhf32@GLIBC_2.27                                /lib/x86_64-linux-gnu/libm.so.6
sinhf32x                                          /lib/x86_64-linux-gnu/libm.so.6
sinhf32x@@GLIBC_2.27                              /lib/x86_64-linux-gnu/libm.so.6
sinhf32x@GLIBC_2.27                               /lib/x86_64-linux-gnu/libm.so.6
sinhf64                                           /lib/x86_64-linux-gnu/libm.so.6
sinhf64@@GLIBC_2.27                               /lib/x86_64-linux-gnu/libm.so.6
sinhf64@GLIBC_2.27                                /lib/x86_64-linux-gnu/libm.so.6
sinhf64x                                          /lib/x86_64-linux-gnu/libm.so.6
sinhf64x@@GLIBC_2.27                              /lib/x86_64-linux-gnu/libm.so.6
sinhf64x@GLIBC_2.27                               /lib/x86_64-linux-gnu/libm.so.6
sinhf@@GLIBC_2.2.5                                /lib/x86_64-linux-gnu/libm.so.6
sinhf@GLIBC_2.2.5                                 /lib/x86_64-linux-gnu/libm.so.6
sinhl                                             /lib/x86_64-linux-gnu/libm.so.6
sinhl@@GLIBC_2.2.5                                /lib/x86_64-linux-gnu/libm.so.6
sinhl@GLIBC_2.2.5                                 /lib/x86_64-linux-gnu/libm.so.6
sinl                                              /lib/x86_64-linux-gnu/libm.so.6
sinl@@GLIBC_2.2.5                                 /lib/x86_64-linux-gnu/libm.so.6
sinl@GLIBC_2.2.5                                  /lib/x86_64-linux-gnu/libm.so.6
sizeof_vn                                         ../../lib/libbtsystem.a(btmath.o)
sleep                                             /lib/x86_64-linux-gnu/libc.so.6
sleep@@GLIBC_2.2.5                                /lib/x86_64-linux-gnu/libc.so.6
sleep@GLIBC_2.2.5                                 /lib/x86_64-linux-gnu/libc.so.6
                                                  /usr/lib/libcobalt.so
snprintf                                          /lib/x86_64-linux-gnu/libc.so.6
snprintf@@GLIBC_2.2.5                             /lib/x86_64-linux-gnu/libc.so.6
snprintf@GLIBC_2.2.5                              /lib/x86_64-linux-gnu/libc.so.6
                                                  /usr/lib/libcopperplate.so
socket                                            /lib/x86_64-linux-gnu/libc.so.6
socket@@GLIBC_2.2.5                               /lib/x86_64-linux-gnu/libc.so.6
socket@GLIBC_2.2.5                                /lib/x86_64-linux-gnu/libc.so.6
                                                  /usr/lib/libcobalt.so
socketpair                                        /lib/x86_64-linux-gnu/libc.so.6
socketpair@@GLIBC_2.2.5                           /lib/x86_64-linux-gnu/libc.so.6
socketpair@GLIBC_2.2.5                            /lib/x86_64-linux-gnu/libc.so.6
sp_of_t_pb                                        ../../lib/libbtsystem.a(btseg.o)
sp_of_t_pbl                                       ../../lib/libbtsystem.a(btseg.o)
sprint_csv_vn                                     ../../lib/libbtsystem.a(btmath.o)
                                                  ../../lib/libbtsystem.a(btcontrol.o)
sprint_mh                                         ../../lib/libbtsystem.a(btmath.o)
sprint_mn                                         ../../lib/libbtsystem.a(btmath.o)
sprint_plt_vn                                     ../../lib/libbtsystem.a(btmath.o)
sprint_v3                                         ../../lib/libbtsystem.a(btmath.o)
sprint_vn                                         ../../lib/libbtsystem.a(btmath.o)
                                                  ../../lib/libbtsystem.a(btrobot.o)
                                                  ../../lib/libbtwam.a(btwam.o)
                                                  main.o
sprofil                                           /lib/x86_64-linux-gnu/libc.so.6
sprofil@@GLIBC_2.2.5                              /lib/x86_64-linux-gnu/libc.so.6
sprofil@GLIBC_2.2.5                               /lib/x86_64-linux-gnu/libc.so.6
sqrt                                              /lib/x86_64-linux-gnu/libm.so.6
                                                  ../../lib/libbtsystem.a(btseg.o)
                                                  ../../lib/libbtsystem.a(btstatecontrol.o)
                                                  ../../lib/libbtsystem.a(btcontrol.o)
                                                  ../../lib/libbtsystem.a(btmath.o)
sqrt@@GLIBC_2.2.5                                 /lib/x86_64-linux-gnu/libm.so.6
sqrt@GLIBC_2.2.5                                  /lib/x86_64-linux-gnu/libm.so.6
sqrtf                                             /lib/x86_64-linux-gnu/libm.so.6
sqrtf128                                          /lib/x86_64-linux-gnu/libm.so.6
sqrtf128@@GLIBC_2.26                              /lib/x86_64-linux-gnu/libm.so.6
sqrtf128@GLIBC_2.26                               /lib/x86_64-linux-gnu/libm.so.6
sqrtf32                                           /lib/x86_64-linux-gnu/libm.so.6
sqrtf32@@GLIBC_2.27                               /lib/x86_64-linux-gnu/libm.so.6
sqrtf32@GLIBC_2.27                                /lib/x86_64-linux-gnu/libm.so.6
sqrtf32x                                          /lib/x86_64-linux-gnu/libm.so.6
sqrtf32x@@GLIBC_2.27                              /lib/x86_64-linux-gnu/libm.so.6
sqrtf32x@GLIBC_2.27                               /lib/x86_64-linux-gnu/libm.so.6
sqrtf64                                           /lib/x86_64-linux-gnu/libm.so.6
sqrtf64@@GLIBC_2.27                               /lib/x86_64-linux-gnu/libm.so.6
sqrtf64@GLIBC_2.27                                /lib/x86_64-linux-gnu/libm.so.6
sqrtf64x                                          /lib/x86_64-linux-gnu/libm.so.6
sqrtf64x@@GLIBC_2.27                              /lib/x86_64-linux-gnu/libm.so.6
sqrtf64x@GLIBC_2.27                               /lib/x86_64-linux-gnu/libm.so.6
sqrtf@@GLIBC_2.2.5                                /lib/x86_64-linux-gnu/libm.so.6
sqrtf@GLIBC_2.2.5                                 /lib/x86_64-linux-gnu/libm.so.6
sqrtl                                             /lib/x86_64-linux-gnu/libm.so.6
sqrtl@@GLIBC_2.2.5                                /lib/x86_64-linux-gnu/libm.so.6
sqrtl@GLIBC_2.2.5                                 /lib/x86_64-linux-gnu/libm.so.6
srand                                             /lib/x86_64-linux-gnu/libc.so.6
srand48_r                                         /lib/x86_64-linux-gnu/libc.so.6
srand48_r@@GLIBC_2.2.5                            /lib/x86_64-linux-gnu/libc.so.6
srand48_r@GLIBC_2.2.5                             /lib/x86_64-linux-gnu/libc.so.6
srand@@GLIBC_2.2.5                                /lib/x86_64-linux-gnu/libc.so.6
srand@GLIBC_2.2.5                                 /lib/x86_64-linux-gnu/libc.so.6
srandom                                           /lib/x86_64-linux-gnu/libc.so.6
srandom@@GLIBC_2.2.5                              /lib/x86_64-linux-gnu/libc.so.6
srandom@GLIBC_2.2.5                               /lib/x86_64-linux-gnu/libc.so.6
srandom_r                                         /lib/x86_64-linux-gnu/libc.so.6
srandom_r@@GLIBC_2.2.5                            /lib/x86_64-linux-gnu/libc.so.6
srandom_r@GLIBC_2.2.5                             /lib/x86_64-linux-gnu/libc.so.6
sscan_vn                                          ../../lib/libbtsystem.a(btmath.o)
ssignal                                           /lib/x86_64-linux-gnu/libc.so.6
ssignal@@GLIBC_2.2.5                              /lib/x86_64-linux-gnu/libc.so.6
ssignal@GLIBC_2.2.5                               /lib/x86_64-linux-gnu/libc.so.6
startDone                                         main.o
start_btPID                                       ../../lib/libbtsystem.a(btcontrol.o)
start_traptrj                                     ../../lib/libbtsystem.a(btstatecontrol.o)
start_trj_bts                                     ../../lib/libbtsystem.a(btstatecontrol.o)
start_via_trj                                     ../../lib/libbtsystem.a(btcontrol.o)
start_vr                                          ../../lib/libbtsystem.a(btmath.o)
                                                  ../../lib/libbtsystem.a(btcontrol.o)
statfs                                            /lib/x86_64-linux-gnu/libc.so.6
statfs64                                          /lib/x86_64-linux-gnu/libc.so.6
statfs64@@GLIBC_2.2.5                             /lib/x86_64-linux-gnu/libc.so.6
statfs64@GLIBC_2.2.5                              /lib/x86_64-linux-gnu/libc.so.6
statfs@@GLIBC_2.2.5                               /lib/x86_64-linux-gnu/libc.so.6
statfs@GLIBC_2.2.5                                /lib/x86_64-linux-gnu/libc.so.6
statvfs                                           /lib/x86_64-linux-gnu/libc.so.6
statvfs64                                         /lib/x86_64-linux-gnu/libc.so.6
statvfs64@@GLIBC_2.2.5                            /lib/x86_64-linux-gnu/libc.so.6
statvfs64@GLIBC_2.2.5                             /lib/x86_64-linux-gnu/libc.so.6
statvfs@@GLIBC_2.2.5                              /lib/x86_64-linux-gnu/libc.so.6
statvfs@GLIBC_2.2.5                               /lib/x86_64-linux-gnu/libc.so.6
stdout                                            /lib/x86_64-linux-gnu/libc.so.6
                                                  main.o
stdout@@GLIBC_2.2.5                               /lib/x86_64-linux-gnu/libc.so.6
stdout@GLIBC_2.2.5                                /lib/x86_64-linux-gnu/libc.so.6
                                                  /usr/lib/libcobalt.so
step@GLIBC_2.2.5                                  /lib/x86_64-linux-gnu/libc.so.6
step_btPID                                        ../../lib/libbtsystem.a(btcontrol.o)
stop_btPID                                        ../../lib/libbtsystem.a(btcontrol.o)
stop_trj_bts                                      ../../lib/libbtsystem.a(btstatecontrol.o)
                                                  ../../lib/libbtwam.a(btwam.o)
stpcpy                                            /lib/x86_64-linux-gnu/libc.so.6
stpcpy@@GLIBC_2.2.5                               /lib/x86_64-linux-gnu/libc.so.6
stpcpy@GLIBC_2.2.5                                /lib/x86_64-linux-gnu/libc.so.6
stpncpy                                           /lib/x86_64-linux-gnu/libc.so.6
stpncpy@@GLIBC_2.2.5                              /lib/x86_64-linux-gnu/libc.so.6
stpncpy@GLIBC_2.2.5                               /lib/x86_64-linux-gnu/libc.so.6
strcasecmp                                        /lib/x86_64-linux-gnu/libc.so.6
strcasecmp@@GLIBC_2.2.5                           /lib/x86_64-linux-gnu/libc.so.6
strcasecmp@GLIBC_2.2.5                            /lib/x86_64-linux-gnu/libc.so.6
strcasecmp_l                                      /lib/x86_64-linux-gnu/libc.so.6
strcasecmp_l@@GLIBC_2.3                           /lib/x86_64-linux-gnu/libc.so.6
strcasecmp_l@GLIBC_2.3                            /lib/x86_64-linux-gnu/libc.so.6
strcasestr                                        /lib/x86_64-linux-gnu/libc.so.6
strcasestr@@GLIBC_2.2.5                           /lib/x86_64-linux-gnu/libc.so.6
strcasestr@GLIBC_2.2.5                            /lib/x86_64-linux-gnu/libc.so.6
strchrnul                                         /lib/x86_64-linux-gnu/libc.so.6
strchrnul@@GLIBC_2.2.5                            /lib/x86_64-linux-gnu/libc.so.6
strchrnul@GLIBC_2.2.5                             /lib/x86_64-linux-gnu/libc.so.6
strcoll_l                                         /lib/x86_64-linux-gnu/libc.so.6
strcoll_l@@GLIBC_2.3                              /lib/x86_64-linux-gnu/libc.so.6
strcoll_l@GLIBC_2.3                               /lib/x86_64-linux-gnu/libc.so.6
strcount_vn                                       ../../lib/libbtsystem.a(btmath.o)
strdup                                            /lib/x86_64-linux-gnu/libc.so.6
strdup@@GLIBC_2.2.5                               /lib/x86_64-linux-gnu/libc.so.6
strdup@GLIBC_2.2.5                                /lib/x86_64-linux-gnu/libc.so.6
                                                  /usr/lib/libcobalt.so
                                                  /usr/lib/libcopperplate.so
strerror_r                                        /lib/x86_64-linux-gnu/libc.so.6
strerror_r@@GLIBC_2.2.5                           /lib/x86_64-linux-gnu/libc.so.6
strerror_r@GLIBC_2.2.5                            /lib/x86_64-linux-gnu/libc.so.6
strfmon_l                                         /lib/x86_64-linux-gnu/libc.so.6
strfmon_l@@GLIBC_2.3                              /lib/x86_64-linux-gnu/libc.so.6
strfmon_l@GLIBC_2.3                               /lib/x86_64-linux-gnu/libc.so.6
strfromf32                                        /lib/x86_64-linux-gnu/libc.so.6
strfromf32@@GLIBC_2.27                            /lib/x86_64-linux-gnu/libc.so.6
strfromf32@GLIBC_2.27                             /lib/x86_64-linux-gnu/libc.so.6
strfromf32x                                       /lib/x86_64-linux-gnu/libc.so.6
strfromf32x@@GLIBC_2.27                           /lib/x86_64-linux-gnu/libc.so.6
strfromf32x@GLIBC_2.27                            /lib/x86_64-linux-gnu/libc.so.6
strfromf64                                        /lib/x86_64-linux-gnu/libc.so.6
strfromf64@@GLIBC_2.27                            /lib/x86_64-linux-gnu/libc.so.6
strfromf64@GLIBC_2.27                             /lib/x86_64-linux-gnu/libc.so.6
strfromf64x                                       /lib/x86_64-linux-gnu/libc.so.6
strfromf64x@@GLIBC_2.27                           /lib/x86_64-linux-gnu/libc.so.6
strfromf64x@GLIBC_2.27                            /lib/x86_64-linux-gnu/libc.so.6
strftime_l                                        /lib/x86_64-linux-gnu/libc.so.6
strftime_l@@GLIBC_2.3                             /lib/x86_64-linux-gnu/libc.so.6
strftime_l@GLIBC_2.3                              /lib/x86_64-linux-gnu/libc.so.6
stripComments                                     ../../lib/libbtsystem.a(btparser.o)
strncasecmp                                       /lib/x86_64-linux-gnu/libc.so.6
strncasecmp@@GLIBC_2.2.5                          /lib/x86_64-linux-gnu/libc.so.6
strncasecmp@GLIBC_2.2.5                           /lib/x86_64-linux-gnu/libc.so.6
strncasecmp_l                                     /lib/x86_64-linux-gnu/libc.so.6
strncasecmp_l@@GLIBC_2.3                          /lib/x86_64-linux-gnu/libc.so.6
strncasecmp_l@GLIBC_2.3                           /lib/x86_64-linux-gnu/libc.so.6
strndup                                           /lib/x86_64-linux-gnu/libc.so.6
strndup@@GLIBC_2.2.5                              /lib/x86_64-linux-gnu/libc.so.6
strndup@GLIBC_2.2.5                               /lib/x86_64-linux-gnu/libc.so.6
strnlen                                           /lib/x86_64-linux-gnu/libc.so.6
strnlen@@GLIBC_2.2.5                              /lib/x86_64-linux-gnu/libc.so.6
strnlen@GLIBC_2.2.5                               /lib/x86_64-linux-gnu/libc.so.6
strptime_l                                        /lib/x86_64-linux-gnu/libc.so.6
strptime_l@@GLIBC_2.3.2                           /lib/x86_64-linux-gnu/libc.so.6
strptime_l@GLIBC_2.3.2                            /lib/x86_64-linux-gnu/libc.so.6
strsep                                            /lib/x86_64-linux-gnu/libc.so.6
strsep@@GLIBC_2.2.5                               /lib/x86_64-linux-gnu/libc.so.6
strsep@GLIBC_2.2.5                                /lib/x86_64-linux-gnu/libc.so.6
strto_mn                                          ../../lib/libbtsystem.a(btmath.o)
                                                  ../../lib/libbtsystem.a(btparser.o)
strto_vn                                          ../../lib/libbtsystem.a(btmath.o)
                                                  ../../lib/libbtsystem.a(btparser.o)
strtod_l                                          /lib/x86_64-linux-gnu/libc.so.6
strtod_l@@GLIBC_2.3                               /lib/x86_64-linux-gnu/libc.so.6
strtod_l@GLIBC_2.3                                /lib/x86_64-linux-gnu/libc.so.6
strtof128_l                                       /lib/x86_64-linux-gnu/libc.so.6
strtof128_l@@GLIBC_2.26                           /lib/x86_64-linux-gnu/libc.so.6
strtof128_l@GLIBC_2.26                            /lib/x86_64-linux-gnu/libc.so.6
strtof32                                          /lib/x86_64-linux-gnu/libc.so.6
strtof32@@GLIBC_2.27                              /lib/x86_64-linux-gnu/libc.so.6
strtof32@GLIBC_2.27                               /lib/x86_64-linux-gnu/libc.so.6
strtof32_l                                        /lib/x86_64-linux-gnu/libc.so.6
strtof32_l@@GLIBC_2.27                            /lib/x86_64-linux-gnu/libc.so.6
strtof32_l@GLIBC_2.27                             /lib/x86_64-linux-gnu/libc.so.6
strtof32x                                         /lib/x86_64-linux-gnu/libc.so.6
strtof32x@@GLIBC_2.27                             /lib/x86_64-linux-gnu/libc.so.6
strtof32x@GLIBC_2.27                              /lib/x86_64-linux-gnu/libc.so.6
strtof32x_l                                       /lib/x86_64-linux-gnu/libc.so.6
strtof32x_l@@GLIBC_2.27                           /lib/x86_64-linux-gnu/libc.so.6
strtof32x_l@GLIBC_2.27                            /lib/x86_64-linux-gnu/libc.so.6
strtof64                                          /lib/x86_64-linux-gnu/libc.so.6
strtof64@@GLIBC_2.27                              /lib/x86_64-linux-gnu/libc.so.6
strtof64@GLIBC_2.27                               /lib/x86_64-linux-gnu/libc.so.6
strtof64_l                                        /lib/x86_64-linux-gnu/libc.so.6
strtof64_l@@GLIBC_2.27                            /lib/x86_64-linux-gnu/libc.so.6
strtof64_l@GLIBC_2.27                             /lib/x86_64-linux-gnu/libc.so.6
strtof64x                                         /lib/x86_64-linux-gnu/libc.so.6
strtof64x@@GLIBC_2.27                             /lib/x86_64-linux-gnu/libc.so.6
strtof64x@GLIBC_2.27                              /lib/x86_64-linux-gnu/libc.so.6
strtof64x_l                                       /lib/x86_64-linux-gnu/libc.so.6
strtof64x_l@@GLIBC_2.27                           /lib/x86_64-linux-gnu/libc.so.6
strtof64x_l@GLIBC_2.27                            /lib/x86_64-linux-gnu/libc.so.6
strtof_l                                          /lib/x86_64-linux-gnu/libc.so.6
strtof_l@@GLIBC_2.3                               /lib/x86_64-linux-gnu/libc.so.6
strtof_l@GLIBC_2.3                                /lib/x86_64-linux-gnu/libc.so.6
strtok_r                                          /lib/x86_64-linux-gnu/libc.so.6
strtok_r@@GLIBC_2.2.5                             /lib/x86_64-linux-gnu/libc.so.6
strtok_r@GLIBC_2.2.5                              /lib/x86_64-linux-gnu/libc.so.6
                                                  /usr/lib/libcobalt.so
strtol                                            /lib/x86_64-linux-gnu/libc.so.6
strtol@@GLIBC_2.2.5                               /lib/x86_64-linux-gnu/libc.so.6
strtol@GLIBC_2.2.5                                /lib/x86_64-linux-gnu/libc.so.6
                                                  /usr/lib/libcobalt.so
                                                  /usr/lib/libcopperplate.so
                                                  /usr/lib/libalchemy.so
strtol_l                                          /lib/x86_64-linux-gnu/libc.so.6
strtol_l@@GLIBC_2.3                               /lib/x86_64-linux-gnu/libc.so.6
strtol_l@GLIBC_2.3                                /lib/x86_64-linux-gnu/libc.so.6
strtold_l                                         /lib/x86_64-linux-gnu/libc.so.6
strtold_l@@GLIBC_2.3                              /lib/x86_64-linux-gnu/libc.so.6
strtold_l@GLIBC_2.3                               /lib/x86_64-linux-gnu/libc.so.6
strtoll                                           /lib/x86_64-linux-gnu/libc.so.6
strtoll@@GLIBC_2.2.5                              /lib/x86_64-linux-gnu/libc.so.6
strtoll@GLIBC_2.2.5                               /lib/x86_64-linux-gnu/libc.so.6
                                                  /usr/lib/libcobalt.so
strtoll_l                                         /lib/x86_64-linux-gnu/libc.so.6
strtoll_l@@GLIBC_2.3.3                            /lib/x86_64-linux-gnu/libc.so.6
strtoll_l@GLIBC_2.3.3                             /lib/x86_64-linux-gnu/libc.so.6
strtoq                                            /lib/x86_64-linux-gnu/libc.so.6
strtoq@@GLIBC_2.2.5                               /lib/x86_64-linux-gnu/libc.so.6
strtoq@GLIBC_2.2.5                                /lib/x86_64-linux-gnu/libc.so.6
strtoul                                           /lib/x86_64-linux-gnu/libc.so.6
strtoul@@GLIBC_2.2.5                              /lib/x86_64-linux-gnu/libc.so.6
strtoul@GLIBC_2.2.5                               /lib/x86_64-linux-gnu/libc.so.6
strtoul_l                                         /lib/x86_64-linux-gnu/libc.so.6
strtoul_l@@GLIBC_2.3                              /lib/x86_64-linux-gnu/libc.so.6
strtoul_l@GLIBC_2.3                               /lib/x86_64-linux-gnu/libc.so.6
strtoull                                          /lib/x86_64-linux-gnu/libc.so.6
strtoull@@GLIBC_2.2.5                             /lib/x86_64-linux-gnu/libc.so.6
strtoull@GLIBC_2.2.5                              /lib/x86_64-linux-gnu/libc.so.6
strtoull_l                                        /lib/x86_64-linux-gnu/libc.so.6
strtoull_l@@GLIBC_2.3.3                           /lib/x86_64-linux-gnu/libc.so.6
strtoull_l@GLIBC_2.3.3                            /lib/x86_64-linux-gnu/libc.so.6
strtouq                                           /lib/x86_64-linux-gnu/libc.so.6
strtouq@@GLIBC_2.2.5                              /lib/x86_64-linux-gnu/libc.so.6
strtouq@GLIBC_2.2.5                               /lib/x86_64-linux-gnu/libc.so.6
strverscmp                                        /lib/x86_64-linux-gnu/libc.so.6
strverscmp@@GLIBC_2.2.5                           /lib/x86_64-linux-gnu/libc.so.6
strverscmp@GLIBC_2.2.5                            /lib/x86_64-linux-gnu/libc.so.6
strxfrm_l                                         /lib/x86_64-linux-gnu/libc.so.6
strxfrm_l@@GLIBC_2.3                              /lib/x86_64-linux-gnu/libc.so.6
strxfrm_l@GLIBC_2.3                               /lib/x86_64-linux-gnu/libc.so.6
sub_q                                             ../../lib/libbtsystem.a(btmath.o)
sub_v3                                            ../../lib/libbtsystem.a(btmath.o)
                                                  ../../lib/libbtsystem.a(btrobot.o)
sub_vn                                            ../../lib/libbtsystem.a(btmath.o)
                                                  ../../lib/libbtsystem.a(btpath.o)
                                                  ../../lib/libbtsystem.a(btcontrol.o)
                                                  ../../lib/libbtwam.a(btwam.o)
subset_vn                                         ../../lib/libbtsystem.a(btmath.o)
                                                  ../../lib/libbtsystem.a(btcontrol.o)
swapcontext                                       /lib/x86_64-linux-gnu/libc.so.6
swapcontext@@GLIBC_2.2.5                          /lib/x86_64-linux-gnu/libc.so.6
swapcontext@GLIBC_2.2.5                           /lib/x86_64-linux-gnu/libc.so.6
swapoff                                           /lib/x86_64-linux-gnu/libc.so.6
swapoff@@GLIBC_2.2.5                              /lib/x86_64-linux-gnu/libc.so.6
swapoff@GLIBC_2.2.5                               /lib/x86_64-linux-gnu/libc.so.6
swapon                                            /lib/x86_64-linux-gnu/libc.so.6
swapon@@GLIBC_2.2.5                               /lib/x86_64-linux-gnu/libc.so.6
swapon@GLIBC_2.2.5                                /lib/x86_64-linux-gnu/libc.so.6
symlink                                           /lib/x86_64-linux-gnu/libc.so.6
symlink@@GLIBC_2.2.5                              /lib/x86_64-linux-gnu/libc.so.6
symlink@GLIBC_2.2.5                               /lib/x86_64-linux-gnu/libc.so.6
sysconf                                           /lib/x86_64-linux-gnu/libc.so.6
                                                  ../../lib/libbtsystem.a(btsystem.o)
sysconf@@GLIBC_2.2.5                              /lib/x86_64-linux-gnu/libc.so.6
sysconf@GLIBC_2.2.5                               /lib/x86_64-linux-gnu/libc.so.6
                                                  /usr/lib/libcobalt.so
sysctl                                            /lib/x86_64-linux-gnu/libc.so.6
sysctl@@GLIBC_2.2.5                               /lib/x86_64-linux-gnu/libc.so.6
sysctl@GLIBC_2.2.5                                /lib/x86_64-linux-gnu/libc.so.6
sysinfo                                           /lib/x86_64-linux-gnu/libc.so.6
sysinfo@@GLIBC_2.2.5                              /lib/x86_64-linux-gnu/libc.so.6
sysinfo@GLIBC_2.2.5                               /lib/x86_64-linux-gnu/libc.so.6
syslog_backtrace                                  ../../lib/libbtsystem.a(btos.o)
syslog_filter                                     ../../lib/libbtsystem.a(btmath.o)
syslog_vn                                         ../../lib/libbtsystem.a(btmath.o)
system                                            /lib/x86_64-linux-gnu/libc.so.6
system@@GLIBC_2.2.5                               /lib/x86_64-linux-gnu/libc.so.6
sysv_signal                                       /lib/x86_64-linux-gnu/libc.so.6
sysv_signal@@GLIBC_2.2.5                          /lib/x86_64-linux-gnu/libc.so.6
sysv_signal@GLIBC_2.2.5                           /lib/x86_64-linux-gnu/libc.so.6
tan                                               /lib/x86_64-linux-gnu/libm.so.6
tan@@GLIBC_2.2.5                                  /lib/x86_64-linux-gnu/libm.so.6
tan@GLIBC_2.2.5                                   /lib/x86_64-linux-gnu/libm.so.6
tanf                                              /lib/x86_64-linux-gnu/libm.so.6
tanf128                                           /lib/x86_64-linux-gnu/libm.so.6
tanf128@@GLIBC_2.26                               /lib/x86_64-linux-gnu/libm.so.6
tanf128@GLIBC_2.26                                /lib/x86_64-linux-gnu/libm.so.6
tanf32                                            /lib/x86_64-linux-gnu/libm.so.6
tanf32@@GLIBC_2.27                                /lib/x86_64-linux-gnu/libm.so.6
tanf32@GLIBC_2.27                                 /lib/x86_64-linux-gnu/libm.so.6
tanf32x                                           /lib/x86_64-linux-gnu/libm.so.6
tanf32x@@GLIBC_2.27                               /lib/x86_64-linux-gnu/libm.so.6
tanf32x@GLIBC_2.27                                /lib/x86_64-linux-gnu/libm.so.6
tanf64                                            /lib/x86_64-linux-gnu/libm.so.6
tanf64@@GLIBC_2.27                                /lib/x86_64-linux-gnu/libm.so.6
tanf64@GLIBC_2.27                                 /lib/x86_64-linux-gnu/libm.so.6
tanf64x                                           /lib/x86_64-linux-gnu/libm.so.6
tanf64x@@GLIBC_2.27                               /lib/x86_64-linux-gnu/libm.so.6
tanf64x@GLIBC_2.27                                /lib/x86_64-linux-gnu/libm.so.6
tanf@@GLIBC_2.2.5                                 /lib/x86_64-linux-gnu/libm.so.6
tanf@GLIBC_2.2.5                                  /lib/x86_64-linux-gnu/libm.so.6
tanh                                              /lib/x86_64-linux-gnu/libm.so.6
tanh@@GLIBC_2.2.5                                 /lib/x86_64-linux-gnu/libm.so.6
tanh@GLIBC_2.2.5                                  /lib/x86_64-linux-gnu/libm.so.6
tanhf                                             /lib/x86_64-linux-gnu/libm.so.6
tanhf128                                          /lib/x86_64-linux-gnu/libm.so.6
tanhf128@@GLIBC_2.26                              /lib/x86_64-linux-gnu/libm.so.6
tanhf128@GLIBC_2.26                               /lib/x86_64-linux-gnu/libm.so.6
tanhf32                                           /lib/x86_64-linux-gnu/libm.so.6
tanhf32@@GLIBC_2.27                               /lib/x86_64-linux-gnu/libm.so.6
tanhf32@GLIBC_2.27                                /lib/x86_64-linux-gnu/libm.so.6
tanhf32x                                          /lib/x86_64-linux-gnu/libm.so.6
tanhf32x@@GLIBC_2.27                              /lib/x86_64-linux-gnu/libm.so.6
tanhf32x@GLIBC_2.27                               /lib/x86_64-linux-gnu/libm.so.6
tanhf64                                           /lib/x86_64-linux-gnu/libm.so.6
tanhf64@@GLIBC_2.27                               /lib/x86_64-linux-gnu/libm.so.6
tanhf64@GLIBC_2.27                                /lib/x86_64-linux-gnu/libm.so.6
tanhf64x                                          /lib/x86_64-linux-gnu/libm.so.6
tanhf64x@@GLIBC_2.27                              /lib/x86_64-linux-gnu/libm.so.6
tanhf64x@GLIBC_2.27                               /lib/x86_64-linux-gnu/libm.so.6
tanhf@@GLIBC_2.2.5                                /lib/x86_64-linux-gnu/libm.so.6
tanhf@GLIBC_2.2.5                                 /lib/x86_64-linux-gnu/libm.so.6
tanhl                                             /lib/x86_64-linux-gnu/libm.so.6
tanhl@@GLIBC_2.2.5                                /lib/x86_64-linux-gnu/libm.so.6
tanhl@GLIBC_2.2.5                                 /lib/x86_64-linux-gnu/libm.so.6
tanl                                              /lib/x86_64-linux-gnu/libm.so.6
tanl@@GLIBC_2.2.5                                 /lib/x86_64-linux-gnu/libm.so.6
tanl@GLIBC_2.2.5                                  /lib/x86_64-linux-gnu/libm.so.6
tcdrain                                           /lib/x86_64-linux-gnu/libpthread.so.0
tcdrain@@GLIBC_2.2.5                              /lib/x86_64-linux-gnu/libpthread.so.0
                                                  /lib/x86_64-linux-gnu/libc.so.6
tcdrain@GLIBC_2.2.5                               /lib/x86_64-linux-gnu/libpthread.so.0
tcgetattr                                         /lib/x86_64-linux-gnu/libc.so.6
tcgetattr@@GLIBC_2.2.5                            /lib/x86_64-linux-gnu/libc.so.6
tcgetattr@GLIBC_2.2.5                             /lib/x86_64-linux-gnu/libc.so.6
tdelete                                           /lib/x86_64-linux-gnu/libc.so.6
tdelete@@GLIBC_2.2.5                              /lib/x86_64-linux-gnu/libc.so.6
tdelete@GLIBC_2.2.5                               /lib/x86_64-linux-gnu/libc.so.6
tdestroy                                          /lib/x86_64-linux-gnu/libc.so.6
tdestroy@@GLIBC_2.2.5                             /lib/x86_64-linux-gnu/libc.so.6
tdestroy@GLIBC_2.2.5                              /lib/x86_64-linux-gnu/libc.so.6
test_and_log                                      ../../lib/libbtsystem.a(btos.o)
                                                  ../../lib/libbtwam.a(btwam.o)
test_btfilter                                     ../../lib/libbtsystem.a(btmath.o)
test_btrobot                                      ../../lib/libbtsystem.a(btrobot.o)
test_filter_vn                                    ../../lib/libbtsystem.a(btmath.o)
test_mh                                           ../../lib/libbtsystem.a(btmath.o)
test_v3                                           ../../lib/libbtsystem.a(btmath.o)
test_vn                                           ../../lib/libbtsystem.a(btmath.o)
test_vr                                           ../../lib/libbtsystem.a(btmath.o)
textdomain                                        /lib/x86_64-linux-gnu/libc.so.6
textdomain@@GLIBC_2.2.5                           /lib/x86_64-linux-gnu/libc.so.6
textdomain@GLIBC_2.2.5                            /lib/x86_64-linux-gnu/libc.so.6
tfind                                             /lib/x86_64-linux-gnu/libc.so.6
tfind@@GLIBC_2.2.5                                /lib/x86_64-linux-gnu/libc.so.6
tfind@GLIBC_2.2.5                                 /lib/x86_64-linux-gnu/libc.so.6
tgamma                                            /lib/x86_64-linux-gnu/libm.so.6
tgamma@@GLIBC_2.2.5                               /lib/x86_64-linux-gnu/libm.so.6
tgamma@GLIBC_2.2.5                                /lib/x86_64-linux-gnu/libm.so.6
tgammaf                                           /lib/x86_64-linux-gnu/libm.so.6
tgammaf128                                        /lib/x86_64-linux-gnu/libm.so.6
tgammaf128@@GLIBC_2.26                            /lib/x86_64-linux-gnu/libm.so.6
tgammaf128@GLIBC_2.26                             /lib/x86_64-linux-gnu/libm.so.6
tgammaf32                                         /lib/x86_64-linux-gnu/libm.so.6
tgammaf32@@GLIBC_2.27                             /lib/x86_64-linux-gnu/libm.so.6
tgammaf32@GLIBC_2.27                              /lib/x86_64-linux-gnu/libm.so.6
tgammaf32x                                        /lib/x86_64-linux-gnu/libm.so.6
tgammaf32x@@GLIBC_2.27                            /lib/x86_64-linux-gnu/libm.so.6
tgammaf32x@GLIBC_2.27                             /lib/x86_64-linux-gnu/libm.so.6
tgammaf64                                         /lib/x86_64-linux-gnu/libm.so.6
tgammaf64@@GLIBC_2.27                             /lib/x86_64-linux-gnu/libm.so.6
tgammaf64@GLIBC_2.27                              /lib/x86_64-linux-gnu/libm.so.6
tgammaf64x                                        /lib/x86_64-linux-gnu/libm.so.6
tgammaf64x@@GLIBC_2.27                            /lib/x86_64-linux-gnu/libm.so.6
tgammaf64x@GLIBC_2.27                             /lib/x86_64-linux-gnu/libm.so.6
tgammaf@@GLIBC_2.2.5                              /lib/x86_64-linux-gnu/libm.so.6
tgammaf@GLIBC_2.2.5                               /lib/x86_64-linux-gnu/libm.so.6
tgammal                                           /lib/x86_64-linux-gnu/libm.so.6
tgammal@@GLIBC_2.2.5                              /lib/x86_64-linux-gnu/libm.so.6
tgammal@GLIBC_2.2.5                               /lib/x86_64-linux-gnu/libm.so.6
time_scale_vta                                    ../../lib/libbtsystem.a(btcontrol.o)
timelocal                                         /lib/x86_64-linux-gnu/libc.so.6
timelocal@@GLIBC_2.2.5                            /lib/x86_64-linux-gnu/libc.so.6
timelocal@GLIBC_2.2.5                             /lib/x86_64-linux-gnu/libc.so.6
times                                             /lib/x86_64-linux-gnu/libc.so.6
times@@GLIBC_2.2.5                                /lib/x86_64-linux-gnu/libc.so.6
times@GLIBC_2.2.5                                 /lib/x86_64-linux-gnu/libc.so.6
timev                                             ../../lib/libbtsystem.a(btsystem.o)
timezone                                          /lib/x86_64-linux-gnu/libc.so.6
timezone@@GLIBC_2.2.5                             /lib/x86_64-linux-gnu/libc.so.6
timezone@GLIBC_2.2.5                              /lib/x86_64-linux-gnu/libc.so.6
tmpfile64                                         /lib/x86_64-linux-gnu/libc.so.6
tmpfile64@@GLIBC_2.2.5                            /lib/x86_64-linux-gnu/libc.so.6
tmpfile64@GLIBC_2.2.5                             /lib/x86_64-linux-gnu/libc.so.6
tolower_l                                         /lib/x86_64-linux-gnu/libc.so.6
tolower_l@@GLIBC_2.3                              /lib/x86_64-linux-gnu/libc.so.6
tolower_l@GLIBC_2.3                               /lib/x86_64-linux-gnu/libc.so.6
tool_geom_bot                                     ../../lib/libbtsystem.a(btrobot.o)
                                                  ../../lib/libbtwam.a(btwam.o)
tool_mass_bot                                     ../../lib/libbtsystem.a(btrobot.o)
                                                  ../../lib/libbtwam.a(btwam.o)
tool_trans_bot                                    ../../lib/libbtsystem.a(btrobot.o)
totalorder                                        /lib/x86_64-linux-gnu/libm.so.6
totalorder@@GLIBC_2.25                            /lib/x86_64-linux-gnu/libm.so.6
totalorder@GLIBC_2.25                             /lib/x86_64-linux-gnu/libm.so.6
totalorderf                                       /lib/x86_64-linux-gnu/libm.so.6
totalorderf128                                    /lib/x86_64-linux-gnu/libm.so.6
totalorderf128@@GLIBC_2.26                        /lib/x86_64-linux-gnu/libm.so.6
totalorderf128@GLIBC_2.26                         /lib/x86_64-linux-gnu/libm.so.6
totalorderf32                                     /lib/x86_64-linux-gnu/libm.so.6
totalorderf32@@GLIBC_2.27                         /lib/x86_64-linux-gnu/libm.so.6
totalorderf32@GLIBC_2.27                          /lib/x86_64-linux-gnu/libm.so.6
totalorderf32x                                    /lib/x86_64-linux-gnu/libm.so.6
totalorderf32x@@GLIBC_2.27                        /lib/x86_64-linux-gnu/libm.so.6
totalorderf32x@GLIBC_2.27                         /lib/x86_64-linux-gnu/libm.so.6
totalorderf64                                     /lib/x86_64-linux-gnu/libm.so.6
totalorderf64@@GLIBC_2.27                         /lib/x86_64-linux-gnu/libm.so.6
totalorderf64@GLIBC_2.27                          /lib/x86_64-linux-gnu/libm.so.6
totalorderf64x                                    /lib/x86_64-linux-gnu/libm.so.6
totalorderf64x@@GLIBC_2.27                        /lib/x86_64-linux-gnu/libm.so.6
totalorderf64x@GLIBC_2.27                         /lib/x86_64-linux-gnu/libm.so.6
totalorderf@@GLIBC_2.25                           /lib/x86_64-linux-gnu/libm.so.6
totalorderf@GLIBC_2.25                            /lib/x86_64-linux-gnu/libm.so.6
totalorderl                                       /lib/x86_64-linux-gnu/libm.so.6
totalorderl@@GLIBC_2.25                           /lib/x86_64-linux-gnu/libm.so.6
totalorderl@GLIBC_2.25                            /lib/x86_64-linux-gnu/libm.so.6
totalordermag                                     /lib/x86_64-linux-gnu/libm.so.6
totalordermag@@GLIBC_2.25                         /lib/x86_64-linux-gnu/libm.so.6
totalordermag@GLIBC_2.25                          /lib/x86_64-linux-gnu/libm.so.6
totalordermagf                                    /lib/x86_64-linux-gnu/libm.so.6
totalordermagf128                                 /lib/x86_64-linux-gnu/libm.so.6
totalordermagf128@@GLIBC_2.26                     /lib/x86_64-linux-gnu/libm.so.6
totalordermagf128@GLIBC_2.26                      /lib/x86_64-linux-gnu/libm.so.6
totalordermagf32                                  /lib/x86_64-linux-gnu/libm.so.6
totalordermagf32@@GLIBC_2.27                      /lib/x86_64-linux-gnu/libm.so.6
totalordermagf32@GLIBC_2.27                       /lib/x86_64-linux-gnu/libm.so.6
totalordermagf32x                                 /lib/x86_64-linux-gnu/libm.so.6
totalordermagf32x@@GLIBC_2.27                     /lib/x86_64-linux-gnu/libm.so.6
totalordermagf32x@GLIBC_2.27                      /lib/x86_64-linux-gnu/libm.so.6
totalordermagf64                                  /lib/x86_64-linux-gnu/libm.so.6
totalordermagf64@@GLIBC_2.27                      /lib/x86_64-linux-gnu/libm.so.6
totalordermagf64@GLIBC_2.27                       /lib/x86_64-linux-gnu/libm.so.6
totalordermagf64x                                 /lib/x86_64-linux-gnu/libm.so.6
totalordermagf64x@@GLIBC_2.27                     /lib/x86_64-linux-gnu/libm.so.6
totalordermagf64x@GLIBC_2.27                      /lib/x86_64-linux-gnu/libm.so.6
totalordermagf@@GLIBC_2.25                        /lib/x86_64-linux-gnu/libm.so.6
totalordermagf@GLIBC_2.25                         /lib/x86_64-linux-gnu/libm.so.6
totalordermagl                                    /lib/x86_64-linux-gnu/libm.so.6
totalordermagl@@GLIBC_2.25                        /lib/x86_64-linux-gnu/libm.so.6
totalordermagl@GLIBC_2.25                         /lib/x86_64-linux-gnu/libm.so.6
toupper_l                                         /lib/x86_64-linux-gnu/libc.so.6
toupper_l@@GLIBC_2.3                              /lib/x86_64-linux-gnu/libc.so.6
toupper_l@GLIBC_2.3                               /lib/x86_64-linux-gnu/libc.so.6
towctrans                                         /lib/x86_64-linux-gnu/libc.so.6
towctrans@@GLIBC_2.2.5                            /lib/x86_64-linux-gnu/libc.so.6
towctrans@GLIBC_2.2.5                             /lib/x86_64-linux-gnu/libc.so.6
towctrans_l                                       /lib/x86_64-linux-gnu/libc.so.6
towctrans_l@@GLIBC_2.3                            /lib/x86_64-linux-gnu/libc.so.6
towctrans_l@GLIBC_2.3                             /lib/x86_64-linux-gnu/libc.so.6
towlower                                          /lib/x86_64-linux-gnu/libc.so.6
towlower@@GLIBC_2.2.5                             /lib/x86_64-linux-gnu/libc.so.6
towlower@GLIBC_2.2.5                              /lib/x86_64-linux-gnu/libc.so.6
towlower_l                                        /lib/x86_64-linux-gnu/libc.so.6
towlower_l@@GLIBC_2.3                             /lib/x86_64-linux-gnu/libc.so.6
towlower_l@GLIBC_2.3                              /lib/x86_64-linux-gnu/libc.so.6
towupper                                          /lib/x86_64-linux-gnu/libc.so.6
towupper@@GLIBC_2.2.5                             /lib/x86_64-linux-gnu/libc.so.6
towupper@GLIBC_2.2.5                              /lib/x86_64-linux-gnu/libc.so.6
towupper_l                                        /lib/x86_64-linux-gnu/libc.so.6
towupper_l@@GLIBC_2.3                             /lib/x86_64-linux-gnu/libc.so.6
towupper_l@GLIBC_2.3                              /lib/x86_64-linux-gnu/libc.so.6
trunc                                             /lib/x86_64-linux-gnu/libm.so.6
trunc@@GLIBC_2.2.5                                /lib/x86_64-linux-gnu/libm.so.6
trunc@GLIBC_2.2.5                                 /lib/x86_64-linux-gnu/libm.so.6
truncate                                          /lib/x86_64-linux-gnu/libc.so.6
truncate64                                        /lib/x86_64-linux-gnu/libc.so.6
truncate64@@GLIBC_2.2.5                           /lib/x86_64-linux-gnu/libc.so.6
truncate64@GLIBC_2.2.5                            /lib/x86_64-linux-gnu/libc.so.6
truncate@@GLIBC_2.2.5                             /lib/x86_64-linux-gnu/libc.so.6
truncate@GLIBC_2.2.5                              /lib/x86_64-linux-gnu/libc.so.6
truncf                                            /lib/x86_64-linux-gnu/libm.so.6
truncf128                                         /lib/x86_64-linux-gnu/libm.so.6
truncf128@@GLIBC_2.26                             /lib/x86_64-linux-gnu/libm.so.6
truncf128@GLIBC_2.26                              /lib/x86_64-linux-gnu/libm.so.6
truncf32                                          /lib/x86_64-linux-gnu/libm.so.6
truncf32@@GLIBC_2.27                              /lib/x86_64-linux-gnu/libm.so.6
truncf32@GLIBC_2.27                               /lib/x86_64-linux-gnu/libm.so.6
truncf32x                                         /lib/x86_64-linux-gnu/libm.so.6
truncf32x@@GLIBC_2.27                             /lib/x86_64-linux-gnu/libm.so.6
truncf32x@GLIBC_2.27                              /lib/x86_64-linux-gnu/libm.so.6
truncf64                                          /lib/x86_64-linux-gnu/libm.so.6
truncf64@@GLIBC_2.27                              /lib/x86_64-linux-gnu/libm.so.6
truncf64@GLIBC_2.27                               /lib/x86_64-linux-gnu/libm.so.6
truncf64x                                         /lib/x86_64-linux-gnu/libm.so.6
truncf64x@@GLIBC_2.27                             /lib/x86_64-linux-gnu/libm.so.6
truncf64x@GLIBC_2.27                              /lib/x86_64-linux-gnu/libm.so.6
truncf@@GLIBC_2.2.5                               /lib/x86_64-linux-gnu/libm.so.6
truncf@GLIBC_2.2.5                                /lib/x86_64-linux-gnu/libm.so.6
truncl                                            /lib/x86_64-linux-gnu/libm.so.6
truncl@@GLIBC_2.2.5                               /lib/x86_64-linux-gnu/libm.so.6
truncl@GLIBC_2.2.5                                /lib/x86_64-linux-gnu/libm.so.6
tsearch                                           /lib/x86_64-linux-gnu/libc.so.6
tsearch@@GLIBC_2.2.5                              /lib/x86_64-linux-gnu/libc.so.6
tsearch@GLIBC_2.2.5                               /lib/x86_64-linux-gnu/libc.so.6
ttyname_r                                         /lib/x86_64-linux-gnu/libc.so.6
ttyname_r@@GLIBC_2.2.5                            /lib/x86_64-linux-gnu/libc.so.6
ttyname_r@GLIBC_2.2.5                             /lib/x86_64-linux-gnu/libc.so.6
twalk                                             /lib/x86_64-linux-gnu/libc.so.6
twalk@@GLIBC_2.2.5                                /lib/x86_64-linux-gnu/libc.so.6
twalk@GLIBC_2.2.5                                 /lib/x86_64-linux-gnu/libc.so.6
tzname                                            /lib/x86_64-linux-gnu/libc.so.6
tzname@@GLIBC_2.2.5                               /lib/x86_64-linux-gnu/libc.so.6
tzname@GLIBC_2.2.5                                /lib/x86_64-linux-gnu/libc.so.6
tzset                                             /lib/x86_64-linux-gnu/libc.so.6
tzset@@GLIBC_2.2.5                                /lib/x86_64-linux-gnu/libc.so.6
tzset@GLIBC_2.2.5                                 /lib/x86_64-linux-gnu/libc.so.6
ufromfp                                           /lib/x86_64-linux-gnu/libm.so.6
ufromfp@@GLIBC_2.25                               /lib/x86_64-linux-gnu/libm.so.6
ufromfp@GLIBC_2.25                                /lib/x86_64-linux-gnu/libm.so.6
ufromfpf                                          /lib/x86_64-linux-gnu/libm.so.6
ufromfpf128                                       /lib/x86_64-linux-gnu/libm.so.6
ufromfpf128@@GLIBC_2.26                           /lib/x86_64-linux-gnu/libm.so.6
ufromfpf128@GLIBC_2.26                            /lib/x86_64-linux-gnu/libm.so.6
ufromfpf32                                        /lib/x86_64-linux-gnu/libm.so.6
ufromfpf32@@GLIBC_2.27                            /lib/x86_64-linux-gnu/libm.so.6
ufromfpf32@GLIBC_2.27                             /lib/x86_64-linux-gnu/libm.so.6
ufromfpf32x                                       /lib/x86_64-linux-gnu/libm.so.6
ufromfpf32x@@GLIBC_2.27                           /lib/x86_64-linux-gnu/libm.so.6
ufromfpf32x@GLIBC_2.27                            /lib/x86_64-linux-gnu/libm.so.6
ufromfpf64                                        /lib/x86_64-linux-gnu/libm.so.6
ufromfpf64@@GLIBC_2.27                            /lib/x86_64-linux-gnu/libm.so.6
ufromfpf64@GLIBC_2.27                             /lib/x86_64-linux-gnu/libm.so.6
ufromfpf64x                                       /lib/x86_64-linux-gnu/libm.so.6
ufromfpf64x@@GLIBC_2.27                           /lib/x86_64-linux-gnu/libm.so.6
ufromfpf64x@GLIBC_2.27                            /lib/x86_64-linux-gnu/libm.so.6
ufromfpf@@GLIBC_2.25                              /lib/x86_64-linux-gnu/libm.so.6
ufromfpf@GLIBC_2.25                               /lib/x86_64-linux-gnu/libm.so.6
ufromfpl                                          /lib/x86_64-linux-gnu/libm.so.6
ufromfpl@@GLIBC_2.25                              /lib/x86_64-linux-gnu/libm.so.6
ufromfpl@GLIBC_2.25                               /lib/x86_64-linux-gnu/libm.so.6
ufromfpx                                          /lib/x86_64-linux-gnu/libm.so.6
ufromfpx@@GLIBC_2.25                              /lib/x86_64-linux-gnu/libm.so.6
ufromfpx@GLIBC_2.25                               /lib/x86_64-linux-gnu/libm.so.6
ufromfpxf                                         /lib/x86_64-linux-gnu/libm.so.6
ufromfpxf128                                      /lib/x86_64-linux-gnu/libm.so.6
ufromfpxf128@@GLIBC_2.26                          /lib/x86_64-linux-gnu/libm.so.6
ufromfpxf128@GLIBC_2.26                           /lib/x86_64-linux-gnu/libm.so.6
ufromfpxf32                                       /lib/x86_64-linux-gnu/libm.so.6
ufromfpxf32@@GLIBC_2.27                           /lib/x86_64-linux-gnu/libm.so.6
ufromfpxf32@GLIBC_2.27                            /lib/x86_64-linux-gnu/libm.so.6
ufromfpxf32x                                      /lib/x86_64-linux-gnu/libm.so.6
ufromfpxf32x@@GLIBC_2.27                          /lib/x86_64-linux-gnu/libm.so.6
ufromfpxf32x@GLIBC_2.27                           /lib/x86_64-linux-gnu/libm.so.6
ufromfpxf64                                       /lib/x86_64-linux-gnu/libm.so.6
ufromfpxf64@@GLIBC_2.27                           /lib/x86_64-linux-gnu/libm.so.6
ufromfpxf64@GLIBC_2.27                            /lib/x86_64-linux-gnu/libm.so.6
ufromfpxf64x                                      /lib/x86_64-linux-gnu/libm.so.6
ufromfpxf64x@@GLIBC_2.27                          /lib/x86_64-linux-gnu/libm.so.6
ufromfpxf64x@GLIBC_2.27                           /lib/x86_64-linux-gnu/libm.so.6
ufromfpxf@@GLIBC_2.25                             /lib/x86_64-linux-gnu/libm.so.6
ufromfpxf@GLIBC_2.25                              /lib/x86_64-linux-gnu/libm.so.6
ufromfpxl                                         /lib/x86_64-linux-gnu/libm.so.6
ufromfpxl@@GLIBC_2.25                             /lib/x86_64-linux-gnu/libm.so.6
ufromfpxl@GLIBC_2.25                              /lib/x86_64-linux-gnu/libm.so.6
ulckpwdf                                          /lib/x86_64-linux-gnu/libc.so.6
ulckpwdf@@GLIBC_2.2.5                             /lib/x86_64-linux-gnu/libc.so.6
ulckpwdf@GLIBC_2.2.5                              /lib/x86_64-linux-gnu/libc.so.6
ulimit                                            /lib/x86_64-linux-gnu/libc.so.6
ulimit@@GLIBC_2.2.5                               /lib/x86_64-linux-gnu/libc.so.6
ulimit@GLIBC_2.2.5                                /lib/x86_64-linux-gnu/libc.so.6
umask                                             /lib/x86_64-linux-gnu/libc.so.6
umask@@GLIBC_2.2.5                                /lib/x86_64-linux-gnu/libc.so.6
umask@GLIBC_2.2.5                                 /lib/x86_64-linux-gnu/libc.so.6
umount                                            /lib/x86_64-linux-gnu/libc.so.6
umount2                                           /lib/x86_64-linux-gnu/libc.so.6
umount2@@GLIBC_2.2.5                              /lib/x86_64-linux-gnu/libc.so.6
umount2@GLIBC_2.2.5                               /lib/x86_64-linux-gnu/libc.so.6
umount@@GLIBC_2.2.5                               /lib/x86_64-linux-gnu/libc.so.6
umount@GLIBC_2.2.5                                /lib/x86_64-linux-gnu/libc.so.6
uname                                             /lib/x86_64-linux-gnu/libc.so.6
uname@@GLIBC_2.2.5                                /lib/x86_64-linux-gnu/libc.so.6
uname@GLIBC_2.2.5                                 /lib/x86_64-linux-gnu/libc.so.6
ungetc                                            /lib/x86_64-linux-gnu/libc.so.6
ungetc@@GLIBC_2.2.5                               /lib/x86_64-linux-gnu/libc.so.6
ungetc@GLIBC_2.2.5                                /lib/x86_64-linux-gnu/libc.so.6
unit_interp_vn                                    ../../lib/libbtsystem.a(btmath.o)
unit_q                                            ../../lib/libbtsystem.a(btmath.o)
unit_v3                                           ../../lib/libbtsystem.a(btmath.o)
unit_vn                                           ../../lib/libbtsystem.a(btmath.o)
unlink                                            /lib/x86_64-linux-gnu/libc.so.6
unlink@@GLIBC_2.2.5                               /lib/x86_64-linux-gnu/libc.so.6
unlink@GLIBC_2.2.5                                /lib/x86_64-linux-gnu/libc.so.6
                                                  /usr/lib/gcc/x86_64-linux-gnu/7/../../../x86_64-linux-gnu/librt.so
                                                  /lib/x86_64-linux-gnu/libpthread.so.0
unpause_trj_bts                                   ../../lib/libbtsystem.a(btstatecontrol.o)
unsetenv                                          /lib/x86_64-linux-gnu/libc.so.6
unsetenv@@GLIBC_2.2.5                             /lib/x86_64-linux-gnu/libc.so.6
unsetenv@GLIBC_2.2.5                              /lib/x86_64-linux-gnu/libc.so.6
updwtmp                                           /lib/x86_64-linux-gnu/libc.so.6
updwtmp@@GLIBC_2.2.5                              /lib/x86_64-linux-gnu/libc.so.6
updwtmp@GLIBC_2.2.5                               /lib/x86_64-linux-gnu/libc.so.6
uselocale                                         /lib/x86_64-linux-gnu/libc.so.6
uselocale@@GLIBC_2.3                              /lib/x86_64-linux-gnu/libc.so.6
uselocale@GLIBC_2.3                               /lib/x86_64-linux-gnu/libc.so.6
utimes                                            /lib/x86_64-linux-gnu/libc.so.6
utimes@@GLIBC_2.2.5                               /lib/x86_64-linux-gnu/libc.so.6
utimes@GLIBC_2.2.5                                /lib/x86_64-linux-gnu/libc.so.6
utmpname                                          /lib/x86_64-linux-gnu/libc.so.6
utmpname@@GLIBC_2.2.5                             /lib/x86_64-linux-gnu/libc.so.6
utmpname@GLIBC_2.2.5                              /lib/x86_64-linux-gnu/libc.so.6
valloc                                            /lib/x86_64-linux-gnu/libc.so.6
valloc@@GLIBC_2.2.5                               /lib/x86_64-linux-gnu/libc.so.6
valloc@GLIBC_2.2.5                                /lib/x86_64-linux-gnu/libc.so.6
valptr_vn                                         ../../lib/libbtsystem.a(btmath.o)
                                                  ../../lib/libbtwam.a(btwam.o)
vasprintf                                         /lib/x86_64-linux-gnu/libc.so.6
vasprintf@@GLIBC_2.2.5                            /lib/x86_64-linux-gnu/libc.so.6
vasprintf@GLIBC_2.2.5                             /lib/x86_64-linux-gnu/libc.so.6
vdprintf                                          /lib/x86_64-linux-gnu/libc.so.6
vdprintf@@GLIBC_2.2.5                             /lib/x86_64-linux-gnu/libc.so.6
vdprintf@GLIBC_2.2.5                              /lib/x86_64-linux-gnu/libc.so.6
versionsort64                                     /lib/x86_64-linux-gnu/libc.so.6
versionsort64@@GLIBC_2.2.5                        /lib/x86_64-linux-gnu/libc.so.6
versionsort64@GLIBC_2.2.5                         /lib/x86_64-linux-gnu/libc.so.6
vfork                                             /lib/x86_64-linux-gnu/libc.so.6
vfork@@GLIBC_2.2.5                                /lib/x86_64-linux-gnu/libc.so.6
vfscanf                                           /lib/x86_64-linux-gnu/libc.so.6
vfscanf@@GLIBC_2.2.5                              /lib/x86_64-linux-gnu/libc.so.6
vfscanf@GLIBC_2.2.5                               /lib/x86_64-linux-gnu/libc.so.6
vfwprintf                                         /lib/x86_64-linux-gnu/libc.so.6
vfwprintf@@GLIBC_2.2.5                            /lib/x86_64-linux-gnu/libc.so.6
vfwprintf@GLIBC_2.2.5                             /lib/x86_64-linux-gnu/libc.so.6
vfwscanf                                          /lib/x86_64-linux-gnu/libc.so.6
vfwscanf@@GLIBC_2.2.5                             /lib/x86_64-linux-gnu/libc.so.6
vfwscanf@GLIBC_2.2.5                              /lib/x86_64-linux-gnu/libc.so.6
vr2pararray                                       ../../lib/libbtsystem.a(btseg.o)
                                                  ../../lib/libbtsystem.a(btcontrol.o)
vscanf                                            /lib/x86_64-linux-gnu/libc.so.6
vscanf@@GLIBC_2.2.5                               /lib/x86_64-linux-gnu/libc.so.6
vscanf@GLIBC_2.2.5                                /lib/x86_64-linux-gnu/libc.so.6
vsnprintf                                         /lib/x86_64-linux-gnu/libc.so.6
vsnprintf@@GLIBC_2.2.5                            /lib/x86_64-linux-gnu/libc.so.6
vsnprintf@GLIBC_2.2.5                             /lib/x86_64-linux-gnu/libc.so.6
vsprintf                                          /lib/x86_64-linux-gnu/libc.so.6
vsprintf@@GLIBC_2.2.5                             /lib/x86_64-linux-gnu/libc.so.6
vsprintf@GLIBC_2.2.5                              /lib/x86_64-linux-gnu/libc.so.6
vsscanf                                           /lib/x86_64-linux-gnu/libc.so.6
vsscanf@@GLIBC_2.2.5                              /lib/x86_64-linux-gnu/libc.so.6
vsscanf@GLIBC_2.2.5                               /lib/x86_64-linux-gnu/libc.so.6
vswprintf                                         /lib/x86_64-linux-gnu/libc.so.6
vswprintf@@GLIBC_2.2.5                            /lib/x86_64-linux-gnu/libc.so.6
vswprintf@GLIBC_2.2.5                             /lib/x86_64-linux-gnu/libc.so.6
wait                                              /lib/x86_64-linux-gnu/libpthread.so.0
wait3                                             /lib/x86_64-linux-gnu/libc.so.6
wait3@@GLIBC_2.2.5                                /lib/x86_64-linux-gnu/libc.so.6
wait3@GLIBC_2.2.5                                 /lib/x86_64-linux-gnu/libc.so.6
wait4                                             /lib/x86_64-linux-gnu/libc.so.6
wait4@@GLIBC_2.2.5                                /lib/x86_64-linux-gnu/libc.so.6
wait4@GLIBC_2.2.5                                 /lib/x86_64-linux-gnu/libc.so.6
wait@@GLIBC_2.2.5                                 /lib/x86_64-linux-gnu/libpthread.so.0
                                                  /lib/x86_64-linux-gnu/libc.so.6
wait@GLIBC_2.2.5                                  /lib/x86_64-linux-gnu/libpthread.so.0
waitid                                            /lib/x86_64-linux-gnu/libc.so.6
waitid@@GLIBC_2.2.5                               /lib/x86_64-linux-gnu/libc.so.6
waitid@GLIBC_2.2.5                                /lib/x86_64-linux-gnu/libc.so.6
waitpid                                           /lib/x86_64-linux-gnu/libpthread.so.0
waitpid@@GLIBC_2.2.5                              /lib/x86_64-linux-gnu/libpthread.so.0
                                                  /lib/x86_64-linux-gnu/libc.so.6
waitpid@GLIBC_2.2.5                               /lib/x86_64-linux-gnu/libpthread.so.0
wakePuck                                          ../../lib/libbtsystem.a(btcan_peakesd.o)
                                                  ../../lib/libbtsystem.a(btsystem.o)
                                                  ../../lib/libbtwam.a(gimbals.o)
wam                                               main.o
wam_thd                                           main.o
warn_upon_switch                                  ../../lib/libbtwam.a(btwam.o)
wcpcpy                                            /lib/x86_64-linux-gnu/libc.so.6
wcpcpy@@GLIBC_2.2.5                               /lib/x86_64-linux-gnu/libc.so.6
wcpcpy@GLIBC_2.2.5                                /lib/x86_64-linux-gnu/libc.so.6
wcpncpy                                           /lib/x86_64-linux-gnu/libc.so.6
wcpncpy@@GLIBC_2.2.5                              /lib/x86_64-linux-gnu/libc.so.6
wcpncpy@GLIBC_2.2.5                               /lib/x86_64-linux-gnu/libc.so.6
wcrtomb                                           /lib/x86_64-linux-gnu/libc.so.6
wcrtomb@@GLIBC_2.2.5                              /lib/x86_64-linux-gnu/libc.so.6
wcrtomb@GLIBC_2.2.5                               /lib/x86_64-linux-gnu/libc.so.6
wcscasecmp                                        /lib/x86_64-linux-gnu/libc.so.6
wcscasecmp@@GLIBC_2.2.5                           /lib/x86_64-linux-gnu/libc.so.6
wcscasecmp@GLIBC_2.2.5                            /lib/x86_64-linux-gnu/libc.so.6
wcscasecmp_l                                      /lib/x86_64-linux-gnu/libc.so.6
wcscasecmp_l@@GLIBC_2.3                           /lib/x86_64-linux-gnu/libc.so.6
wcscasecmp_l@GLIBC_2.3                            /lib/x86_64-linux-gnu/libc.so.6
wcscat                                            /lib/x86_64-linux-gnu/libc.so.6
wcscat@@GLIBC_2.2.5                               /lib/x86_64-linux-gnu/libc.so.6
wcscat@GLIBC_2.2.5                                /lib/x86_64-linux-gnu/libc.so.6
wcschr                                            /lib/x86_64-linux-gnu/libc.so.6
wcschr@@GLIBC_2.2.5                               /lib/x86_64-linux-gnu/libc.so.6
wcschr@GLIBC_2.2.5                                /lib/x86_64-linux-gnu/libc.so.6
wcschrnul                                         /lib/x86_64-linux-gnu/libc.so.6
wcschrnul@@GLIBC_2.2.5                            /lib/x86_64-linux-gnu/libc.so.6
wcschrnul@GLIBC_2.2.5                             /lib/x86_64-linux-gnu/libc.so.6
wcscmp                                            /lib/x86_64-linux-gnu/libc.so.6
wcscmp@@GLIBC_2.2.5                               /lib/x86_64-linux-gnu/libc.so.6
wcscmp@GLIBC_2.2.5                                /lib/x86_64-linux-gnu/libc.so.6
wcscoll                                           /lib/x86_64-linux-gnu/libc.so.6
wcscoll@@GLIBC_2.2.5                              /lib/x86_64-linux-gnu/libc.so.6
wcscoll@GLIBC_2.2.5                               /lib/x86_64-linux-gnu/libc.so.6
wcscoll_l                                         /lib/x86_64-linux-gnu/libc.so.6
wcscoll_l@@GLIBC_2.3                              /lib/x86_64-linux-gnu/libc.so.6
wcscoll_l@GLIBC_2.3                               /lib/x86_64-linux-gnu/libc.so.6
wcsftime_l                                        /lib/x86_64-linux-gnu/libc.so.6
wcsftime_l@@GLIBC_2.3                             /lib/x86_64-linux-gnu/libc.so.6
wcsftime_l@GLIBC_2.3                              /lib/x86_64-linux-gnu/libc.so.6
wcslen                                            /lib/x86_64-linux-gnu/libc.so.6
wcslen@@GLIBC_2.2.5                               /lib/x86_64-linux-gnu/libc.so.6
wcslen@GLIBC_2.2.5                                /lib/x86_64-linux-gnu/libc.so.6
wcsncasecmp                                       /lib/x86_64-linux-gnu/libc.so.6
wcsncasecmp@@GLIBC_2.2.5                          /lib/x86_64-linux-gnu/libc.so.6
wcsncasecmp@GLIBC_2.2.5                           /lib/x86_64-linux-gnu/libc.so.6
wcsncasecmp_l                                     /lib/x86_64-linux-gnu/libc.so.6
wcsncasecmp_l@@GLIBC_2.3                          /lib/x86_64-linux-gnu/libc.so.6
wcsncasecmp_l@GLIBC_2.3                           /lib/x86_64-linux-gnu/libc.so.6
wcsncpy                                           /lib/x86_64-linux-gnu/libc.so.6
wcsncpy@@GLIBC_2.2.5                              /lib/x86_64-linux-gnu/libc.so.6
wcsncpy@GLIBC_2.2.5                               /lib/x86_64-linux-gnu/libc.so.6
wcsnlen                                           /lib/x86_64-linux-gnu/libc.so.6
wcsnlen@@GLIBC_2.2.5                              /lib/x86_64-linux-gnu/libc.so.6
wcsnlen@GLIBC_2.2.5                               /lib/x86_64-linux-gnu/libc.so.6
wcsnrtombs                                        /lib/x86_64-linux-gnu/libc.so.6
wcsnrtombs@@GLIBC_2.2.5                           /lib/x86_64-linux-gnu/libc.so.6
wcsnrtombs@GLIBC_2.2.5                            /lib/x86_64-linux-gnu/libc.so.6
wcsrtombs                                         /lib/x86_64-linux-gnu/libc.so.6
wcsrtombs@@GLIBC_2.2.5                            /lib/x86_64-linux-gnu/libc.so.6
wcsrtombs@GLIBC_2.2.5                             /lib/x86_64-linux-gnu/libc.so.6
wcstod_l                                          /lib/x86_64-linux-gnu/libc.so.6
wcstod_l@@GLIBC_2.3                               /lib/x86_64-linux-gnu/libc.so.6
wcstod_l@GLIBC_2.3                                /lib/x86_64-linux-gnu/libc.so.6
wcstof128_l                                       /lib/x86_64-linux-gnu/libc.so.6
wcstof128_l@@GLIBC_2.26                           /lib/x86_64-linux-gnu/libc.so.6
wcstof128_l@GLIBC_2.26                            /lib/x86_64-linux-gnu/libc.so.6
wcstof32                                          /lib/x86_64-linux-gnu/libc.so.6
wcstof32@@GLIBC_2.27                              /lib/x86_64-linux-gnu/libc.so.6
wcstof32@GLIBC_2.27                               /lib/x86_64-linux-gnu/libc.so.6
wcstof32_l                                        /lib/x86_64-linux-gnu/libc.so.6
wcstof32_l@@GLIBC_2.27                            /lib/x86_64-linux-gnu/libc.so.6
wcstof32_l@GLIBC_2.27                             /lib/x86_64-linux-gnu/libc.so.6
wcstof32x                                         /lib/x86_64-linux-gnu/libc.so.6
wcstof32x@@GLIBC_2.27                             /lib/x86_64-linux-gnu/libc.so.6
wcstof32x@GLIBC_2.27                              /lib/x86_64-linux-gnu/libc.so.6
wcstof32x_l                                       /lib/x86_64-linux-gnu/libc.so.6
wcstof32x_l@@GLIBC_2.27                           /lib/x86_64-linux-gnu/libc.so.6
wcstof32x_l@GLIBC_2.27                            /lib/x86_64-linux-gnu/libc.so.6
wcstof64                                          /lib/x86_64-linux-gnu/libc.so.6
wcstof64@@GLIBC_2.27                              /lib/x86_64-linux-gnu/libc.so.6
wcstof64@GLIBC_2.27                               /lib/x86_64-linux-gnu/libc.so.6
wcstof64_l                                        /lib/x86_64-linux-gnu/libc.so.6
wcstof64_l@@GLIBC_2.27                            /lib/x86_64-linux-gnu/libc.so.6
wcstof64_l@GLIBC_2.27                             /lib/x86_64-linux-gnu/libc.so.6
wcstof64x                                         /lib/x86_64-linux-gnu/libc.so.6
wcstof64x@@GLIBC_2.27                             /lib/x86_64-linux-gnu/libc.so.6
wcstof64x@GLIBC_2.27                              /lib/x86_64-linux-gnu/libc.so.6
wcstof64x_l                                       /lib/x86_64-linux-gnu/libc.so.6
wcstof64x_l@@GLIBC_2.27                           /lib/x86_64-linux-gnu/libc.so.6
wcstof64x_l@GLIBC_2.27                            /lib/x86_64-linux-gnu/libc.so.6
wcstof_l                                          /lib/x86_64-linux-gnu/libc.so.6
wcstof_l@@GLIBC_2.3                               /lib/x86_64-linux-gnu/libc.so.6
wcstof_l@GLIBC_2.3                                /lib/x86_64-linux-gnu/libc.so.6
wcstol                                            /lib/x86_64-linux-gnu/libc.so.6
wcstol@@GLIBC_2.2.5                               /lib/x86_64-linux-gnu/libc.so.6
wcstol@GLIBC_2.2.5                                /lib/x86_64-linux-gnu/libc.so.6
wcstol_l                                          /lib/x86_64-linux-gnu/libc.so.6
wcstol_l@@GLIBC_2.3                               /lib/x86_64-linux-gnu/libc.so.6
wcstol_l@GLIBC_2.3                                /lib/x86_64-linux-gnu/libc.so.6
wcstold_l                                         /lib/x86_64-linux-gnu/libc.so.6
wcstold_l@@GLIBC_2.3                              /lib/x86_64-linux-gnu/libc.so.6
wcstold_l@GLIBC_2.3                               /lib/x86_64-linux-gnu/libc.so.6
wcstoll                                           /lib/x86_64-linux-gnu/libc.so.6
wcstoll@@GLIBC_2.2.5                              /lib/x86_64-linux-gnu/libc.so.6
wcstoll@GLIBC_2.2.5                               /lib/x86_64-linux-gnu/libc.so.6
wcstoll_l                                         /lib/x86_64-linux-gnu/libc.so.6
wcstoll_l@@GLIBC_2.3                              /lib/x86_64-linux-gnu/libc.so.6
wcstoll_l@GLIBC_2.3                               /lib/x86_64-linux-gnu/libc.so.6
wcstoq                                            /lib/x86_64-linux-gnu/libc.so.6
wcstoq@@GLIBC_2.2.5                               /lib/x86_64-linux-gnu/libc.so.6
wcstoq@GLIBC_2.2.5                                /lib/x86_64-linux-gnu/libc.so.6
wcstoul                                           /lib/x86_64-linux-gnu/libc.so.6
wcstoul@@GLIBC_2.2.5                              /lib/x86_64-linux-gnu/libc.so.6
wcstoul@GLIBC_2.2.5                               /lib/x86_64-linux-gnu/libc.so.6
wcstoul_l                                         /lib/x86_64-linux-gnu/libc.so.6
wcstoul_l@@GLIBC_2.3                              /lib/x86_64-linux-gnu/libc.so.6
wcstoul_l@GLIBC_2.3                               /lib/x86_64-linux-gnu/libc.so.6
wcstoull                                          /lib/x86_64-linux-gnu/libc.so.6
wcstoull@@GLIBC_2.2.5                             /lib/x86_64-linux-gnu/libc.so.6
wcstoull@GLIBC_2.2.5                              /lib/x86_64-linux-gnu/libc.so.6
wcstoull_l                                        /lib/x86_64-linux-gnu/libc.so.6
wcstoull_l@@GLIBC_2.3                             /lib/x86_64-linux-gnu/libc.so.6
wcstoull_l@GLIBC_2.3                              /lib/x86_64-linux-gnu/libc.so.6
wcstouq                                           /lib/x86_64-linux-gnu/libc.so.6
wcstouq@@GLIBC_2.2.5                              /lib/x86_64-linux-gnu/libc.so.6
wcstouq@GLIBC_2.2.5                               /lib/x86_64-linux-gnu/libc.so.6
wcswcs                                            /lib/x86_64-linux-gnu/libc.so.6
wcswcs@@GLIBC_2.2.5                               /lib/x86_64-linux-gnu/libc.so.6
wcswcs@GLIBC_2.2.5                                /lib/x86_64-linux-gnu/libc.so.6
wcsxfrm_l                                         /lib/x86_64-linux-gnu/libc.so.6
wcsxfrm_l@@GLIBC_2.3                              /lib/x86_64-linux-gnu/libc.so.6
wcsxfrm_l@GLIBC_2.3                               /lib/x86_64-linux-gnu/libc.so.6
wctrans                                           /lib/x86_64-linux-gnu/libc.so.6
wctrans@@GLIBC_2.2.5                              /lib/x86_64-linux-gnu/libc.so.6
wctrans@GLIBC_2.2.5                               /lib/x86_64-linux-gnu/libc.so.6
wctrans_l                                         /lib/x86_64-linux-gnu/libc.so.6
wctrans_l@@GLIBC_2.3                              /lib/x86_64-linux-gnu/libc.so.6
wctrans_l@GLIBC_2.3                               /lib/x86_64-linux-gnu/libc.so.6
wctype                                            /lib/x86_64-linux-gnu/libc.so.6
wctype@@GLIBC_2.2.5                               /lib/x86_64-linux-gnu/libc.so.6
wctype@GLIBC_2.2.5                                /lib/x86_64-linux-gnu/libc.so.6
wctype_l                                          /lib/x86_64-linux-gnu/libc.so.6
wctype_l@@GLIBC_2.3                               /lib/x86_64-linux-gnu/libc.so.6
wctype_l@GLIBC_2.3                                /lib/x86_64-linux-gnu/libc.so.6
wmemchr                                           /lib/x86_64-linux-gnu/libc.so.6
wmemchr@@GLIBC_2.2.5                              /lib/x86_64-linux-gnu/libc.so.6
wmemchr@GLIBC_2.2.5                               /lib/x86_64-linux-gnu/libc.so.6
wmemcpy                                           /lib/x86_64-linux-gnu/libc.so.6
wmemcpy@@GLIBC_2.2.5                              /lib/x86_64-linux-gnu/libc.so.6
wmemcpy@GLIBC_2.2.5                               /lib/x86_64-linux-gnu/libc.so.6
wmemmove                                          /lib/x86_64-linux-gnu/libc.so.6
wmemmove@@GLIBC_2.2.5                             /lib/x86_64-linux-gnu/libc.so.6
wmemmove@GLIBC_2.2.5                              /lib/x86_64-linux-gnu/libc.so.6
wmempcpy                                          /lib/x86_64-linux-gnu/libc.so.6
wmempcpy@@GLIBC_2.2.5                             /lib/x86_64-linux-gnu/libc.so.6
wmempcpy@GLIBC_2.2.5                              /lib/x86_64-linux-gnu/libc.so.6
wmemset                                           /lib/x86_64-linux-gnu/libc.so.6
wmemset@@GLIBC_2.2.5                              /lib/x86_64-linux-gnu/libc.so.6
wmemset@GLIBC_2.2.5                               /lib/x86_64-linux-gnu/libc.so.6
write                                             /lib/x86_64-linux-gnu/libpthread.so.0
                                                  ../../lib/libbtwam.a(btwam.o)
write@@GLIBC_2.2.5                                /lib/x86_64-linux-gnu/libpthread.so.0
                                                  /lib/x86_64-linux-gnu/libc.so.6
write@GLIBC_2.2.5                                 /lib/x86_64-linux-gnu/libpthread.so.0
                                                  /usr/lib/gcc/x86_64-linux-gnu/7/../../../x86_64-linux-gnu/librt.so
                                                  /usr/lib/libcobalt.so
write_csv_file_vr                                 ../../lib/libbtsystem.a(btmath.o)
                                                  ../../lib/libbtsystem.a(btcontrol.o)
write_file_vta                                    ../../lib/libbtsystem.a(btcontrol.o)
writev                                            /lib/x86_64-linux-gnu/libc.so.6
writev@@GLIBC_2.2.5                               /lib/x86_64-linux-gnu/libc.so.6
writev@GLIBC_2.2.5                                /lib/x86_64-linux-gnu/libc.so.6
xenomai_auto_bootstrap                            /usr/xenomai/lib/xenomai/bootstrap.o
                                                  /usr/lib/libcobalt.so
xenomai_main                                      /usr/xenomai/lib/xenomai/bootstrap.o
y0                                                /lib/x86_64-linux-gnu/libm.so.6
y0@@GLIBC_2.2.5                                   /lib/x86_64-linux-gnu/libm.so.6
y0@GLIBC_2.2.5                                    /lib/x86_64-linux-gnu/libm.so.6
y0f                                               /lib/x86_64-linux-gnu/libm.so.6
y0f128                                            /lib/x86_64-linux-gnu/libm.so.6
y0f128@@GLIBC_2.26                                /lib/x86_64-linux-gnu/libm.so.6
y0f128@GLIBC_2.26                                 /lib/x86_64-linux-gnu/libm.so.6
y0f32                                             /lib/x86_64-linux-gnu/libm.so.6
y0f32@@GLIBC_2.27                                 /lib/x86_64-linux-gnu/libm.so.6
y0f32@GLIBC_2.27                                  /lib/x86_64-linux-gnu/libm.so.6
y0f32x                                            /lib/x86_64-linux-gnu/libm.so.6
y0f32x@@GLIBC_2.27                                /lib/x86_64-linux-gnu/libm.so.6
y0f32x@GLIBC_2.27                                 /lib/x86_64-linux-gnu/libm.so.6
y0f64                                             /lib/x86_64-linux-gnu/libm.so.6
y0f64@@GLIBC_2.27                                 /lib/x86_64-linux-gnu/libm.so.6
y0f64@GLIBC_2.27                                  /lib/x86_64-linux-gnu/libm.so.6
y0f64x                                            /lib/x86_64-linux-gnu/libm.so.6
y0f64x@@GLIBC_2.27                                /lib/x86_64-linux-gnu/libm.so.6
y0f64x@GLIBC_2.27                                 /lib/x86_64-linux-gnu/libm.so.6
y0f@@GLIBC_2.2.5                                  /lib/x86_64-linux-gnu/libm.so.6
y0f@GLIBC_2.2.5                                   /lib/x86_64-linux-gnu/libm.so.6
y0l                                               /lib/x86_64-linux-gnu/libm.so.6
y0l@@GLIBC_2.2.5                                  /lib/x86_64-linux-gnu/libm.so.6
y0l@GLIBC_2.2.5                                   /lib/x86_64-linux-gnu/libm.so.6
y1                                                /lib/x86_64-linux-gnu/libm.so.6
y1@@GLIBC_2.2.5                                   /lib/x86_64-linux-gnu/libm.so.6
y1@GLIBC_2.2.5                                    /lib/x86_64-linux-gnu/libm.so.6
y1f                                               /lib/x86_64-linux-gnu/libm.so.6
y1f128                                            /lib/x86_64-linux-gnu/libm.so.6
y1f128@@GLIBC_2.26                                /lib/x86_64-linux-gnu/libm.so.6
y1f128@GLIBC_2.26                                 /lib/x86_64-linux-gnu/libm.so.6
y1f32                                             /lib/x86_64-linux-gnu/libm.so.6
y1f32@@GLIBC_2.27                                 /lib/x86_64-linux-gnu/libm.so.6
y1f32@GLIBC_2.27                                  /lib/x86_64-linux-gnu/libm.so.6
y1f32x                                            /lib/x86_64-linux-gnu/libm.so.6
y1f32x@@GLIBC_2.27                                /lib/x86_64-linux-gnu/libm.so.6
y1f32x@GLIBC_2.27                                 /lib/x86_64-linux-gnu/libm.so.6
y1f64                                             /lib/x86_64-linux-gnu/libm.so.6
y1f64@@GLIBC_2.27                                 /lib/x86_64-linux-gnu/libm.so.6
y1f64@GLIBC_2.27                                  /lib/x86_64-linux-gnu/libm.so.6
y1f64x                                            /lib/x86_64-linux-gnu/libm.so.6
y1f64x@@GLIBC_2.27                                /lib/x86_64-linux-gnu/libm.so.6
y1f64x@GLIBC_2.27                                 /lib/x86_64-linux-gnu/libm.so.6
y1f@@GLIBC_2.2.5                                  /lib/x86_64-linux-gnu/libm.so.6
y1f@GLIBC_2.2.5                                   /lib/x86_64-linux-gnu/libm.so.6
y1l                                               /lib/x86_64-linux-gnu/libm.so.6
y1l@@GLIBC_2.2.5                                  /lib/x86_64-linux-gnu/libm.so.6
y1l@GLIBC_2.2.5                                   /lib/x86_64-linux-gnu/libm.so.6
yn                                                /lib/x86_64-linux-gnu/libm.so.6
yn@@GLIBC_2.2.5                                   /lib/x86_64-linux-gnu/libm.so.6
yn@GLIBC_2.2.5                                    /lib/x86_64-linux-gnu/libm.so.6
ynf                                               /lib/x86_64-linux-gnu/libm.so.6
ynf128                                            /lib/x86_64-linux-gnu/libm.so.6
ynf128@@GLIBC_2.26                                /lib/x86_64-linux-gnu/libm.so.6
ynf128@GLIBC_2.26                                 /lib/x86_64-linux-gnu/libm.so.6
ynf32                                             /lib/x86_64-linux-gnu/libm.so.6
ynf32@@GLIBC_2.27                                 /lib/x86_64-linux-gnu/libm.so.6
ynf32@GLIBC_2.27                                  /lib/x86_64-linux-gnu/libm.so.6
ynf32x                                            /lib/x86_64-linux-gnu/libm.so.6
ynf32x@@GLIBC_2.27                                /lib/x86_64-linux-gnu/libm.so.6
ynf32x@GLIBC_2.27                                 /lib/x86_64-linux-gnu/libm.so.6
ynf64                                             /lib/x86_64-linux-gnu/libm.so.6
ynf64@@GLIBC_2.27                                 /lib/x86_64-linux-gnu/libm.so.6
ynf64@GLIBC_2.27                                  /lib/x86_64-linux-gnu/libm.so.6
ynf64x                                            /lib/x86_64-linux-gnu/libm.so.6
ynf64x@@GLIBC_2.27                                /lib/x86_64-linux-gnu/libm.so.6
ynf64x@GLIBC_2.27                                 /lib/x86_64-linux-gnu/libm.so.6
ynf@@GLIBC_2.2.5                                  /lib/x86_64-linux-gnu/libm.so.6
ynf@GLIBC_2.2.5                                   /lib/x86_64-linux-gnu/libm.so.6
ynl                                               /lib/x86_64-linux-gnu/libm.so.6
ynl@@GLIBC_2.2.5                                  /lib/x86_64-linux-gnu/libm.so.6
ynl@GLIBC_2.2.5                                   /lib/x86_64-linux-gnu/libm.so.6
zero_mn                                           ../../lib/libbtsystem.a(btmath.o)
                                                  ../../lib/libbtsystem.a(btrobot.o)
